SF:/Users/mihaieremia/GitHub/rs-egld-liquid-staking/delegation-manager-mock/meta/src/main.rs
FN:1,_RNvCsg4w4xrJxFXH_28delegation_manager_mock_meta4main
FNDA:0,_RNvCsg4w4xrJxFXH_28delegation_manager_mock_meta4main
FNF:1
FNH:0
DA:1,0
DA:2,0
DA:3,0
BRF:0
BRH:0
LF:3
LH:0
end_of_record
SF:/Users/mihaieremia/GitHub/rs-egld-liquid-staking/delegation-manager-mock/src/delegation_manager.rs
FN:5,_RINvCs5iFi3DDfmEJ_23delegation_manager_mock12contract_objINtNtNtNtCs2614o7AVePg_22multiversx_sc_scenario3api7impl_vh12vm_hooks_api10VMHooksApiNtNtBY_9debug_api15DebugApiBackendEECsbv7vZMOU1ip_13delegate_test
FN:5,_RINvXs6_Cs5iFi3DDfmEJ_23delegation_manager_mockNtB6_15ContractBuilderNtNtNtCsd0DXYhglbat_13multiversx_sc13contract_base17callable_contract23CallableContractBuilder16new_contract_objINtNtNtNtCs2614o7AVePg_22multiversx_sc_scenario3api7impl_vh12vm_hooks_api10VMHooksApiNtNtB2Y_9debug_api15DebugApiBackendEECsbv7vZMOU1ip_13delegate_test
FN:5,_RNvXs5_Cs5iFi3DDfmEJ_23delegation_manager_mockINtB5_11ContractObjINtNtNtNtCs2614o7AVePg_22multiversx_sc_scenario3api7impl_vh12vm_hooks_api10VMHooksApiNtNtB16_9debug_api15DebugApiBackendEENtNtNtCsd0DXYhglbat_13multiversx_sc13contract_base17callable_contract16CallableContract4callCsbv7vZMOU1ip_13delegate_test
FN:5,_RNvYINtNtNtCsd0DXYhglbat_13multiversx_sc13contract_base22universal_contract_obj20UniversalContractObjINtNtNtNtCs2614o7AVePg_22multiversx_sc_scenario3api7impl_vh12vm_hooks_api10VMHooksApiNtNtB1G_9debug_api15DebugApiBackendEENtCs5iFi3DDfmEJ_23delegation_manager_mock16EndpointWrappers19call_claim_multipleCsbv7vZMOU1ip_13delegate_test
FN:5,_RNvYINtNtNtCsd0DXYhglbat_13multiversx_sc13contract_base22universal_contract_obj20UniversalContractObjINtNtNtNtCs2614o7AVePg_22multiversx_sc_scenario3api7impl_vh12vm_hooks_api10VMHooksApiNtNtB1G_9debug_api15DebugApiBackendEENtCs5iFi3DDfmEJ_23delegation_manager_mock16EndpointWrappers4callCsbv7vZMOU1ip_13delegate_test
FN:5,_RNvYINtNtNtCsd0DXYhglbat_13multiversx_sc13contract_base22universal_contract_obj20UniversalContractObjINtNtNtNtCs2614o7AVePg_22multiversx_sc_scenario3api7impl_vh12vm_hooks_api10VMHooksApiNtNtB1G_9debug_api15DebugApiBackendEENtCs5iFi3DDfmEJ_23delegation_manager_mock16EndpointWrappers8callbackCsbv7vZMOU1ip_13delegate_test
FN:5,_RNvYINtNtNtCsd0DXYhglbat_13multiversx_sc13contract_base22universal_contract_obj20UniversalContractObjINtNtNtNtCs2614o7AVePg_22multiversx_sc_scenario3api7impl_vh12vm_hooks_api10VMHooksApiNtNtB1G_9debug_api15DebugApiBackendEENtCs5iFi3DDfmEJ_23delegation_manager_mock16EndpointWrappers9call_initCsbv7vZMOU1ip_13delegate_test
FN:11,_RNvYINtNtNtCsd0DXYhglbat_13multiversx_sc13contract_base22universal_contract_obj20UniversalContractObjINtNtNtNtCs2614o7AVePg_22multiversx_sc_scenario3api7impl_vh12vm_hooks_api10VMHooksApiNtNtB1G_9debug_api15DebugApiBackendEENtCs5iFi3DDfmEJ_23delegation_manager_mock21DelegationManagerMock14claim_multipleCsbv7vZMOU1ip_13delegate_test
FN:11,_RNvYpNtCsayOD9Ud09vv_23delegation_manager_mock21DelegationManagerMock14claim_multipleB5_
FN:5,_RNvYpNtCsayOD9Ud09vv_23delegation_manager_mock16EndpointWrappers9call_initB5_
FN:5,_RNvYpNtCsayOD9Ud09vv_23delegation_manager_mock16EndpointWrappers19call_claim_multipleB5_
FN:5,_RNvYpNtCsayOD9Ud09vv_23delegation_manager_mock16EndpointWrappers4callB5_
FN:5,_RNvYpNtCsayOD9Ud09vv_23delegation_manager_mock16EndpointWrappers17callback_selectorB5_
FN:5,_RNvYpNtCsayOD9Ud09vv_23delegation_manager_mock16EndpointWrappers8callbackB5_
FN:5,_RNvXs1_CsayOD9Ud09vv_23delegation_manager_mockNtB5_11AbiProviderNtNtNtCsd0DXYhglbat_13multiversx_sc13contract_base21contract_abi_provider19ContractAbiProvider3abi
FN:5,_RNvXINICsayOD9Ud09vv_23delegation_manager_mocks5_0pEINtB5_11ContractObjpENtNtNtCsd0DXYhglbat_13multiversx_sc13contract_base17callable_contract16CallableContract4callB5_
FN:5,_RINvCsayOD9Ud09vv_23delegation_manager_mock12contract_objpEB2_
FN:5,_RINvXs6_CsayOD9Ud09vv_23delegation_manager_mockNtB6_15ContractBuilderNtNtNtCsd0DXYhglbat_13multiversx_sc13contract_base17callable_contract23CallableContractBuilder16new_contract_objpEB6_
FN:5,_RINvNtCsayOD9Ud09vv_23delegation_manager_mock19___wasm__endpoints__4initpEB4_
FN:5,_RINvNtCsayOD9Ud09vv_23delegation_manager_mock19___wasm__endpoints__14claim_multiplepEB4_
FN:5,_RINvNtCsayOD9Ud09vv_23delegation_manager_mock19___wasm__endpoints__8callBackpEB4_
FN:5,_RNvYpNtCsayOD9Ud09vv_23delegation_manager_mock10ProxyTrait4initB5_
FN:5,_RINvYpNtCsayOD9Ud09vv_23delegation_manager_mock10ProxyTrait14claim_multiplepEB6_
FN:5,_RNvXINICsayOD9Ud09vv_23delegation_manager_mocks7_0pEINtB5_5ProxypENtNtNtCsd0DXYhglbat_13multiversx_sc13contract_base14proxy_obj_base12ProxyObjBase19extract_opt_addressB5_
FN:5,_RNvXINICsayOD9Ud09vv_23delegation_manager_mocks7_0pEINtB5_5ProxypENtNtNtCsd0DXYhglbat_13multiversx_sc13contract_base14proxy_obj_base12ProxyObjBase16extract_proxy_toB5_
FN:5,_RNvXINICsayOD9Ud09vv_23delegation_manager_mocks8_0pEINtB5_5ProxypENtNtNtCsd0DXYhglbat_13multiversx_sc13contract_base14proxy_obj_base11ProxyObjNew13new_proxy_objB5_
FN:5,_RNvXINICsayOD9Ud09vv_23delegation_manager_mocks8_0pEINtB5_5ProxypENtNtNtCsd0DXYhglbat_13multiversx_sc13contract_base14proxy_obj_base11ProxyObjNew8contractB5_
FN:5,_RNvXINICsayOD9Ud09vv_23delegation_manager_mocks9_0pEINtB5_7ProxyTopENtNtNtCsd0DXYhglbat_13multiversx_sc13contract_base14proxy_obj_base12ProxyObjBase19extract_opt_addressB5_
FN:5,_RNvXINICsayOD9Ud09vv_23delegation_manager_mocks9_0pEINtB5_7ProxyTopENtNtNtCsd0DXYhglbat_13multiversx_sc13contract_base14proxy_obj_base12ProxyObjBase15extract_addressB5_
FN:5,_RNvXINICsayOD9Ud09vv_23delegation_manager_mocks9_0pEINtB5_7ProxyTopENtNtNtCsd0DXYhglbat_13multiversx_sc13contract_base14proxy_obj_base12ProxyObjBase16extract_proxy_toB5_
FN:5,_RNvYINtNtNtCsd0DXYhglbat_13multiversx_sc13contract_base22universal_contract_obj20UniversalContractObjINtNtNtNtCs2614o7AVePg_22multiversx_sc_scenario3api7impl_vh12vm_hooks_api10VMHooksApiNtNtB1G_9debug_api15DebugApiBackendEENtCs5iFi3DDfmEJ_23delegation_manager_mock16EndpointWrappers19call_claim_multipleCs25HLPETZpNm_4test
FN:5,_RNvYINtNtNtCsd0DXYhglbat_13multiversx_sc13contract_base22universal_contract_obj20UniversalContractObjINtNtNtNtCs2614o7AVePg_22multiversx_sc_scenario3api7impl_vh12vm_hooks_api10VMHooksApiNtNtB1G_9debug_api15DebugApiBackendEENtCs5iFi3DDfmEJ_23delegation_manager_mock16EndpointWrappers4callCs25HLPETZpNm_4test
FN:5,_RNvYINtNtNtCsd0DXYhglbat_13multiversx_sc13contract_base22universal_contract_obj20UniversalContractObjINtNtNtNtCs2614o7AVePg_22multiversx_sc_scenario3api7impl_vh12vm_hooks_api10VMHooksApiNtNtB1G_9debug_api15DebugApiBackendEENtCs5iFi3DDfmEJ_23delegation_manager_mock16EndpointWrappers8callbackCs25HLPETZpNm_4test
FN:5,_RNvYINtNtNtCsd0DXYhglbat_13multiversx_sc13contract_base22universal_contract_obj20UniversalContractObjINtNtNtNtCs2614o7AVePg_22multiversx_sc_scenario3api7impl_vh12vm_hooks_api10VMHooksApiNtNtB1G_9debug_api15DebugApiBackendEENtCs5iFi3DDfmEJ_23delegation_manager_mock16EndpointWrappers9call_initCs25HLPETZpNm_4test
FN:11,_RNvYINtNtNtCsd0DXYhglbat_13multiversx_sc13contract_base22universal_contract_obj20UniversalContractObjINtNtNtNtCs2614o7AVePg_22multiversx_sc_scenario3api7impl_vh12vm_hooks_api10VMHooksApiNtNtB1G_9debug_api15DebugApiBackendEENtCs5iFi3DDfmEJ_23delegation_manager_mock21DelegationManagerMock14claim_multipleCs25HLPETZpNm_4test
FN:5,_RINvCs5iFi3DDfmEJ_23delegation_manager_mock12contract_objINtNtNtNtCs2614o7AVePg_22multiversx_sc_scenario3api7impl_vh12vm_hooks_api10VMHooksApiNtNtBY_9debug_api15DebugApiBackendEECs25HLPETZpNm_4test
FN:5,_RINvXs6_Cs5iFi3DDfmEJ_23delegation_manager_mockNtB6_15ContractBuilderNtNtNtCsd0DXYhglbat_13multiversx_sc13contract_base17callable_contract23CallableContractBuilder16new_contract_objINtNtNtNtCs2614o7AVePg_22multiversx_sc_scenario3api7impl_vh12vm_hooks_api10VMHooksApiNtNtB2Y_9debug_api15DebugApiBackendEECs25HLPETZpNm_4test
FN:5,_RNvXs5_Cs5iFi3DDfmEJ_23delegation_manager_mockINtB5_11ContractObjINtNtNtNtCs2614o7AVePg_22multiversx_sc_scenario3api7impl_vh12vm_hooks_api10VMHooksApiNtNtB16_9debug_api15DebugApiBackendEENtNtNtCsd0DXYhglbat_13multiversx_sc13contract_base17callable_contract16CallableContract4callCs25HLPETZpNm_4test
FN:5,_RNvYINtNtNtCsd0DXYhglbat_13multiversx_sc13contract_base22universal_contract_obj20UniversalContractObjINtNtNtNtCs2614o7AVePg_22multiversx_sc_scenario3api7impl_vh12vm_hooks_api10VMHooksApiNtNtB1G_9debug_api15DebugApiBackendEENtCs5iFi3DDfmEJ_23delegation_manager_mock16EndpointWrappers19call_claim_multipleCsgub9DQDg2s9_15unDelegate_test
FN:5,_RNvYINtNtNtCsd0DXYhglbat_13multiversx_sc13contract_base22universal_contract_obj20UniversalContractObjINtNtNtNtCs2614o7AVePg_22multiversx_sc_scenario3api7impl_vh12vm_hooks_api10VMHooksApiNtNtB1G_9debug_api15DebugApiBackendEENtCs5iFi3DDfmEJ_23delegation_manager_mock16EndpointWrappers4callCsgub9DQDg2s9_15unDelegate_test
FN:5,_RNvYINtNtNtCsd0DXYhglbat_13multiversx_sc13contract_base22universal_contract_obj20UniversalContractObjINtNtNtNtCs2614o7AVePg_22multiversx_sc_scenario3api7impl_vh12vm_hooks_api10VMHooksApiNtNtB1G_9debug_api15DebugApiBackendEENtCs5iFi3DDfmEJ_23delegation_manager_mock16EndpointWrappers8callbackCsgub9DQDg2s9_15unDelegate_test
FN:5,_RNvYINtNtNtCsd0DXYhglbat_13multiversx_sc13contract_base22universal_contract_obj20UniversalContractObjINtNtNtNtCs2614o7AVePg_22multiversx_sc_scenario3api7impl_vh12vm_hooks_api10VMHooksApiNtNtB1G_9debug_api15DebugApiBackendEENtCs5iFi3DDfmEJ_23delegation_manager_mock16EndpointWrappers9call_initCsgub9DQDg2s9_15unDelegate_test
FN:11,_RNvYINtNtNtCsd0DXYhglbat_13multiversx_sc13contract_base22universal_contract_obj20UniversalContractObjINtNtNtNtCs2614o7AVePg_22multiversx_sc_scenario3api7impl_vh12vm_hooks_api10VMHooksApiNtNtB1G_9debug_api15DebugApiBackendEENtCs5iFi3DDfmEJ_23delegation_manager_mock21DelegationManagerMock14claim_multipleCsgub9DQDg2s9_15unDelegate_test
FN:5,_RINvCs5iFi3DDfmEJ_23delegation_manager_mock12contract_objINtNtNtNtCs2614o7AVePg_22multiversx_sc_scenario3api7impl_vh12vm_hooks_api10VMHooksApiNtNtBY_9debug_api15DebugApiBackendEECsgub9DQDg2s9_15unDelegate_test
FN:5,_RINvXs6_Cs5iFi3DDfmEJ_23delegation_manager_mockNtB6_15ContractBuilderNtNtNtCsd0DXYhglbat_13multiversx_sc13contract_base17callable_contract23CallableContractBuilder16new_contract_objINtNtNtNtCs2614o7AVePg_22multiversx_sc_scenario3api7impl_vh12vm_hooks_api10VMHooksApiNtNtB2Y_9debug_api15DebugApiBackendEECsgub9DQDg2s9_15unDelegate_test
FN:5,_RNvXs5_Cs5iFi3DDfmEJ_23delegation_manager_mockINtB5_11ContractObjINtNtNtNtCs2614o7AVePg_22multiversx_sc_scenario3api7impl_vh12vm_hooks_api10VMHooksApiNtNtB16_9debug_api15DebugApiBackendEENtNtNtCsd0DXYhglbat_13multiversx_sc13contract_base17callable_contract16CallableContract4callCsgub9DQDg2s9_15unDelegate_test
FN:5,_RNvYINtNtNtCsd0DXYhglbat_13multiversx_sc13contract_base22universal_contract_obj20UniversalContractObjINtNtNtNtCs2614o7AVePg_22multiversx_sc_scenario3api7impl_vh12vm_hooks_api10VMHooksApiNtNtB1G_9debug_api15DebugApiBackendEENtCs5iFi3DDfmEJ_23delegation_manager_mock16EndpointWrappers19call_claim_multipleCscNyXpV1vtNq_11unbond_test
FN:5,_RNvYINtNtNtCsd0DXYhglbat_13multiversx_sc13contract_base22universal_contract_obj20UniversalContractObjINtNtNtNtCs2614o7AVePg_22multiversx_sc_scenario3api7impl_vh12vm_hooks_api10VMHooksApiNtNtB1G_9debug_api15DebugApiBackendEENtCs5iFi3DDfmEJ_23delegation_manager_mock16EndpointWrappers4callCscNyXpV1vtNq_11unbond_test
FN:5,_RNvYINtNtNtCsd0DXYhglbat_13multiversx_sc13contract_base22universal_contract_obj20UniversalContractObjINtNtNtNtCs2614o7AVePg_22multiversx_sc_scenario3api7impl_vh12vm_hooks_api10VMHooksApiNtNtB1G_9debug_api15DebugApiBackendEENtCs5iFi3DDfmEJ_23delegation_manager_mock16EndpointWrappers8callbackCscNyXpV1vtNq_11unbond_test
FN:5,_RNvYINtNtNtCsd0DXYhglbat_13multiversx_sc13contract_base22universal_contract_obj20UniversalContractObjINtNtNtNtCs2614o7AVePg_22multiversx_sc_scenario3api7impl_vh12vm_hooks_api10VMHooksApiNtNtB1G_9debug_api15DebugApiBackendEENtCs5iFi3DDfmEJ_23delegation_manager_mock16EndpointWrappers9call_initCscNyXpV1vtNq_11unbond_test
FN:11,_RNvYINtNtNtCsd0DXYhglbat_13multiversx_sc13contract_base22universal_contract_obj20UniversalContractObjINtNtNtNtCs2614o7AVePg_22multiversx_sc_scenario3api7impl_vh12vm_hooks_api10VMHooksApiNtNtB1G_9debug_api15DebugApiBackendEENtCs5iFi3DDfmEJ_23delegation_manager_mock21DelegationManagerMock14claim_multipleCscNyXpV1vtNq_11unbond_test
FN:5,_RINvCs5iFi3DDfmEJ_23delegation_manager_mock12contract_objINtNtNtNtCs2614o7AVePg_22multiversx_sc_scenario3api7impl_vh12vm_hooks_api10VMHooksApiNtNtBY_9debug_api15DebugApiBackendEECscNyXpV1vtNq_11unbond_test
FN:5,_RINvXs6_Cs5iFi3DDfmEJ_23delegation_manager_mockNtB6_15ContractBuilderNtNtNtCsd0DXYhglbat_13multiversx_sc13contract_base17callable_contract23CallableContractBuilder16new_contract_objINtNtNtNtCs2614o7AVePg_22multiversx_sc_scenario3api7impl_vh12vm_hooks_api10VMHooksApiNtNtB2Y_9debug_api15DebugApiBackendEECscNyXpV1vtNq_11unbond_test
FN:5,_RNvXs5_Cs5iFi3DDfmEJ_23delegation_manager_mockINtB5_11ContractObjINtNtNtNtCs2614o7AVePg_22multiversx_sc_scenario3api7impl_vh12vm_hooks_api10VMHooksApiNtNtB16_9debug_api15DebugApiBackendEENtNtNtCsd0DXYhglbat_13multiversx_sc13contract_base17callable_contract16CallableContract4callCscNyXpV1vtNq_11unbond_test
FNDA:16,_RINvCs5iFi3DDfmEJ_23delegation_manager_mock12contract_objINtNtNtNtCs2614o7AVePg_22multiversx_sc_scenario3api7impl_vh12vm_hooks_api10VMHooksApiNtNtBY_9debug_api15DebugApiBackendEECsbv7vZMOU1ip_13delegate_test
FNDA:16,_RINvXs6_Cs5iFi3DDfmEJ_23delegation_manager_mockNtB6_15ContractBuilderNtNtNtCsd0DXYhglbat_13multiversx_sc13contract_base17callable_contract23CallableContractBuilder16new_contract_objINtNtNtNtCs2614o7AVePg_22multiversx_sc_scenario3api7impl_vh12vm_hooks_api10VMHooksApiNtNtB2Y_9debug_api15DebugApiBackendEECsbv7vZMOU1ip_13delegate_test
FNDA:16,_RNvXs5_Cs5iFi3DDfmEJ_23delegation_manager_mockINtB5_11ContractObjINtNtNtNtCs2614o7AVePg_22multiversx_sc_scenario3api7impl_vh12vm_hooks_api10VMHooksApiNtNtB16_9debug_api15DebugApiBackendEENtNtNtCsd0DXYhglbat_13multiversx_sc13contract_base17callable_contract16CallableContract4callCsbv7vZMOU1ip_13delegate_test
FNDA:0,_RNvYINtNtNtCsd0DXYhglbat_13multiversx_sc13contract_base22universal_contract_obj20UniversalContractObjINtNtNtNtCs2614o7AVePg_22multiversx_sc_scenario3api7impl_vh12vm_hooks_api10VMHooksApiNtNtB1G_9debug_api15DebugApiBackendEENtCs5iFi3DDfmEJ_23delegation_manager_mock16EndpointWrappers19call_claim_multipleCsbv7vZMOU1ip_13delegate_test
FNDA:16,_RNvYINtNtNtCsd0DXYhglbat_13multiversx_sc13contract_base22universal_contract_obj20UniversalContractObjINtNtNtNtCs2614o7AVePg_22multiversx_sc_scenario3api7impl_vh12vm_hooks_api10VMHooksApiNtNtB1G_9debug_api15DebugApiBackendEENtCs5iFi3DDfmEJ_23delegation_manager_mock16EndpointWrappers4callCsbv7vZMOU1ip_13delegate_test
FNDA:0,_RNvYINtNtNtCsd0DXYhglbat_13multiversx_sc13contract_base22universal_contract_obj20UniversalContractObjINtNtNtNtCs2614o7AVePg_22multiversx_sc_scenario3api7impl_vh12vm_hooks_api10VMHooksApiNtNtB1G_9debug_api15DebugApiBackendEENtCs5iFi3DDfmEJ_23delegation_manager_mock16EndpointWrappers8callbackCsbv7vZMOU1ip_13delegate_test
FNDA:16,_RNvYINtNtNtCsd0DXYhglbat_13multiversx_sc13contract_base22universal_contract_obj20UniversalContractObjINtNtNtNtCs2614o7AVePg_22multiversx_sc_scenario3api7impl_vh12vm_hooks_api10VMHooksApiNtNtB1G_9debug_api15DebugApiBackendEENtCs5iFi3DDfmEJ_23delegation_manager_mock16EndpointWrappers9call_initCsbv7vZMOU1ip_13delegate_test
FNDA:0,_RNvYINtNtNtCsd0DXYhglbat_13multiversx_sc13contract_base22universal_contract_obj20UniversalContractObjINtNtNtNtCs2614o7AVePg_22multiversx_sc_scenario3api7impl_vh12vm_hooks_api10VMHooksApiNtNtB1G_9debug_api15DebugApiBackendEENtCs5iFi3DDfmEJ_23delegation_manager_mock21DelegationManagerMock14claim_multipleCsbv7vZMOU1ip_13delegate_test
FNDA:0,_RNvYpNtCsayOD9Ud09vv_23delegation_manager_mock21DelegationManagerMock14claim_multipleB5_
FNDA:0,_RNvYpNtCsayOD9Ud09vv_23delegation_manager_mock16EndpointWrappers9call_initB5_
FNDA:0,_RNvYpNtCsayOD9Ud09vv_23delegation_manager_mock16EndpointWrappers19call_claim_multipleB5_
FNDA:0,_RNvYpNtCsayOD9Ud09vv_23delegation_manager_mock16EndpointWrappers4callB5_
FNDA:0,_RNvYpNtCsayOD9Ud09vv_23delegation_manager_mock16EndpointWrappers17callback_selectorB5_
FNDA:0,_RNvYpNtCsayOD9Ud09vv_23delegation_manager_mock16EndpointWrappers8callbackB5_
FNDA:0,_RNvXs1_CsayOD9Ud09vv_23delegation_manager_mockNtB5_11AbiProviderNtNtNtCsd0DXYhglbat_13multiversx_sc13contract_base21contract_abi_provider19ContractAbiProvider3abi
FNDA:0,_RNvXINICsayOD9Ud09vv_23delegation_manager_mocks5_0pEINtB5_11ContractObjpENtNtNtCsd0DXYhglbat_13multiversx_sc13contract_base17callable_contract16CallableContract4callB5_
FNDA:0,_RINvCsayOD9Ud09vv_23delegation_manager_mock12contract_objpEB2_
FNDA:0,_RINvXs6_CsayOD9Ud09vv_23delegation_manager_mockNtB6_15ContractBuilderNtNtNtCsd0DXYhglbat_13multiversx_sc13contract_base17callable_contract23CallableContractBuilder16new_contract_objpEB6_
FNDA:0,_RINvNtCsayOD9Ud09vv_23delegation_manager_mock19___wasm__endpoints__4initpEB4_
FNDA:0,_RINvNtCsayOD9Ud09vv_23delegation_manager_mock19___wasm__endpoints__14claim_multiplepEB4_
FNDA:0,_RINvNtCsayOD9Ud09vv_23delegation_manager_mock19___wasm__endpoints__8callBackpEB4_
FNDA:0,_RNvYpNtCsayOD9Ud09vv_23delegation_manager_mock10ProxyTrait4initB5_
FNDA:0,_RINvYpNtCsayOD9Ud09vv_23delegation_manager_mock10ProxyTrait14claim_multiplepEB6_
FNDA:0,_RNvXINICsayOD9Ud09vv_23delegation_manager_mocks7_0pEINtB5_5ProxypENtNtNtCsd0DXYhglbat_13multiversx_sc13contract_base14proxy_obj_base12ProxyObjBase19extract_opt_addressB5_
FNDA:0,_RNvXINICsayOD9Ud09vv_23delegation_manager_mocks7_0pEINtB5_5ProxypENtNtNtCsd0DXYhglbat_13multiversx_sc13contract_base14proxy_obj_base12ProxyObjBase16extract_proxy_toB5_
FNDA:0,_RNvXINICsayOD9Ud09vv_23delegation_manager_mocks8_0pEINtB5_5ProxypENtNtNtCsd0DXYhglbat_13multiversx_sc13contract_base14proxy_obj_base11ProxyObjNew13new_proxy_objB5_
FNDA:0,_RNvXINICsayOD9Ud09vv_23delegation_manager_mocks8_0pEINtB5_5ProxypENtNtNtCsd0DXYhglbat_13multiversx_sc13contract_base14proxy_obj_base11ProxyObjNew8contractB5_
FNDA:0,_RNvXINICsayOD9Ud09vv_23delegation_manager_mocks9_0pEINtB5_7ProxyTopENtNtNtCsd0DXYhglbat_13multiversx_sc13contract_base14proxy_obj_base12ProxyObjBase19extract_opt_addressB5_
FNDA:0,_RNvXINICsayOD9Ud09vv_23delegation_manager_mocks9_0pEINtB5_7ProxyTopENtNtNtCsd0DXYhglbat_13multiversx_sc13contract_base14proxy_obj_base12ProxyObjBase15extract_addressB5_
FNDA:0,_RNvXINICsayOD9Ud09vv_23delegation_manager_mocks9_0pEINtB5_7ProxyTopENtNtNtCsd0DXYhglbat_13multiversx_sc13contract_base14proxy_obj_base12ProxyObjBase16extract_proxy_toB5_
FNDA:0,_RNvYINtNtNtCsd0DXYhglbat_13multiversx_sc13contract_base22universal_contract_obj20UniversalContractObjINtNtNtNtCs2614o7AVePg_22multiversx_sc_scenario3api7impl_vh12vm_hooks_api10VMHooksApiNtNtB1G_9debug_api15DebugApiBackendEENtCs5iFi3DDfmEJ_23delegation_manager_mock16EndpointWrappers19call_claim_multipleCs25HLPETZpNm_4test
FNDA:5,_RNvYINtNtNtCsd0DXYhglbat_13multiversx_sc13contract_base22universal_contract_obj20UniversalContractObjINtNtNtNtCs2614o7AVePg_22multiversx_sc_scenario3api7impl_vh12vm_hooks_api10VMHooksApiNtNtB1G_9debug_api15DebugApiBackendEENtCs5iFi3DDfmEJ_23delegation_manager_mock16EndpointWrappers4callCs25HLPETZpNm_4test
FNDA:0,_RNvYINtNtNtCsd0DXYhglbat_13multiversx_sc13contract_base22universal_contract_obj20UniversalContractObjINtNtNtNtCs2614o7AVePg_22multiversx_sc_scenario3api7impl_vh12vm_hooks_api10VMHooksApiNtNtB1G_9debug_api15DebugApiBackendEENtCs5iFi3DDfmEJ_23delegation_manager_mock16EndpointWrappers8callbackCs25HLPETZpNm_4test
FNDA:5,_RNvYINtNtNtCsd0DXYhglbat_13multiversx_sc13contract_base22universal_contract_obj20UniversalContractObjINtNtNtNtCs2614o7AVePg_22multiversx_sc_scenario3api7impl_vh12vm_hooks_api10VMHooksApiNtNtB1G_9debug_api15DebugApiBackendEENtCs5iFi3DDfmEJ_23delegation_manager_mock16EndpointWrappers9call_initCs25HLPETZpNm_4test
FNDA:0,_RNvYINtNtNtCsd0DXYhglbat_13multiversx_sc13contract_base22universal_contract_obj20UniversalContractObjINtNtNtNtCs2614o7AVePg_22multiversx_sc_scenario3api7impl_vh12vm_hooks_api10VMHooksApiNtNtB1G_9debug_api15DebugApiBackendEENtCs5iFi3DDfmEJ_23delegation_manager_mock21DelegationManagerMock14claim_multipleCs25HLPETZpNm_4test
FNDA:5,_RINvCs5iFi3DDfmEJ_23delegation_manager_mock12contract_objINtNtNtNtCs2614o7AVePg_22multiversx_sc_scenario3api7impl_vh12vm_hooks_api10VMHooksApiNtNtBY_9debug_api15DebugApiBackendEECs25HLPETZpNm_4test
FNDA:5,_RINvXs6_Cs5iFi3DDfmEJ_23delegation_manager_mockNtB6_15ContractBuilderNtNtNtCsd0DXYhglbat_13multiversx_sc13contract_base17callable_contract23CallableContractBuilder16new_contract_objINtNtNtNtCs2614o7AVePg_22multiversx_sc_scenario3api7impl_vh12vm_hooks_api10VMHooksApiNtNtB2Y_9debug_api15DebugApiBackendEECs25HLPETZpNm_4test
FNDA:5,_RNvXs5_Cs5iFi3DDfmEJ_23delegation_manager_mockINtB5_11ContractObjINtNtNtNtCs2614o7AVePg_22multiversx_sc_scenario3api7impl_vh12vm_hooks_api10VMHooksApiNtNtB16_9debug_api15DebugApiBackendEENtNtNtCsd0DXYhglbat_13multiversx_sc13contract_base17callable_contract16CallableContract4callCs25HLPETZpNm_4test
FNDA:0,_RNvYINtNtNtCsd0DXYhglbat_13multiversx_sc13contract_base22universal_contract_obj20UniversalContractObjINtNtNtNtCs2614o7AVePg_22multiversx_sc_scenario3api7impl_vh12vm_hooks_api10VMHooksApiNtNtB1G_9debug_api15DebugApiBackendEENtCs5iFi3DDfmEJ_23delegation_manager_mock16EndpointWrappers19call_claim_multipleCsgub9DQDg2s9_15unDelegate_test
FNDA:19,_RNvYINtNtNtCsd0DXYhglbat_13multiversx_sc13contract_base22universal_contract_obj20UniversalContractObjINtNtNtNtCs2614o7AVePg_22multiversx_sc_scenario3api7impl_vh12vm_hooks_api10VMHooksApiNtNtB1G_9debug_api15DebugApiBackendEENtCs5iFi3DDfmEJ_23delegation_manager_mock16EndpointWrappers4callCsgub9DQDg2s9_15unDelegate_test
FNDA:0,_RNvYINtNtNtCsd0DXYhglbat_13multiversx_sc13contract_base22universal_contract_obj20UniversalContractObjINtNtNtNtCs2614o7AVePg_22multiversx_sc_scenario3api7impl_vh12vm_hooks_api10VMHooksApiNtNtB1G_9debug_api15DebugApiBackendEENtCs5iFi3DDfmEJ_23delegation_manager_mock16EndpointWrappers8callbackCsgub9DQDg2s9_15unDelegate_test
FNDA:19,_RNvYINtNtNtCsd0DXYhglbat_13multiversx_sc13contract_base22universal_contract_obj20UniversalContractObjINtNtNtNtCs2614o7AVePg_22multiversx_sc_scenario3api7impl_vh12vm_hooks_api10VMHooksApiNtNtB1G_9debug_api15DebugApiBackendEENtCs5iFi3DDfmEJ_23delegation_manager_mock16EndpointWrappers9call_initCsgub9DQDg2s9_15unDelegate_test
FNDA:0,_RNvYINtNtNtCsd0DXYhglbat_13multiversx_sc13contract_base22universal_contract_obj20UniversalContractObjINtNtNtNtCs2614o7AVePg_22multiversx_sc_scenario3api7impl_vh12vm_hooks_api10VMHooksApiNtNtB1G_9debug_api15DebugApiBackendEENtCs5iFi3DDfmEJ_23delegation_manager_mock21DelegationManagerMock14claim_multipleCsgub9DQDg2s9_15unDelegate_test
FNDA:19,_RINvCs5iFi3DDfmEJ_23delegation_manager_mock12contract_objINtNtNtNtCs2614o7AVePg_22multiversx_sc_scenario3api7impl_vh12vm_hooks_api10VMHooksApiNtNtBY_9debug_api15DebugApiBackendEECsgub9DQDg2s9_15unDelegate_test
FNDA:19,_RINvXs6_Cs5iFi3DDfmEJ_23delegation_manager_mockNtB6_15ContractBuilderNtNtNtCsd0DXYhglbat_13multiversx_sc13contract_base17callable_contract23CallableContractBuilder16new_contract_objINtNtNtNtCs2614o7AVePg_22multiversx_sc_scenario3api7impl_vh12vm_hooks_api10VMHooksApiNtNtB2Y_9debug_api15DebugApiBackendEECsgub9DQDg2s9_15unDelegate_test
FNDA:19,_RNvXs5_Cs5iFi3DDfmEJ_23delegation_manager_mockINtB5_11ContractObjINtNtNtNtCs2614o7AVePg_22multiversx_sc_scenario3api7impl_vh12vm_hooks_api10VMHooksApiNtNtB16_9debug_api15DebugApiBackendEENtNtNtCsd0DXYhglbat_13multiversx_sc13contract_base17callable_contract16CallableContract4callCsgub9DQDg2s9_15unDelegate_test
FNDA:0,_RNvYINtNtNtCsd0DXYhglbat_13multiversx_sc13contract_base22universal_contract_obj20UniversalContractObjINtNtNtNtCs2614o7AVePg_22multiversx_sc_scenario3api7impl_vh12vm_hooks_api10VMHooksApiNtNtB1G_9debug_api15DebugApiBackendEENtCs5iFi3DDfmEJ_23delegation_manager_mock16EndpointWrappers19call_claim_multipleCscNyXpV1vtNq_11unbond_test
FNDA:7,_RNvYINtNtNtCsd0DXYhglbat_13multiversx_sc13contract_base22universal_contract_obj20UniversalContractObjINtNtNtNtCs2614o7AVePg_22multiversx_sc_scenario3api7impl_vh12vm_hooks_api10VMHooksApiNtNtB1G_9debug_api15DebugApiBackendEENtCs5iFi3DDfmEJ_23delegation_manager_mock16EndpointWrappers4callCscNyXpV1vtNq_11unbond_test
FNDA:0,_RNvYINtNtNtCsd0DXYhglbat_13multiversx_sc13contract_base22universal_contract_obj20UniversalContractObjINtNtNtNtCs2614o7AVePg_22multiversx_sc_scenario3api7impl_vh12vm_hooks_api10VMHooksApiNtNtB1G_9debug_api15DebugApiBackendEENtCs5iFi3DDfmEJ_23delegation_manager_mock16EndpointWrappers8callbackCscNyXpV1vtNq_11unbond_test
FNDA:7,_RNvYINtNtNtCsd0DXYhglbat_13multiversx_sc13contract_base22universal_contract_obj20UniversalContractObjINtNtNtNtCs2614o7AVePg_22multiversx_sc_scenario3api7impl_vh12vm_hooks_api10VMHooksApiNtNtB1G_9debug_api15DebugApiBackendEENtCs5iFi3DDfmEJ_23delegation_manager_mock16EndpointWrappers9call_initCscNyXpV1vtNq_11unbond_test
FNDA:0,_RNvYINtNtNtCsd0DXYhglbat_13multiversx_sc13contract_base22universal_contract_obj20UniversalContractObjINtNtNtNtCs2614o7AVePg_22multiversx_sc_scenario3api7impl_vh12vm_hooks_api10VMHooksApiNtNtB1G_9debug_api15DebugApiBackendEENtCs5iFi3DDfmEJ_23delegation_manager_mock21DelegationManagerMock14claim_multipleCscNyXpV1vtNq_11unbond_test
FNDA:7,_RINvCs5iFi3DDfmEJ_23delegation_manager_mock12contract_objINtNtNtNtCs2614o7AVePg_22multiversx_sc_scenario3api7impl_vh12vm_hooks_api10VMHooksApiNtNtBY_9debug_api15DebugApiBackendEECscNyXpV1vtNq_11unbond_test
FNDA:7,_RINvXs6_Cs5iFi3DDfmEJ_23delegation_manager_mockNtB6_15ContractBuilderNtNtNtCsd0DXYhglbat_13multiversx_sc13contract_base17callable_contract23CallableContractBuilder16new_contract_objINtNtNtNtCs2614o7AVePg_22multiversx_sc_scenario3api7impl_vh12vm_hooks_api10VMHooksApiNtNtB2Y_9debug_api15DebugApiBackendEECscNyXpV1vtNq_11unbond_test
FNDA:7,_RNvXs5_Cs5iFi3DDfmEJ_23delegation_manager_mockINtB5_11ContractObjINtNtNtNtCs2614o7AVePg_22multiversx_sc_scenario3api7impl_vh12vm_hooks_api10VMHooksApiNtNtB16_9debug_api15DebugApiBackendEENtNtNtCsd0DXYhglbat_13multiversx_sc13contract_base17callable_contract16CallableContract4callCscNyXpV1vtNq_11unbond_test
FNF:2
FNH:1
DA:5,94
DA:11,0
DA:12,0
DA:13,0
DA:14,0
DA:15,0
DA:16,0
DA:17,0
DA:18,0
DA:19,0
DA:20,0
DA:21,0
DA:22,0
DA:23,0
DA:24,0
DA:25,0
DA:26,0
DA:27,0
BRF:0
BRH:0
LF:18
LH:1
end_of_record
SF:/Users/mihaieremia/GitHub/rs-egld-liquid-staking/delegation-manager-mock/src/proxy_delegation.rs
FN:103,_RNvMs0_NtCs5iFi3DDfmEJ_23delegation_manager_mock16proxy_delegationINtB5_26DelegationMockProxyMethodsINtNtNtNtNtCsd0DXYhglbat_13multiversx_sc5types11interaction7tx_exec9tx_env_sc7TxScEnvINtNtNtNtCs2614o7AVePg_22multiversx_sc_scenario3api7impl_vh12vm_hooks_api10VMHooksApiNtNtB32_9debug_api15DebugApiBackendEEuRINtNtNtNtB1J_7managed7wrapped15managed_address14ManagedAddressB2X_EuE13claim_rewardsCsbv7vZMOU1ip_13delegate_test
FN:65,_RNvMs0_NtCs5iFi3DDfmEJ_23delegation_manager_mock16proxy_delegationINtB5_26DelegationMockProxyMethodsNtNtNtNtCs2614o7AVePg_22multiversx_sc_scenario6facade8world_tx18scenario_exec_call15ScenarioEnvExecRNtNtNtCseMybXOs8yks_21multiversx_chain_core5types7address7AddressRINtNtNtNtNtCsd0DXYhglbat_13multiversx_sc5types7managed7wrapped15managed_address14ManagedAddressINtNtNtNtB1I_3api7impl_vh12vm_hooks_api10VMHooksApiNtNtB5S_10static_api16StaticApiBackendEEuE12deposit_egldCsbv7vZMOU1ip_13delegate_test
FN:46,_RNvMs_NtCs5iFi3DDfmEJ_23delegation_manager_mock16proxy_delegationINtB4_26DelegationMockProxyMethodsNtNtNtNtCs2614o7AVePg_22multiversx_sc_scenario6facade8world_tx18scenario_exec_call15ScenarioEnvExecNtNtNtNtNtCsd0DXYhglbat_13multiversx_sc5types11interaction4expr12test_address11TestAddressuuE4initCsbv7vZMOU1ip_13delegate_test
FN:23,_RNvXNtCs5iFi3DDfmEJ_23delegation_manager_mock16proxy_delegationNtB2_19DelegationMockProxyINtNtNtNtCsd0DXYhglbat_13multiversx_sc5types11interaction8tx_proxy12TxProxyTraitINtNtNtB1u_7tx_exec9tx_env_sc7TxScEnvINtNtNtNtCs2614o7AVePg_22multiversx_sc_scenario3api7impl_vh12vm_hooks_api10VMHooksApiNtNtB3n_9debug_api15DebugApiBackendEEuRINtNtNtNtB1w_7managed7wrapped15managed_address14ManagedAddressB3i_EuE13proxy_methodsCsbv7vZMOU1ip_13delegate_test
FN:23,_RNvXNtCs5iFi3DDfmEJ_23delegation_manager_mock16proxy_delegationNtB2_19DelegationMockProxyINtNtNtNtCsd0DXYhglbat_13multiversx_sc5types11interaction8tx_proxy12TxProxyTraitNtNtNtNtCs2614o7AVePg_22multiversx_sc_scenario6facade8world_tx18scenario_exec_call15ScenarioEnvExecNtNtNtB1u_4expr12test_address11TestAddressuuE13proxy_methodsCsbv7vZMOU1ip_13delegate_test
FN:23,_RNvXNtCs5iFi3DDfmEJ_23delegation_manager_mock16proxy_delegationNtB2_19DelegationMockProxyINtNtNtNtCsd0DXYhglbat_13multiversx_sc5types11interaction8tx_proxy12TxProxyTraitNtNtNtNtCs2614o7AVePg_22multiversx_sc_scenario6facade8world_tx18scenario_exec_call15ScenarioEnvExecRNtNtNtCseMybXOs8yks_21multiversx_chain_core5types7address7AddressRINtNtNtNtB1w_7managed7wrapped15managed_address14ManagedAddressINtNtNtNtB2P_3api7impl_vh12vm_hooks_api10VMHooksApiNtNtB6s_10static_api16StaticApiBackendEEuE13proxy_methodsCsbv7vZMOU1ip_13delegate_test
FN:23,_RNvXININtCsayOD9Ud09vv_23delegation_manager_mock16proxy_delegation0ppppENtB5_19DelegationMockProxyINtNtNtNtCsd0DXYhglbat_13multiversx_sc5types11interaction8tx_proxy12TxProxyTraitppppE13proxy_methodsB7_
FN:46,_RNvMs_NtCsayOD9Ud09vv_23delegation_manager_mock16proxy_delegationINtB4_26DelegationMockProxyMethodsppupE4initB6_
FN:65,_RNvMs0_NtCsayOD9Ud09vv_23delegation_manager_mock16proxy_delegationINtB5_26DelegationMockProxyMethodsppppE12deposit_egldB7_
FN:73,_RNvMs0_NtCsayOD9Ud09vv_23delegation_manager_mock16proxy_delegationINtB5_26DelegationMockProxyMethodsppppE8delegateB7_
FN:81,_RINvMs0_NtCsayOD9Ud09vv_23delegation_manager_mock16proxy_delegationINtB6_26DelegationMockProxyMethodsppppE10undelegatepEB8_
FN:94,_RNvMs0_NtCsayOD9Ud09vv_23delegation_manager_mock16proxy_delegationINtB5_26DelegationMockProxyMethodsppppE8withdrawB7_
FN:103,_RNvMs0_NtCsayOD9Ud09vv_23delegation_manager_mock16proxy_delegationINtB5_26DelegationMockProxyMethodsppppE13claim_rewardsB7_
FN:103,_RNvMs0_NtCs5iFi3DDfmEJ_23delegation_manager_mock16proxy_delegationINtB5_26DelegationMockProxyMethodsINtNtNtNtNtCsd0DXYhglbat_13multiversx_sc5types11interaction7tx_exec9tx_env_sc7TxScEnvINtNtNtNtCs2614o7AVePg_22multiversx_sc_scenario3api7impl_vh12vm_hooks_api10VMHooksApiNtNtB32_9debug_api15DebugApiBackendEEuRINtNtNtNtB1J_7managed7wrapped15managed_address14ManagedAddressB2X_EuE13claim_rewardsCs25HLPETZpNm_4test
FN:65,_RNvMs0_NtCs5iFi3DDfmEJ_23delegation_manager_mock16proxy_delegationINtB5_26DelegationMockProxyMethodsNtNtNtNtCs2614o7AVePg_22multiversx_sc_scenario6facade8world_tx18scenario_exec_call15ScenarioEnvExecRNtNtNtCseMybXOs8yks_21multiversx_chain_core5types7address7AddressRINtNtNtNtNtCsd0DXYhglbat_13multiversx_sc5types7managed7wrapped15managed_address14ManagedAddressINtNtNtNtB1I_3api7impl_vh12vm_hooks_api10VMHooksApiNtNtB5S_10static_api16StaticApiBackendEEuE12deposit_egldCs25HLPETZpNm_4test
FN:46,_RNvMs_NtCs5iFi3DDfmEJ_23delegation_manager_mock16proxy_delegationINtB4_26DelegationMockProxyMethodsNtNtNtNtCs2614o7AVePg_22multiversx_sc_scenario6facade8world_tx18scenario_exec_call15ScenarioEnvExecNtNtNtNtNtCsd0DXYhglbat_13multiversx_sc5types11interaction4expr12test_address11TestAddressuuE4initCs25HLPETZpNm_4test
FN:23,_RNvXNtCs5iFi3DDfmEJ_23delegation_manager_mock16proxy_delegationNtB2_19DelegationMockProxyINtNtNtNtCsd0DXYhglbat_13multiversx_sc5types11interaction8tx_proxy12TxProxyTraitINtNtNtB1u_7tx_exec9tx_env_sc7TxScEnvINtNtNtNtCs2614o7AVePg_22multiversx_sc_scenario3api7impl_vh12vm_hooks_api10VMHooksApiNtNtB3n_9debug_api15DebugApiBackendEEuRINtNtNtNtB1w_7managed7wrapped15managed_address14ManagedAddressB3i_EuE13proxy_methodsCs25HLPETZpNm_4test
FN:23,_RNvXNtCs5iFi3DDfmEJ_23delegation_manager_mock16proxy_delegationNtB2_19DelegationMockProxyINtNtNtNtCsd0DXYhglbat_13multiversx_sc5types11interaction8tx_proxy12TxProxyTraitNtNtNtNtCs2614o7AVePg_22multiversx_sc_scenario6facade8world_tx18scenario_exec_call15ScenarioEnvExecNtNtNtB1u_4expr12test_address11TestAddressuuE13proxy_methodsCs25HLPETZpNm_4test
FN:23,_RNvXNtCs5iFi3DDfmEJ_23delegation_manager_mock16proxy_delegationNtB2_19DelegationMockProxyINtNtNtNtCsd0DXYhglbat_13multiversx_sc5types11interaction8tx_proxy12TxProxyTraitNtNtNtNtCs2614o7AVePg_22multiversx_sc_scenario6facade8world_tx18scenario_exec_call15ScenarioEnvExecRNtNtNtCseMybXOs8yks_21multiversx_chain_core5types7address7AddressRINtNtNtNtB1w_7managed7wrapped15managed_address14ManagedAddressINtNtNtNtB2P_3api7impl_vh12vm_hooks_api10VMHooksApiNtNtB6s_10static_api16StaticApiBackendEEuE13proxy_methodsCs25HLPETZpNm_4test
FN:103,_RNvMs0_NtCs5iFi3DDfmEJ_23delegation_manager_mock16proxy_delegationINtB5_26DelegationMockProxyMethodsINtNtNtNtNtCsd0DXYhglbat_13multiversx_sc5types11interaction7tx_exec9tx_env_sc7TxScEnvINtNtNtNtCs2614o7AVePg_22multiversx_sc_scenario3api7impl_vh12vm_hooks_api10VMHooksApiNtNtB32_9debug_api15DebugApiBackendEEuRINtNtNtNtB1J_7managed7wrapped15managed_address14ManagedAddressB2X_EuE13claim_rewardsCsgub9DQDg2s9_15unDelegate_test
FN:65,_RNvMs0_NtCs5iFi3DDfmEJ_23delegation_manager_mock16proxy_delegationINtB5_26DelegationMockProxyMethodsNtNtNtNtCs2614o7AVePg_22multiversx_sc_scenario6facade8world_tx18scenario_exec_call15ScenarioEnvExecRNtNtNtCseMybXOs8yks_21multiversx_chain_core5types7address7AddressRINtNtNtNtNtCsd0DXYhglbat_13multiversx_sc5types7managed7wrapped15managed_address14ManagedAddressINtNtNtNtB1I_3api7impl_vh12vm_hooks_api10VMHooksApiNtNtB5S_10static_api16StaticApiBackendEEuE12deposit_egldCsgub9DQDg2s9_15unDelegate_test
FN:46,_RNvMs_NtCs5iFi3DDfmEJ_23delegation_manager_mock16proxy_delegationINtB4_26DelegationMockProxyMethodsNtNtNtNtCs2614o7AVePg_22multiversx_sc_scenario6facade8world_tx18scenario_exec_call15ScenarioEnvExecNtNtNtNtNtCsd0DXYhglbat_13multiversx_sc5types11interaction4expr12test_address11TestAddressuuE4initCsgub9DQDg2s9_15unDelegate_test
FN:23,_RNvXNtCs5iFi3DDfmEJ_23delegation_manager_mock16proxy_delegationNtB2_19DelegationMockProxyINtNtNtNtCsd0DXYhglbat_13multiversx_sc5types11interaction8tx_proxy12TxProxyTraitINtNtNtB1u_7tx_exec9tx_env_sc7TxScEnvINtNtNtNtCs2614o7AVePg_22multiversx_sc_scenario3api7impl_vh12vm_hooks_api10VMHooksApiNtNtB3n_9debug_api15DebugApiBackendEEuRINtNtNtNtB1w_7managed7wrapped15managed_address14ManagedAddressB3i_EuE13proxy_methodsCsgub9DQDg2s9_15unDelegate_test
FN:23,_RNvXNtCs5iFi3DDfmEJ_23delegation_manager_mock16proxy_delegationNtB2_19DelegationMockProxyINtNtNtNtCsd0DXYhglbat_13multiversx_sc5types11interaction8tx_proxy12TxProxyTraitNtNtNtNtCs2614o7AVePg_22multiversx_sc_scenario6facade8world_tx18scenario_exec_call15ScenarioEnvExecNtNtNtB1u_4expr12test_address11TestAddressuuE13proxy_methodsCsgub9DQDg2s9_15unDelegate_test
FN:23,_RNvXNtCs5iFi3DDfmEJ_23delegation_manager_mock16proxy_delegationNtB2_19DelegationMockProxyINtNtNtNtCsd0DXYhglbat_13multiversx_sc5types11interaction8tx_proxy12TxProxyTraitNtNtNtNtCs2614o7AVePg_22multiversx_sc_scenario6facade8world_tx18scenario_exec_call15ScenarioEnvExecRNtNtNtCseMybXOs8yks_21multiversx_chain_core5types7address7AddressRINtNtNtNtB1w_7managed7wrapped15managed_address14ManagedAddressINtNtNtNtB2P_3api7impl_vh12vm_hooks_api10VMHooksApiNtNtB6s_10static_api16StaticApiBackendEEuE13proxy_methodsCsgub9DQDg2s9_15unDelegate_test
FN:103,_RNvMs0_NtCs5iFi3DDfmEJ_23delegation_manager_mock16proxy_delegationINtB5_26DelegationMockProxyMethodsINtNtNtNtNtCsd0DXYhglbat_13multiversx_sc5types11interaction7tx_exec9tx_env_sc7TxScEnvINtNtNtNtCs2614o7AVePg_22multiversx_sc_scenario3api7impl_vh12vm_hooks_api10VMHooksApiNtNtB32_9debug_api15DebugApiBackendEEuRINtNtNtNtB1J_7managed7wrapped15managed_address14ManagedAddressB2X_EuE13claim_rewardsCscNyXpV1vtNq_11unbond_test
FN:65,_RNvMs0_NtCs5iFi3DDfmEJ_23delegation_manager_mock16proxy_delegationINtB5_26DelegationMockProxyMethodsNtNtNtNtCs2614o7AVePg_22multiversx_sc_scenario6facade8world_tx18scenario_exec_call15ScenarioEnvExecRNtNtNtCseMybXOs8yks_21multiversx_chain_core5types7address7AddressRINtNtNtNtNtCsd0DXYhglbat_13multiversx_sc5types7managed7wrapped15managed_address14ManagedAddressINtNtNtNtB1I_3api7impl_vh12vm_hooks_api10VMHooksApiNtNtB5S_10static_api16StaticApiBackendEEuE12deposit_egldCscNyXpV1vtNq_11unbond_test
FN:46,_RNvMs_NtCs5iFi3DDfmEJ_23delegation_manager_mock16proxy_delegationINtB4_26DelegationMockProxyMethodsNtNtNtNtCs2614o7AVePg_22multiversx_sc_scenario6facade8world_tx18scenario_exec_call15ScenarioEnvExecNtNtNtNtNtCsd0DXYhglbat_13multiversx_sc5types11interaction4expr12test_address11TestAddressuuE4initCscNyXpV1vtNq_11unbond_test
FN:23,_RNvXNtCs5iFi3DDfmEJ_23delegation_manager_mock16proxy_delegationNtB2_19DelegationMockProxyINtNtNtNtCsd0DXYhglbat_13multiversx_sc5types11interaction8tx_proxy12TxProxyTraitINtNtNtB1u_7tx_exec9tx_env_sc7TxScEnvINtNtNtNtCs2614o7AVePg_22multiversx_sc_scenario3api7impl_vh12vm_hooks_api10VMHooksApiNtNtB3n_9debug_api15DebugApiBackendEEuRINtNtNtNtB1w_7managed7wrapped15managed_address14ManagedAddressB3i_EuE13proxy_methodsCscNyXpV1vtNq_11unbond_test
FN:23,_RNvXNtCs5iFi3DDfmEJ_23delegation_manager_mock16proxy_delegationNtB2_19DelegationMockProxyINtNtNtNtCsd0DXYhglbat_13multiversx_sc5types11interaction8tx_proxy12TxProxyTraitNtNtNtNtCs2614o7AVePg_22multiversx_sc_scenario6facade8world_tx18scenario_exec_call15ScenarioEnvExecNtNtNtB1u_4expr12test_address11TestAddressuuE13proxy_methodsCscNyXpV1vtNq_11unbond_test
FN:23,_RNvXNtCs5iFi3DDfmEJ_23delegation_manager_mock16proxy_delegationNtB2_19DelegationMockProxyINtNtNtNtCsd0DXYhglbat_13multiversx_sc5types11interaction8tx_proxy12TxProxyTraitNtNtNtNtCs2614o7AVePg_22multiversx_sc_scenario6facade8world_tx18scenario_exec_call15ScenarioEnvExecRNtNtNtCseMybXOs8yks_21multiversx_chain_core5types7address7AddressRINtNtNtNtB1w_7managed7wrapped15managed_address14ManagedAddressINtNtNtNtB2P_3api7impl_vh12vm_hooks_api10VMHooksApiNtNtB6s_10static_api16StaticApiBackendEEuE13proxy_methodsCscNyXpV1vtNq_11unbond_test
FNDA:0,_RNvMs0_NtCs5iFi3DDfmEJ_23delegation_manager_mock16proxy_delegationINtB5_26DelegationMockProxyMethodsINtNtNtNtNtCsd0DXYhglbat_13multiversx_sc5types11interaction7tx_exec9tx_env_sc7TxScEnvINtNtNtNtCs2614o7AVePg_22multiversx_sc_scenario3api7impl_vh12vm_hooks_api10VMHooksApiNtNtB32_9debug_api15DebugApiBackendEEuRINtNtNtNtB1J_7managed7wrapped15managed_address14ManagedAddressB2X_EuE13claim_rewardsCsbv7vZMOU1ip_13delegate_test
FNDA:16,_RNvMs0_NtCs5iFi3DDfmEJ_23delegation_manager_mock16proxy_delegationINtB5_26DelegationMockProxyMethodsNtNtNtNtCs2614o7AVePg_22multiversx_sc_scenario6facade8world_tx18scenario_exec_call15ScenarioEnvExecRNtNtNtCseMybXOs8yks_21multiversx_chain_core5types7address7AddressRINtNtNtNtNtCsd0DXYhglbat_13multiversx_sc5types7managed7wrapped15managed_address14ManagedAddressINtNtNtNtB1I_3api7impl_vh12vm_hooks_api10VMHooksApiNtNtB5S_10static_api16StaticApiBackendEEuE12deposit_egldCsbv7vZMOU1ip_13delegate_test
FNDA:32,_RNvMs_NtCs5iFi3DDfmEJ_23delegation_manager_mock16proxy_delegationINtB4_26DelegationMockProxyMethodsNtNtNtNtCs2614o7AVePg_22multiversx_sc_scenario6facade8world_tx18scenario_exec_call15ScenarioEnvExecNtNtNtNtNtCsd0DXYhglbat_13multiversx_sc5types11interaction4expr12test_address11TestAddressuuE4initCsbv7vZMOU1ip_13delegate_test
FNDA:0,_RNvXNtCs5iFi3DDfmEJ_23delegation_manager_mock16proxy_delegationNtB2_19DelegationMockProxyINtNtNtNtCsd0DXYhglbat_13multiversx_sc5types11interaction8tx_proxy12TxProxyTraitINtNtNtB1u_7tx_exec9tx_env_sc7TxScEnvINtNtNtNtCs2614o7AVePg_22multiversx_sc_scenario3api7impl_vh12vm_hooks_api10VMHooksApiNtNtB3n_9debug_api15DebugApiBackendEEuRINtNtNtNtB1w_7managed7wrapped15managed_address14ManagedAddressB3i_EuE13proxy_methodsCsbv7vZMOU1ip_13delegate_test
FNDA:32,_RNvXNtCs5iFi3DDfmEJ_23delegation_manager_mock16proxy_delegationNtB2_19DelegationMockProxyINtNtNtNtCsd0DXYhglbat_13multiversx_sc5types11interaction8tx_proxy12TxProxyTraitNtNtNtNtCs2614o7AVePg_22multiversx_sc_scenario6facade8world_tx18scenario_exec_call15ScenarioEnvExecNtNtNtB1u_4expr12test_address11TestAddressuuE13proxy_methodsCsbv7vZMOU1ip_13delegate_test
FNDA:16,_RNvXNtCs5iFi3DDfmEJ_23delegation_manager_mock16proxy_delegationNtB2_19DelegationMockProxyINtNtNtNtCsd0DXYhglbat_13multiversx_sc5types11interaction8tx_proxy12TxProxyTraitNtNtNtNtCs2614o7AVePg_22multiversx_sc_scenario6facade8world_tx18scenario_exec_call15ScenarioEnvExecRNtNtNtCseMybXOs8yks_21multiversx_chain_core5types7address7AddressRINtNtNtNtB1w_7managed7wrapped15managed_address14ManagedAddressINtNtNtNtB2P_3api7impl_vh12vm_hooks_api10VMHooksApiNtNtB6s_10static_api16StaticApiBackendEEuE13proxy_methodsCsbv7vZMOU1ip_13delegate_test
FNDA:0,_RNvXININtCsayOD9Ud09vv_23delegation_manager_mock16proxy_delegation0ppppENtB5_19DelegationMockProxyINtNtNtNtCsd0DXYhglbat_13multiversx_sc5types11interaction8tx_proxy12TxProxyTraitppppE13proxy_methodsB7_
FNDA:0,_RNvMs_NtCsayOD9Ud09vv_23delegation_manager_mock16proxy_delegationINtB4_26DelegationMockProxyMethodsppupE4initB6_
FNDA:0,_RNvMs0_NtCsayOD9Ud09vv_23delegation_manager_mock16proxy_delegationINtB5_26DelegationMockProxyMethodsppppE12deposit_egldB7_
FNDA:0,_RNvMs0_NtCsayOD9Ud09vv_23delegation_manager_mock16proxy_delegationINtB5_26DelegationMockProxyMethodsppppE8delegateB7_
FNDA:0,_RINvMs0_NtCsayOD9Ud09vv_23delegation_manager_mock16proxy_delegationINtB6_26DelegationMockProxyMethodsppppE10undelegatepEB8_
FNDA:0,_RNvMs0_NtCsayOD9Ud09vv_23delegation_manager_mock16proxy_delegationINtB5_26DelegationMockProxyMethodsppppE8withdrawB7_
FNDA:0,_RNvMs0_NtCsayOD9Ud09vv_23delegation_manager_mock16proxy_delegationINtB5_26DelegationMockProxyMethodsppppE13claim_rewardsB7_
FNDA:0,_RNvMs0_NtCs5iFi3DDfmEJ_23delegation_manager_mock16proxy_delegationINtB5_26DelegationMockProxyMethodsINtNtNtNtNtCsd0DXYhglbat_13multiversx_sc5types11interaction7tx_exec9tx_env_sc7TxScEnvINtNtNtNtCs2614o7AVePg_22multiversx_sc_scenario3api7impl_vh12vm_hooks_api10VMHooksApiNtNtB32_9debug_api15DebugApiBackendEEuRINtNtNtNtB1J_7managed7wrapped15managed_address14ManagedAddressB2X_EuE13claim_rewardsCs25HLPETZpNm_4test
FNDA:7,_RNvMs0_NtCs5iFi3DDfmEJ_23delegation_manager_mock16proxy_delegationINtB5_26DelegationMockProxyMethodsNtNtNtNtCs2614o7AVePg_22multiversx_sc_scenario6facade8world_tx18scenario_exec_call15ScenarioEnvExecRNtNtNtCseMybXOs8yks_21multiversx_chain_core5types7address7AddressRINtNtNtNtNtCsd0DXYhglbat_13multiversx_sc5types7managed7wrapped15managed_address14ManagedAddressINtNtNtNtB1I_3api7impl_vh12vm_hooks_api10VMHooksApiNtNtB5S_10static_api16StaticApiBackendEEuE12deposit_egldCs25HLPETZpNm_4test
FNDA:12,_RNvMs_NtCs5iFi3DDfmEJ_23delegation_manager_mock16proxy_delegationINtB4_26DelegationMockProxyMethodsNtNtNtNtCs2614o7AVePg_22multiversx_sc_scenario6facade8world_tx18scenario_exec_call15ScenarioEnvExecNtNtNtNtNtCsd0DXYhglbat_13multiversx_sc5types11interaction4expr12test_address11TestAddressuuE4initCs25HLPETZpNm_4test
FNDA:0,_RNvXNtCs5iFi3DDfmEJ_23delegation_manager_mock16proxy_delegationNtB2_19DelegationMockProxyINtNtNtNtCsd0DXYhglbat_13multiversx_sc5types11interaction8tx_proxy12TxProxyTraitINtNtNtB1u_7tx_exec9tx_env_sc7TxScEnvINtNtNtNtCs2614o7AVePg_22multiversx_sc_scenario3api7impl_vh12vm_hooks_api10VMHooksApiNtNtB3n_9debug_api15DebugApiBackendEEuRINtNtNtNtB1w_7managed7wrapped15managed_address14ManagedAddressB3i_EuE13proxy_methodsCs25HLPETZpNm_4test
FNDA:12,_RNvXNtCs5iFi3DDfmEJ_23delegation_manager_mock16proxy_delegationNtB2_19DelegationMockProxyINtNtNtNtCsd0DXYhglbat_13multiversx_sc5types11interaction8tx_proxy12TxProxyTraitNtNtNtNtCs2614o7AVePg_22multiversx_sc_scenario6facade8world_tx18scenario_exec_call15ScenarioEnvExecNtNtNtB1u_4expr12test_address11TestAddressuuE13proxy_methodsCs25HLPETZpNm_4test
FNDA:7,_RNvXNtCs5iFi3DDfmEJ_23delegation_manager_mock16proxy_delegationNtB2_19DelegationMockProxyINtNtNtNtCsd0DXYhglbat_13multiversx_sc5types11interaction8tx_proxy12TxProxyTraitNtNtNtNtCs2614o7AVePg_22multiversx_sc_scenario6facade8world_tx18scenario_exec_call15ScenarioEnvExecRNtNtNtCseMybXOs8yks_21multiversx_chain_core5types7address7AddressRINtNtNtNtB1w_7managed7wrapped15managed_address14ManagedAddressINtNtNtNtB2P_3api7impl_vh12vm_hooks_api10VMHooksApiNtNtB6s_10static_api16StaticApiBackendEEuE13proxy_methodsCs25HLPETZpNm_4test
FNDA:0,_RNvMs0_NtCs5iFi3DDfmEJ_23delegation_manager_mock16proxy_delegationINtB5_26DelegationMockProxyMethodsINtNtNtNtNtCsd0DXYhglbat_13multiversx_sc5types11interaction7tx_exec9tx_env_sc7TxScEnvINtNtNtNtCs2614o7AVePg_22multiversx_sc_scenario3api7impl_vh12vm_hooks_api10VMHooksApiNtNtB32_9debug_api15DebugApiBackendEEuRINtNtNtNtB1J_7managed7wrapped15managed_address14ManagedAddressB2X_EuE13claim_rewardsCsgub9DQDg2s9_15unDelegate_test
FNDA:389,_RNvMs0_NtCs5iFi3DDfmEJ_23delegation_manager_mock16proxy_delegationINtB5_26DelegationMockProxyMethodsNtNtNtNtCs2614o7AVePg_22multiversx_sc_scenario6facade8world_tx18scenario_exec_call15ScenarioEnvExecRNtNtNtCseMybXOs8yks_21multiversx_chain_core5types7address7AddressRINtNtNtNtNtCsd0DXYhglbat_13multiversx_sc5types7managed7wrapped15managed_address14ManagedAddressINtNtNtNtB1I_3api7impl_vh12vm_hooks_api10VMHooksApiNtNtB5S_10static_api16StaticApiBackendEEuE12deposit_egldCsgub9DQDg2s9_15unDelegate_test
FNDA:408,_RNvMs_NtCs5iFi3DDfmEJ_23delegation_manager_mock16proxy_delegationINtB4_26DelegationMockProxyMethodsNtNtNtNtCs2614o7AVePg_22multiversx_sc_scenario6facade8world_tx18scenario_exec_call15ScenarioEnvExecNtNtNtNtNtCsd0DXYhglbat_13multiversx_sc5types11interaction4expr12test_address11TestAddressuuE4initCsgub9DQDg2s9_15unDelegate_test
FNDA:0,_RNvXNtCs5iFi3DDfmEJ_23delegation_manager_mock16proxy_delegationNtB2_19DelegationMockProxyINtNtNtNtCsd0DXYhglbat_13multiversx_sc5types11interaction8tx_proxy12TxProxyTraitINtNtNtB1u_7tx_exec9tx_env_sc7TxScEnvINtNtNtNtCs2614o7AVePg_22multiversx_sc_scenario3api7impl_vh12vm_hooks_api10VMHooksApiNtNtB3n_9debug_api15DebugApiBackendEEuRINtNtNtNtB1w_7managed7wrapped15managed_address14ManagedAddressB3i_EuE13proxy_methodsCsgub9DQDg2s9_15unDelegate_test
FNDA:408,_RNvXNtCs5iFi3DDfmEJ_23delegation_manager_mock16proxy_delegationNtB2_19DelegationMockProxyINtNtNtNtCsd0DXYhglbat_13multiversx_sc5types11interaction8tx_proxy12TxProxyTraitNtNtNtNtCs2614o7AVePg_22multiversx_sc_scenario6facade8world_tx18scenario_exec_call15ScenarioEnvExecNtNtNtB1u_4expr12test_address11TestAddressuuE13proxy_methodsCsgub9DQDg2s9_15unDelegate_test
FNDA:389,_RNvXNtCs5iFi3DDfmEJ_23delegation_manager_mock16proxy_delegationNtB2_19DelegationMockProxyINtNtNtNtCsd0DXYhglbat_13multiversx_sc5types11interaction8tx_proxy12TxProxyTraitNtNtNtNtCs2614o7AVePg_22multiversx_sc_scenario6facade8world_tx18scenario_exec_call15ScenarioEnvExecRNtNtNtCseMybXOs8yks_21multiversx_chain_core5types7address7AddressRINtNtNtNtB1w_7managed7wrapped15managed_address14ManagedAddressINtNtNtNtB2P_3api7impl_vh12vm_hooks_api10VMHooksApiNtNtB6s_10static_api16StaticApiBackendEEuE13proxy_methodsCsgub9DQDg2s9_15unDelegate_test
FNDA:0,_RNvMs0_NtCs5iFi3DDfmEJ_23delegation_manager_mock16proxy_delegationINtB5_26DelegationMockProxyMethodsINtNtNtNtNtCsd0DXYhglbat_13multiversx_sc5types11interaction7tx_exec9tx_env_sc7TxScEnvINtNtNtNtCs2614o7AVePg_22multiversx_sc_scenario3api7impl_vh12vm_hooks_api10VMHooksApiNtNtB32_9debug_api15DebugApiBackendEEuRINtNtNtNtB1J_7managed7wrapped15managed_address14ManagedAddressB2X_EuE13claim_rewardsCscNyXpV1vtNq_11unbond_test
FNDA:7,_RNvMs0_NtCs5iFi3DDfmEJ_23delegation_manager_mock16proxy_delegationINtB5_26DelegationMockProxyMethodsNtNtNtNtCs2614o7AVePg_22multiversx_sc_scenario6facade8world_tx18scenario_exec_call15ScenarioEnvExecRNtNtNtCseMybXOs8yks_21multiversx_chain_core5types7address7AddressRINtNtNtNtNtCsd0DXYhglbat_13multiversx_sc5types7managed7wrapped15managed_address14ManagedAddressINtNtNtNtB1I_3api7impl_vh12vm_hooks_api10VMHooksApiNtNtB5S_10static_api16StaticApiBackendEEuE12deposit_egldCscNyXpV1vtNq_11unbond_test
FNDA:14,_RNvMs_NtCs5iFi3DDfmEJ_23delegation_manager_mock16proxy_delegationINtB4_26DelegationMockProxyMethodsNtNtNtNtCs2614o7AVePg_22multiversx_sc_scenario6facade8world_tx18scenario_exec_call15ScenarioEnvExecNtNtNtNtNtCsd0DXYhglbat_13multiversx_sc5types11interaction4expr12test_address11TestAddressuuE4initCscNyXpV1vtNq_11unbond_test
FNDA:0,_RNvXNtCs5iFi3DDfmEJ_23delegation_manager_mock16proxy_delegationNtB2_19DelegationMockProxyINtNtNtNtCsd0DXYhglbat_13multiversx_sc5types11interaction8tx_proxy12TxProxyTraitINtNtNtB1u_7tx_exec9tx_env_sc7TxScEnvINtNtNtNtCs2614o7AVePg_22multiversx_sc_scenario3api7impl_vh12vm_hooks_api10VMHooksApiNtNtB3n_9debug_api15DebugApiBackendEEuRINtNtNtNtB1w_7managed7wrapped15managed_address14ManagedAddressB3i_EuE13proxy_methodsCscNyXpV1vtNq_11unbond_test
FNDA:14,_RNvXNtCs5iFi3DDfmEJ_23delegation_manager_mock16proxy_delegationNtB2_19DelegationMockProxyINtNtNtNtCsd0DXYhglbat_13multiversx_sc5types11interaction8tx_proxy12TxProxyTraitNtNtNtNtCs2614o7AVePg_22multiversx_sc_scenario6facade8world_tx18scenario_exec_call15ScenarioEnvExecNtNtNtB1u_4expr12test_address11TestAddressuuE13proxy_methodsCscNyXpV1vtNq_11unbond_test
FNDA:7,_RNvXNtCs5iFi3DDfmEJ_23delegation_manager_mock16proxy_delegationNtB2_19DelegationMockProxyINtNtNtNtCsd0DXYhglbat_13multiversx_sc5types11interaction8tx_proxy12TxProxyTraitNtNtNtNtCs2614o7AVePg_22multiversx_sc_scenario6facade8world_tx18scenario_exec_call15ScenarioEnvExecRNtNtNtCseMybXOs8yks_21multiversx_chain_core5types7address7AddressRINtNtNtNtB1w_7managed7wrapped15managed_address14ManagedAddressINtNtNtNtB2P_3api7impl_vh12vm_hooks_api10VMHooksApiNtNtB6s_10static_api16StaticApiBackendEEuE13proxy_methodsCscNyXpV1vtNq_11unbond_test
FNF:7
FNH:3
DA:23,885
DA:24,885
DA:25,885
DA:46,466
DA:47,466
DA:48,466
DA:49,466
DA:50,466
DA:51,466
DA:52,466
DA:53,466
DA:65,419
DA:66,419
DA:67,419
DA:68,419
DA:69,419
DA:70,419
DA:71,419
DA:73,0
DA:74,0
DA:75,0
DA:76,0
DA:77,0
DA:78,0
DA:79,0
DA:81,0
DA:82,0
DA:83,0
DA:84,0
DA:85,0
DA:86,0
DA:87,0
DA:88,0
DA:89,0
DA:90,0
DA:91,0
DA:92,0
DA:94,0
DA:95,0
DA:96,0
DA:97,0
DA:98,0
DA:99,0
DA:100,0
DA:101,0
DA:103,0
DA:104,0
DA:105,0
DA:106,0
DA:107,0
DA:108,0
DA:109,0
DA:110,0
BRF:0
BRH:0
LF:53
LH:18
end_of_record
SF:/Users/mihaieremia/GitHub/rs-egld-liquid-staking/delegation-mock/meta/src/main.rs
FN:1,_RNvCswKUMKWObRO_20delegation_mock_meta4main
FNDA:0,_RNvCswKUMKWObRO_20delegation_mock_meta4main
FNF:1
FNH:0
DA:1,0
DA:2,0
DA:3,0
BRF:0
BRH:0
LF:3
LH:0
end_of_record
SF:/Users/mihaieremia/GitHub/rs-egld-liquid-staking/delegation-mock/src/delegation.rs
FN:11,_RINvCsgD0AgT6J0eh_15delegation_mock12contract_objINtNtNtNtCs2614o7AVePg_22multiversx_sc_scenario3api7impl_vh12vm_hooks_api10VMHooksApiNtNtBQ_9debug_api15DebugApiBackendEECsbv7vZMOU1ip_13delegate_test
FN:11,_RINvXs6_CsgD0AgT6J0eh_15delegation_mockNtB6_15ContractBuilderNtNtNtCsd0DXYhglbat_13multiversx_sc13contract_base17callable_contract23CallableContractBuilder16new_contract_objINtNtNtNtCs2614o7AVePg_22multiversx_sc_scenario3api7impl_vh12vm_hooks_api10VMHooksApiNtNtB2Q_9debug_api15DebugApiBackendEECsbv7vZMOU1ip_13delegate_test
FN:44,_RNCNvYINtNtNtCsd0DXYhglbat_13multiversx_sc13contract_base22universal_contract_obj20UniversalContractObjINtNtNtNtCs2614o7AVePg_22multiversx_sc_scenario3api7impl_vh12vm_hooks_api10VMHooksApiNtNtB1I_9debug_api15DebugApiBackendEENtCsgD0AgT6J0eh_15delegation_mock14DelegationMock10undelegate0Csbv7vZMOU1ip_13delegate_test
FN:46,_RNCNvYINtNtNtCsd0DXYhglbat_13multiversx_sc13contract_base22universal_contract_obj20UniversalContractObjINtNtNtNtCs2614o7AVePg_22multiversx_sc_scenario3api7impl_vh12vm_hooks_api10VMHooksApiNtNtB1I_9debug_api15DebugApiBackendEENtCsgD0AgT6J0eh_15delegation_mock14DelegationMock10undelegates_0Csbv7vZMOU1ip_13delegate_test
FN:22,_RNCNvYINtNtNtCsd0DXYhglbat_13multiversx_sc13contract_base22universal_contract_obj20UniversalContractObjINtNtNtNtCs2614o7AVePg_22multiversx_sc_scenario3api7impl_vh12vm_hooks_api10VMHooksApiNtNtB1I_9debug_api15DebugApiBackendEENtCsgD0AgT6J0eh_15delegation_mock14DelegationMock12deposit_egld0Csbv7vZMOU1ip_13delegate_test
FN:30,_RNCNvYINtNtNtCsd0DXYhglbat_13multiversx_sc13contract_base22universal_contract_obj20UniversalContractObjINtNtNtNtCs2614o7AVePg_22multiversx_sc_scenario3api7impl_vh12vm_hooks_api10VMHooksApiNtNtB1I_9debug_api15DebugApiBackendEENtCsgD0AgT6J0eh_15delegation_mock14DelegationMock8delegate0Csbv7vZMOU1ip_13delegate_test
FN:32,_RNCNvYINtNtNtCsd0DXYhglbat_13multiversx_sc13contract_base22universal_contract_obj20UniversalContractObjINtNtNtNtCs2614o7AVePg_22multiversx_sc_scenario3api7impl_vh12vm_hooks_api10VMHooksApiNtNtB1I_9debug_api15DebugApiBackendEENtCsgD0AgT6J0eh_15delegation_mock14DelegationMock8delegates_0Csbv7vZMOU1ip_13delegate_test
FN:65,_RNCNvYINtNtNtCsd0DXYhglbat_13multiversx_sc13contract_base22universal_contract_obj20UniversalContractObjINtNtNtNtCs2614o7AVePg_22multiversx_sc_scenario3api7impl_vh12vm_hooks_api10VMHooksApiNtNtB1I_9debug_api15DebugApiBackendEENtCsgD0AgT6J0eh_15delegation_mock14DelegationMock8withdraw0Csbv7vZMOU1ip_13delegate_test
FN:11,_RNvXs5_CsgD0AgT6J0eh_15delegation_mockINtB5_11ContractObjINtNtNtNtCs2614o7AVePg_22multiversx_sc_scenario3api7impl_vh12vm_hooks_api10VMHooksApiNtNtBY_9debug_api15DebugApiBackendEENtNtNtCsd0DXYhglbat_13multiversx_sc13contract_base17callable_contract16CallableContract4callCsbv7vZMOU1ip_13delegate_test
FN:11,_RNvXCsgD0AgT6J0eh_15delegation_mockINtNtNtCsd0DXYhglbat_13multiversx_sc13contract_base22universal_contract_obj20UniversalContractObjINtNtNtNtCs2614o7AVePg_22multiversx_sc_scenario3api7impl_vh12vm_hooks_api10VMHooksApiNtNtB2b_9debug_api15DebugApiBackendEENtB2_14DelegationMock15address_depositCsbv7vZMOU1ip_13delegate_test
FN:11,_RNvXCsgD0AgT6J0eh_15delegation_mockINtNtNtCsd0DXYhglbat_13multiversx_sc13contract_base22universal_contract_obj20UniversalContractObjINtNtNtNtCs2614o7AVePg_22multiversx_sc_scenario3api7impl_vh12vm_hooks_api10VMHooksApiNtNtB2b_9debug_api15DebugApiBackendEENtB2_14DelegationMock17egld_token_supplyCsbv7vZMOU1ip_13delegate_test
FN:11,_RNvXCsgD0AgT6J0eh_15delegation_mockINtNtNtCsd0DXYhglbat_13multiversx_sc13contract_base22universal_contract_obj20UniversalContractObjINtNtNtNtCs2614o7AVePg_22multiversx_sc_scenario3api7impl_vh12vm_hooks_api10VMHooksApiNtNtB2b_9debug_api15DebugApiBackendEENtB2_14DelegationMock24address_last_claim_epochCsbv7vZMOU1ip_13delegate_test
FN:11,_RNvXCsgD0AgT6J0eh_15delegation_mockINtNtNtCsd0DXYhglbat_13multiversx_sc13contract_base22universal_contract_obj20UniversalContractObjINtNtNtNtCs2614o7AVePg_22multiversx_sc_scenario3api7impl_vh12vm_hooks_api10VMHooksApiNtNtB2b_9debug_api15DebugApiBackendEENtB2_14DelegationMock24address_undelegate_epochCsbv7vZMOU1ip_13delegate_test
FN:11,_RNvXCsgD0AgT6J0eh_15delegation_mockINtNtNtCsd0DXYhglbat_13multiversx_sc13contract_base22universal_contract_obj20UniversalContractObjINtNtNtNtCs2614o7AVePg_22multiversx_sc_scenario3api7impl_vh12vm_hooks_api10VMHooksApiNtNtB2b_9debug_api15DebugApiBackendEENtB2_14DelegationMock25address_undelegate_amountCsbv7vZMOU1ip_13delegate_test
FN:36,_RNvYINtNtNtCsd0DXYhglbat_13multiversx_sc13contract_base22universal_contract_obj20UniversalContractObjINtNtNtNtCs2614o7AVePg_22multiversx_sc_scenario3api7impl_vh12vm_hooks_api10VMHooksApiNtNtB1G_9debug_api15DebugApiBackendEENtCsgD0AgT6J0eh_15delegation_mock14DelegationMock10undelegateCsbv7vZMOU1ip_13delegate_test
FN:19,_RNvYINtNtNtCsd0DXYhglbat_13multiversx_sc13contract_base22universal_contract_obj20UniversalContractObjINtNtNtNtCs2614o7AVePg_22multiversx_sc_scenario3api7impl_vh12vm_hooks_api10VMHooksApiNtNtB1G_9debug_api15DebugApiBackendEENtCsgD0AgT6J0eh_15delegation_mock14DelegationMock12deposit_egldCsbv7vZMOU1ip_13delegate_test
FN:72,_RNvYINtNtNtCsd0DXYhglbat_13multiversx_sc13contract_base22universal_contract_obj20UniversalContractObjINtNtNtNtCs2614o7AVePg_22multiversx_sc_scenario3api7impl_vh12vm_hooks_api10VMHooksApiNtNtB1G_9debug_api15DebugApiBackendEENtCsgD0AgT6J0eh_15delegation_mock14DelegationMock13claim_rewardsCsbv7vZMOU1ip_13delegate_test
FN:27,_RNvYINtNtNtCsd0DXYhglbat_13multiversx_sc13contract_base22universal_contract_obj20UniversalContractObjINtNtNtNtCs2614o7AVePg_22multiversx_sc_scenario3api7impl_vh12vm_hooks_api10VMHooksApiNtNtB1G_9debug_api15DebugApiBackendEENtCsgD0AgT6J0eh_15delegation_mock14DelegationMock8delegateCsbv7vZMOU1ip_13delegate_test
FN:52,_RNvYINtNtNtCsd0DXYhglbat_13multiversx_sc13contract_base22universal_contract_obj20UniversalContractObjINtNtNtNtCs2614o7AVePg_22multiversx_sc_scenario3api7impl_vh12vm_hooks_api10VMHooksApiNtNtB1G_9debug_api15DebugApiBackendEENtCsgD0AgT6J0eh_15delegation_mock14DelegationMock8withdrawCsbv7vZMOU1ip_13delegate_test
FN:11,_RNvYINtNtNtCsd0DXYhglbat_13multiversx_sc13contract_base22universal_contract_obj20UniversalContractObjINtNtNtNtCs2614o7AVePg_22multiversx_sc_scenario3api7impl_vh12vm_hooks_api10VMHooksApiNtNtB1G_9debug_api15DebugApiBackendEENtCsgD0AgT6J0eh_15delegation_mock16EndpointWrappers13call_delegateCsbv7vZMOU1ip_13delegate_test
FN:11,_RNvYINtNtNtCsd0DXYhglbat_13multiversx_sc13contract_base22universal_contract_obj20UniversalContractObjINtNtNtNtCs2614o7AVePg_22multiversx_sc_scenario3api7impl_vh12vm_hooks_api10VMHooksApiNtNtB1G_9debug_api15DebugApiBackendEENtCsgD0AgT6J0eh_15delegation_mock16EndpointWrappers13call_withdrawCsbv7vZMOU1ip_13delegate_test
FN:11,_RNvYINtNtNtCsd0DXYhglbat_13multiversx_sc13contract_base22universal_contract_obj20UniversalContractObjINtNtNtNtCs2614o7AVePg_22multiversx_sc_scenario3api7impl_vh12vm_hooks_api10VMHooksApiNtNtB1G_9debug_api15DebugApiBackendEENtCsgD0AgT6J0eh_15delegation_mock16EndpointWrappers15call_undelegateCsbv7vZMOU1ip_13delegate_test
FN:11,_RNvYINtNtNtCsd0DXYhglbat_13multiversx_sc13contract_base22universal_contract_obj20UniversalContractObjINtNtNtNtCs2614o7AVePg_22multiversx_sc_scenario3api7impl_vh12vm_hooks_api10VMHooksApiNtNtB1G_9debug_api15DebugApiBackendEENtCsgD0AgT6J0eh_15delegation_mock16EndpointWrappers17call_deposit_egldCsbv7vZMOU1ip_13delegate_test
FN:11,_RNvYINtNtNtCsd0DXYhglbat_13multiversx_sc13contract_base22universal_contract_obj20UniversalContractObjINtNtNtNtCs2614o7AVePg_22multiversx_sc_scenario3api7impl_vh12vm_hooks_api10VMHooksApiNtNtB1G_9debug_api15DebugApiBackendEENtCsgD0AgT6J0eh_15delegation_mock16EndpointWrappers18call_claim_rewardsCsbv7vZMOU1ip_13delegate_test
FN:11,_RNvYINtNtNtCsd0DXYhglbat_13multiversx_sc13contract_base22universal_contract_obj20UniversalContractObjINtNtNtNtCs2614o7AVePg_22multiversx_sc_scenario3api7impl_vh12vm_hooks_api10VMHooksApiNtNtB1G_9debug_api15DebugApiBackendEENtCsgD0AgT6J0eh_15delegation_mock16EndpointWrappers4callCsbv7vZMOU1ip_13delegate_test
FN:11,_RNvYINtNtNtCsd0DXYhglbat_13multiversx_sc13contract_base22universal_contract_obj20UniversalContractObjINtNtNtNtCs2614o7AVePg_22multiversx_sc_scenario3api7impl_vh12vm_hooks_api10VMHooksApiNtNtB1G_9debug_api15DebugApiBackendEENtCsgD0AgT6J0eh_15delegation_mock16EndpointWrappers8callbackCsbv7vZMOU1ip_13delegate_test
FN:11,_RNvYINtNtNtCsd0DXYhglbat_13multiversx_sc13contract_base22universal_contract_obj20UniversalContractObjINtNtNtNtCs2614o7AVePg_22multiversx_sc_scenario3api7impl_vh12vm_hooks_api10VMHooksApiNtNtB1G_9debug_api15DebugApiBackendEENtCsgD0AgT6J0eh_15delegation_mock16EndpointWrappers9call_initCsbv7vZMOU1ip_13delegate_test
FN:19,_RNvYpNtCsix6tSn7p4k_15delegation_mock14DelegationMock12deposit_egldB5_
FN:22,_RNCNvYpNtCsix6tSn7p4k_15delegation_mock14DelegationMock12deposit_egld0B7_
FN:27,_RNvYpNtCsix6tSn7p4k_15delegation_mock14DelegationMock8delegateB5_
FN:30,_RNCNvYpNtCsix6tSn7p4k_15delegation_mock14DelegationMock8delegate0B7_
FN:32,_RNCNvYpNtCsix6tSn7p4k_15delegation_mock14DelegationMock8delegates_0B7_
FN:36,_RNvYpNtCsix6tSn7p4k_15delegation_mock14DelegationMock10undelegateB5_
FN:44,_RNCNvYpNtCsix6tSn7p4k_15delegation_mock14DelegationMock10undelegate0B7_
FN:46,_RNCNvYpNtCsix6tSn7p4k_15delegation_mock14DelegationMock10undelegates_0B7_
FN:52,_RNvYpNtCsix6tSn7p4k_15delegation_mock14DelegationMock8withdrawB5_
FN:65,_RNCNvYpNtCsix6tSn7p4k_15delegation_mock14DelegationMock8withdraw0B7_
FN:72,_RNvYpNtCsix6tSn7p4k_15delegation_mock14DelegationMock13claim_rewardsB5_
FN:11,_RNvXINICsix6tSn7p4k_15delegation_mock0pEpNtB5_14DelegationMock17egld_token_supplyB5_
FN:11,_RNvXINICsix6tSn7p4k_15delegation_mock0pEpNtB5_14DelegationMock15address_depositB5_
FN:11,_RNvXINICsix6tSn7p4k_15delegation_mock0pEpNtB5_14DelegationMock24address_last_claim_epochB5_
FN:11,_RNvXINICsix6tSn7p4k_15delegation_mock0pEpNtB5_14DelegationMock25address_undelegate_amountB5_
FN:11,_RNvXINICsix6tSn7p4k_15delegation_mock0pEpNtB5_14DelegationMock24address_undelegate_epochB5_
FN:11,_RNvYpNtCsix6tSn7p4k_15delegation_mock16EndpointWrappers9call_initB5_
FN:11,_RNvYpNtCsix6tSn7p4k_15delegation_mock16EndpointWrappers17call_deposit_egldB5_
FN:11,_RNvYpNtCsix6tSn7p4k_15delegation_mock16EndpointWrappers13call_delegateB5_
FN:11,_RNvYpNtCsix6tSn7p4k_15delegation_mock16EndpointWrappers15call_undelegateB5_
FN:11,_RNvYpNtCsix6tSn7p4k_15delegation_mock16EndpointWrappers13call_withdrawB5_
FN:11,_RNvYpNtCsix6tSn7p4k_15delegation_mock16EndpointWrappers18call_claim_rewardsB5_
FN:11,_RNvYpNtCsix6tSn7p4k_15delegation_mock16EndpointWrappers4callB5_
FN:11,_RNvYpNtCsix6tSn7p4k_15delegation_mock16EndpointWrappers17callback_selectorB5_
FN:11,_RNvYpNtCsix6tSn7p4k_15delegation_mock16EndpointWrappers8callbackB5_
FN:11,_RNvXs1_Csix6tSn7p4k_15delegation_mockNtB5_11AbiProviderNtNtNtCsd0DXYhglbat_13multiversx_sc13contract_base21contract_abi_provider19ContractAbiProvider3abi
FN:11,_RNvXINICsix6tSn7p4k_15delegation_mocks5_0pEINtB5_11ContractObjpENtNtNtCsd0DXYhglbat_13multiversx_sc13contract_base17callable_contract16CallableContract4callB5_
FN:11,_RINvCsix6tSn7p4k_15delegation_mock12contract_objpEB2_
FN:11,_RINvXs6_Csix6tSn7p4k_15delegation_mockNtB6_15ContractBuilderNtNtNtCsd0DXYhglbat_13multiversx_sc13contract_base17callable_contract23CallableContractBuilder16new_contract_objpEB6_
FN:11,_RINvNtCsix6tSn7p4k_15delegation_mock19___wasm__endpoints__4initpEB4_
FN:11,_RINvNtCsix6tSn7p4k_15delegation_mock19___wasm__endpoints__12deposit_egldpEB4_
FN:11,_RINvNtCsix6tSn7p4k_15delegation_mock19___wasm__endpoints__8delegatepEB4_
FN:11,_RINvNtCsix6tSn7p4k_15delegation_mock19___wasm__endpoints__10undelegatepEB4_
FN:11,_RINvNtCsix6tSn7p4k_15delegation_mock19___wasm__endpoints__8withdrawpEB4_
FN:11,_RINvNtCsix6tSn7p4k_15delegation_mock19___wasm__endpoints__13claim_rewardspEB4_
FN:11,_RINvNtCsix6tSn7p4k_15delegation_mock19___wasm__endpoints__8callBackpEB4_
FN:11,_RNvYpNtCsix6tSn7p4k_15delegation_mock10ProxyTrait4initB5_
FN:11,_RNvYpNtCsix6tSn7p4k_15delegation_mock10ProxyTrait12deposit_egldB5_
FN:11,_RNvYpNtCsix6tSn7p4k_15delegation_mock10ProxyTrait8delegateB5_
FN:11,_RINvYpNtCsix6tSn7p4k_15delegation_mock10ProxyTrait10undelegatepEB6_
FN:11,_RNvYpNtCsix6tSn7p4k_15delegation_mock10ProxyTrait8withdrawB5_
FN:11,_RNvYpNtCsix6tSn7p4k_15delegation_mock10ProxyTrait13claim_rewardsB5_
FN:11,_RNvXINICsix6tSn7p4k_15delegation_mocks7_0pEINtB5_5ProxypENtNtNtCsd0DXYhglbat_13multiversx_sc13contract_base14proxy_obj_base12ProxyObjBase19extract_opt_addressB5_
FN:11,_RNvXINICsix6tSn7p4k_15delegation_mocks7_0pEINtB5_5ProxypENtNtNtCsd0DXYhglbat_13multiversx_sc13contract_base14proxy_obj_base12ProxyObjBase16extract_proxy_toB5_
FN:11,_RNvXINICsix6tSn7p4k_15delegation_mocks8_0pEINtB5_5ProxypENtNtNtCsd0DXYhglbat_13multiversx_sc13contract_base14proxy_obj_base11ProxyObjNew13new_proxy_objB5_
FN:11,_RNvXINICsix6tSn7p4k_15delegation_mocks8_0pEINtB5_5ProxypENtNtNtCsd0DXYhglbat_13multiversx_sc13contract_base14proxy_obj_base11ProxyObjNew8contractB5_
FN:11,_RNvXINICsix6tSn7p4k_15delegation_mocks9_0pEINtB5_7ProxyTopENtNtNtCsd0DXYhglbat_13multiversx_sc13contract_base14proxy_obj_base12ProxyObjBase19extract_opt_addressB5_
FN:11,_RNvXINICsix6tSn7p4k_15delegation_mocks9_0pEINtB5_7ProxyTopENtNtNtCsd0DXYhglbat_13multiversx_sc13contract_base14proxy_obj_base12ProxyObjBase15extract_addressB5_
FN:11,_RNvXINICsix6tSn7p4k_15delegation_mocks9_0pEINtB5_7ProxyTopENtNtNtCsd0DXYhglbat_13multiversx_sc13contract_base14proxy_obj_base12ProxyObjBase16extract_proxy_toB5_
FN:11,_RNvXCsgD0AgT6J0eh_15delegation_mockINtNtNtCsd0DXYhglbat_13multiversx_sc13contract_base22universal_contract_obj20UniversalContractObjINtNtNtNtCs2614o7AVePg_22multiversx_sc_scenario3api7impl_vh12vm_hooks_api10VMHooksApiNtNtB2b_9debug_api15DebugApiBackendEENtB2_14DelegationMock15address_depositCs25HLPETZpNm_4test
FN:11,_RNvXCsgD0AgT6J0eh_15delegation_mockINtNtNtCsd0DXYhglbat_13multiversx_sc13contract_base22universal_contract_obj20UniversalContractObjINtNtNtNtCs2614o7AVePg_22multiversx_sc_scenario3api7impl_vh12vm_hooks_api10VMHooksApiNtNtB2b_9debug_api15DebugApiBackendEENtB2_14DelegationMock17egld_token_supplyCs25HLPETZpNm_4test
FN:11,_RNvXCsgD0AgT6J0eh_15delegation_mockINtNtNtCsd0DXYhglbat_13multiversx_sc13contract_base22universal_contract_obj20UniversalContractObjINtNtNtNtCs2614o7AVePg_22multiversx_sc_scenario3api7impl_vh12vm_hooks_api10VMHooksApiNtNtB2b_9debug_api15DebugApiBackendEENtB2_14DelegationMock24address_last_claim_epochCs25HLPETZpNm_4test
FN:11,_RNvXCsgD0AgT6J0eh_15delegation_mockINtNtNtCsd0DXYhglbat_13multiversx_sc13contract_base22universal_contract_obj20UniversalContractObjINtNtNtNtCs2614o7AVePg_22multiversx_sc_scenario3api7impl_vh12vm_hooks_api10VMHooksApiNtNtB2b_9debug_api15DebugApiBackendEENtB2_14DelegationMock24address_undelegate_epochCs25HLPETZpNm_4test
FN:11,_RNvXCsgD0AgT6J0eh_15delegation_mockINtNtNtCsd0DXYhglbat_13multiversx_sc13contract_base22universal_contract_obj20UniversalContractObjINtNtNtNtCs2614o7AVePg_22multiversx_sc_scenario3api7impl_vh12vm_hooks_api10VMHooksApiNtNtB2b_9debug_api15DebugApiBackendEENtB2_14DelegationMock25address_undelegate_amountCs25HLPETZpNm_4test
FN:36,_RNvYINtNtNtCsd0DXYhglbat_13multiversx_sc13contract_base22universal_contract_obj20UniversalContractObjINtNtNtNtCs2614o7AVePg_22multiversx_sc_scenario3api7impl_vh12vm_hooks_api10VMHooksApiNtNtB1G_9debug_api15DebugApiBackendEENtCsgD0AgT6J0eh_15delegation_mock14DelegationMock10undelegateCs25HLPETZpNm_4test
FN:19,_RNvYINtNtNtCsd0DXYhglbat_13multiversx_sc13contract_base22universal_contract_obj20UniversalContractObjINtNtNtNtCs2614o7AVePg_22multiversx_sc_scenario3api7impl_vh12vm_hooks_api10VMHooksApiNtNtB1G_9debug_api15DebugApiBackendEENtCsgD0AgT6J0eh_15delegation_mock14DelegationMock12deposit_egldCs25HLPETZpNm_4test
FN:72,_RNvYINtNtNtCsd0DXYhglbat_13multiversx_sc13contract_base22universal_contract_obj20UniversalContractObjINtNtNtNtCs2614o7AVePg_22multiversx_sc_scenario3api7impl_vh12vm_hooks_api10VMHooksApiNtNtB1G_9debug_api15DebugApiBackendEENtCsgD0AgT6J0eh_15delegation_mock14DelegationMock13claim_rewardsCs25HLPETZpNm_4test
FN:27,_RNvYINtNtNtCsd0DXYhglbat_13multiversx_sc13contract_base22universal_contract_obj20UniversalContractObjINtNtNtNtCs2614o7AVePg_22multiversx_sc_scenario3api7impl_vh12vm_hooks_api10VMHooksApiNtNtB1G_9debug_api15DebugApiBackendEENtCsgD0AgT6J0eh_15delegation_mock14DelegationMock8delegateCs25HLPETZpNm_4test
FN:52,_RNvYINtNtNtCsd0DXYhglbat_13multiversx_sc13contract_base22universal_contract_obj20UniversalContractObjINtNtNtNtCs2614o7AVePg_22multiversx_sc_scenario3api7impl_vh12vm_hooks_api10VMHooksApiNtNtB1G_9debug_api15DebugApiBackendEENtCsgD0AgT6J0eh_15delegation_mock14DelegationMock8withdrawCs25HLPETZpNm_4test
FN:11,_RNvYINtNtNtCsd0DXYhglbat_13multiversx_sc13contract_base22universal_contract_obj20UniversalContractObjINtNtNtNtCs2614o7AVePg_22multiversx_sc_scenario3api7impl_vh12vm_hooks_api10VMHooksApiNtNtB1G_9debug_api15DebugApiBackendEENtCsgD0AgT6J0eh_15delegation_mock16EndpointWrappers13call_delegateCs25HLPETZpNm_4test
FN:11,_RNvYINtNtNtCsd0DXYhglbat_13multiversx_sc13contract_base22universal_contract_obj20UniversalContractObjINtNtNtNtCs2614o7AVePg_22multiversx_sc_scenario3api7impl_vh12vm_hooks_api10VMHooksApiNtNtB1G_9debug_api15DebugApiBackendEENtCsgD0AgT6J0eh_15delegation_mock16EndpointWrappers13call_withdrawCs25HLPETZpNm_4test
FN:11,_RNvYINtNtNtCsd0DXYhglbat_13multiversx_sc13contract_base22universal_contract_obj20UniversalContractObjINtNtNtNtCs2614o7AVePg_22multiversx_sc_scenario3api7impl_vh12vm_hooks_api10VMHooksApiNtNtB1G_9debug_api15DebugApiBackendEENtCsgD0AgT6J0eh_15delegation_mock16EndpointWrappers15call_undelegateCs25HLPETZpNm_4test
FN:11,_RNvYINtNtNtCsd0DXYhglbat_13multiversx_sc13contract_base22universal_contract_obj20UniversalContractObjINtNtNtNtCs2614o7AVePg_22multiversx_sc_scenario3api7impl_vh12vm_hooks_api10VMHooksApiNtNtB1G_9debug_api15DebugApiBackendEENtCsgD0AgT6J0eh_15delegation_mock16EndpointWrappers17call_deposit_egldCs25HLPETZpNm_4test
FN:11,_RNvYINtNtNtCsd0DXYhglbat_13multiversx_sc13contract_base22universal_contract_obj20UniversalContractObjINtNtNtNtCs2614o7AVePg_22multiversx_sc_scenario3api7impl_vh12vm_hooks_api10VMHooksApiNtNtB1G_9debug_api15DebugApiBackendEENtCsgD0AgT6J0eh_15delegation_mock16EndpointWrappers18call_claim_rewardsCs25HLPETZpNm_4test
FN:11,_RNvYINtNtNtCsd0DXYhglbat_13multiversx_sc13contract_base22universal_contract_obj20UniversalContractObjINtNtNtNtCs2614o7AVePg_22multiversx_sc_scenario3api7impl_vh12vm_hooks_api10VMHooksApiNtNtB1G_9debug_api15DebugApiBackendEENtCsgD0AgT6J0eh_15delegation_mock16EndpointWrappers4callCs25HLPETZpNm_4test
FN:11,_RNvYINtNtNtCsd0DXYhglbat_13multiversx_sc13contract_base22universal_contract_obj20UniversalContractObjINtNtNtNtCs2614o7AVePg_22multiversx_sc_scenario3api7impl_vh12vm_hooks_api10VMHooksApiNtNtB1G_9debug_api15DebugApiBackendEENtCsgD0AgT6J0eh_15delegation_mock16EndpointWrappers8callbackCs25HLPETZpNm_4test
FN:11,_RNvYINtNtNtCsd0DXYhglbat_13multiversx_sc13contract_base22universal_contract_obj20UniversalContractObjINtNtNtNtCs2614o7AVePg_22multiversx_sc_scenario3api7impl_vh12vm_hooks_api10VMHooksApiNtNtB1G_9debug_api15DebugApiBackendEENtCsgD0AgT6J0eh_15delegation_mock16EndpointWrappers9call_initCs25HLPETZpNm_4test
FN:11,_RINvCsgD0AgT6J0eh_15delegation_mock12contract_objINtNtNtNtCs2614o7AVePg_22multiversx_sc_scenario3api7impl_vh12vm_hooks_api10VMHooksApiNtNtBQ_9debug_api15DebugApiBackendEECs25HLPETZpNm_4test
FN:11,_RINvXs6_CsgD0AgT6J0eh_15delegation_mockNtB6_15ContractBuilderNtNtNtCsd0DXYhglbat_13multiversx_sc13contract_base17callable_contract23CallableContractBuilder16new_contract_objINtNtNtNtCs2614o7AVePg_22multiversx_sc_scenario3api7impl_vh12vm_hooks_api10VMHooksApiNtNtB2Q_9debug_api15DebugApiBackendEECs25HLPETZpNm_4test
FN:44,_RNCNvYINtNtNtCsd0DXYhglbat_13multiversx_sc13contract_base22universal_contract_obj20UniversalContractObjINtNtNtNtCs2614o7AVePg_22multiversx_sc_scenario3api7impl_vh12vm_hooks_api10VMHooksApiNtNtB1I_9debug_api15DebugApiBackendEENtCsgD0AgT6J0eh_15delegation_mock14DelegationMock10undelegate0Cs25HLPETZpNm_4test
FN:46,_RNCNvYINtNtNtCsd0DXYhglbat_13multiversx_sc13contract_base22universal_contract_obj20UniversalContractObjINtNtNtNtCs2614o7AVePg_22multiversx_sc_scenario3api7impl_vh12vm_hooks_api10VMHooksApiNtNtB1I_9debug_api15DebugApiBackendEENtCsgD0AgT6J0eh_15delegation_mock14DelegationMock10undelegates_0Cs25HLPETZpNm_4test
FN:22,_RNCNvYINtNtNtCsd0DXYhglbat_13multiversx_sc13contract_base22universal_contract_obj20UniversalContractObjINtNtNtNtCs2614o7AVePg_22multiversx_sc_scenario3api7impl_vh12vm_hooks_api10VMHooksApiNtNtB1I_9debug_api15DebugApiBackendEENtCsgD0AgT6J0eh_15delegation_mock14DelegationMock12deposit_egld0Cs25HLPETZpNm_4test
FN:30,_RNCNvYINtNtNtCsd0DXYhglbat_13multiversx_sc13contract_base22universal_contract_obj20UniversalContractObjINtNtNtNtCs2614o7AVePg_22multiversx_sc_scenario3api7impl_vh12vm_hooks_api10VMHooksApiNtNtB1I_9debug_api15DebugApiBackendEENtCsgD0AgT6J0eh_15delegation_mock14DelegationMock8delegate0Cs25HLPETZpNm_4test
FN:32,_RNCNvYINtNtNtCsd0DXYhglbat_13multiversx_sc13contract_base22universal_contract_obj20UniversalContractObjINtNtNtNtCs2614o7AVePg_22multiversx_sc_scenario3api7impl_vh12vm_hooks_api10VMHooksApiNtNtB1I_9debug_api15DebugApiBackendEENtCsgD0AgT6J0eh_15delegation_mock14DelegationMock8delegates_0Cs25HLPETZpNm_4test
FN:65,_RNCNvYINtNtNtCsd0DXYhglbat_13multiversx_sc13contract_base22universal_contract_obj20UniversalContractObjINtNtNtNtCs2614o7AVePg_22multiversx_sc_scenario3api7impl_vh12vm_hooks_api10VMHooksApiNtNtB1I_9debug_api15DebugApiBackendEENtCsgD0AgT6J0eh_15delegation_mock14DelegationMock8withdraw0Cs25HLPETZpNm_4test
FN:11,_RNvXs5_CsgD0AgT6J0eh_15delegation_mockINtB5_11ContractObjINtNtNtNtCs2614o7AVePg_22multiversx_sc_scenario3api7impl_vh12vm_hooks_api10VMHooksApiNtNtBY_9debug_api15DebugApiBackendEENtNtNtCsd0DXYhglbat_13multiversx_sc13contract_base17callable_contract16CallableContract4callCs25HLPETZpNm_4test
FN:11,_RNvXCsgD0AgT6J0eh_15delegation_mockINtNtNtCsd0DXYhglbat_13multiversx_sc13contract_base22universal_contract_obj20UniversalContractObjINtNtNtNtCs2614o7AVePg_22multiversx_sc_scenario3api7impl_vh12vm_hooks_api10VMHooksApiNtNtB2b_9debug_api15DebugApiBackendEENtB2_14DelegationMock15address_depositCsgub9DQDg2s9_15unDelegate_test
FN:11,_RNvXCsgD0AgT6J0eh_15delegation_mockINtNtNtCsd0DXYhglbat_13multiversx_sc13contract_base22universal_contract_obj20UniversalContractObjINtNtNtNtCs2614o7AVePg_22multiversx_sc_scenario3api7impl_vh12vm_hooks_api10VMHooksApiNtNtB2b_9debug_api15DebugApiBackendEENtB2_14DelegationMock17egld_token_supplyCsgub9DQDg2s9_15unDelegate_test
FN:11,_RNvXCsgD0AgT6J0eh_15delegation_mockINtNtNtCsd0DXYhglbat_13multiversx_sc13contract_base22universal_contract_obj20UniversalContractObjINtNtNtNtCs2614o7AVePg_22multiversx_sc_scenario3api7impl_vh12vm_hooks_api10VMHooksApiNtNtB2b_9debug_api15DebugApiBackendEENtB2_14DelegationMock24address_last_claim_epochCsgub9DQDg2s9_15unDelegate_test
FN:11,_RNvXCsgD0AgT6J0eh_15delegation_mockINtNtNtCsd0DXYhglbat_13multiversx_sc13contract_base22universal_contract_obj20UniversalContractObjINtNtNtNtCs2614o7AVePg_22multiversx_sc_scenario3api7impl_vh12vm_hooks_api10VMHooksApiNtNtB2b_9debug_api15DebugApiBackendEENtB2_14DelegationMock24address_undelegate_epochCsgub9DQDg2s9_15unDelegate_test
FN:11,_RNvXCsgD0AgT6J0eh_15delegation_mockINtNtNtCsd0DXYhglbat_13multiversx_sc13contract_base22universal_contract_obj20UniversalContractObjINtNtNtNtCs2614o7AVePg_22multiversx_sc_scenario3api7impl_vh12vm_hooks_api10VMHooksApiNtNtB2b_9debug_api15DebugApiBackendEENtB2_14DelegationMock25address_undelegate_amountCsgub9DQDg2s9_15unDelegate_test
FN:36,_RNvYINtNtNtCsd0DXYhglbat_13multiversx_sc13contract_base22universal_contract_obj20UniversalContractObjINtNtNtNtCs2614o7AVePg_22multiversx_sc_scenario3api7impl_vh12vm_hooks_api10VMHooksApiNtNtB1G_9debug_api15DebugApiBackendEENtCsgD0AgT6J0eh_15delegation_mock14DelegationMock10undelegateCsgub9DQDg2s9_15unDelegate_test
FN:19,_RNvYINtNtNtCsd0DXYhglbat_13multiversx_sc13contract_base22universal_contract_obj20UniversalContractObjINtNtNtNtCs2614o7AVePg_22multiversx_sc_scenario3api7impl_vh12vm_hooks_api10VMHooksApiNtNtB1G_9debug_api15DebugApiBackendEENtCsgD0AgT6J0eh_15delegation_mock14DelegationMock12deposit_egldCsgub9DQDg2s9_15unDelegate_test
FN:72,_RNvYINtNtNtCsd0DXYhglbat_13multiversx_sc13contract_base22universal_contract_obj20UniversalContractObjINtNtNtNtCs2614o7AVePg_22multiversx_sc_scenario3api7impl_vh12vm_hooks_api10VMHooksApiNtNtB1G_9debug_api15DebugApiBackendEENtCsgD0AgT6J0eh_15delegation_mock14DelegationMock13claim_rewardsCsgub9DQDg2s9_15unDelegate_test
FN:27,_RNvYINtNtNtCsd0DXYhglbat_13multiversx_sc13contract_base22universal_contract_obj20UniversalContractObjINtNtNtNtCs2614o7AVePg_22multiversx_sc_scenario3api7impl_vh12vm_hooks_api10VMHooksApiNtNtB1G_9debug_api15DebugApiBackendEENtCsgD0AgT6J0eh_15delegation_mock14DelegationMock8delegateCsgub9DQDg2s9_15unDelegate_test
FN:52,_RNvYINtNtNtCsd0DXYhglbat_13multiversx_sc13contract_base22universal_contract_obj20UniversalContractObjINtNtNtNtCs2614o7AVePg_22multiversx_sc_scenario3api7impl_vh12vm_hooks_api10VMHooksApiNtNtB1G_9debug_api15DebugApiBackendEENtCsgD0AgT6J0eh_15delegation_mock14DelegationMock8withdrawCsgub9DQDg2s9_15unDelegate_test
FN:11,_RNvYINtNtNtCsd0DXYhglbat_13multiversx_sc13contract_base22universal_contract_obj20UniversalContractObjINtNtNtNtCs2614o7AVePg_22multiversx_sc_scenario3api7impl_vh12vm_hooks_api10VMHooksApiNtNtB1G_9debug_api15DebugApiBackendEENtCsgD0AgT6J0eh_15delegation_mock16EndpointWrappers13call_delegateCsgub9DQDg2s9_15unDelegate_test
FN:11,_RNvYINtNtNtCsd0DXYhglbat_13multiversx_sc13contract_base22universal_contract_obj20UniversalContractObjINtNtNtNtCs2614o7AVePg_22multiversx_sc_scenario3api7impl_vh12vm_hooks_api10VMHooksApiNtNtB1G_9debug_api15DebugApiBackendEENtCsgD0AgT6J0eh_15delegation_mock16EndpointWrappers13call_withdrawCsgub9DQDg2s9_15unDelegate_test
FN:11,_RNvYINtNtNtCsd0DXYhglbat_13multiversx_sc13contract_base22universal_contract_obj20UniversalContractObjINtNtNtNtCs2614o7AVePg_22multiversx_sc_scenario3api7impl_vh12vm_hooks_api10VMHooksApiNtNtB1G_9debug_api15DebugApiBackendEENtCsgD0AgT6J0eh_15delegation_mock16EndpointWrappers15call_undelegateCsgub9DQDg2s9_15unDelegate_test
FN:11,_RNvYINtNtNtCsd0DXYhglbat_13multiversx_sc13contract_base22universal_contract_obj20UniversalContractObjINtNtNtNtCs2614o7AVePg_22multiversx_sc_scenario3api7impl_vh12vm_hooks_api10VMHooksApiNtNtB1G_9debug_api15DebugApiBackendEENtCsgD0AgT6J0eh_15delegation_mock16EndpointWrappers17call_deposit_egldCsgub9DQDg2s9_15unDelegate_test
FN:11,_RNvYINtNtNtCsd0DXYhglbat_13multiversx_sc13contract_base22universal_contract_obj20UniversalContractObjINtNtNtNtCs2614o7AVePg_22multiversx_sc_scenario3api7impl_vh12vm_hooks_api10VMHooksApiNtNtB1G_9debug_api15DebugApiBackendEENtCsgD0AgT6J0eh_15delegation_mock16EndpointWrappers18call_claim_rewardsCsgub9DQDg2s9_15unDelegate_test
FN:11,_RNvYINtNtNtCsd0DXYhglbat_13multiversx_sc13contract_base22universal_contract_obj20UniversalContractObjINtNtNtNtCs2614o7AVePg_22multiversx_sc_scenario3api7impl_vh12vm_hooks_api10VMHooksApiNtNtB1G_9debug_api15DebugApiBackendEENtCsgD0AgT6J0eh_15delegation_mock16EndpointWrappers4callCsgub9DQDg2s9_15unDelegate_test
FN:11,_RNvYINtNtNtCsd0DXYhglbat_13multiversx_sc13contract_base22universal_contract_obj20UniversalContractObjINtNtNtNtCs2614o7AVePg_22multiversx_sc_scenario3api7impl_vh12vm_hooks_api10VMHooksApiNtNtB1G_9debug_api15DebugApiBackendEENtCsgD0AgT6J0eh_15delegation_mock16EndpointWrappers8callbackCsgub9DQDg2s9_15unDelegate_test
FN:11,_RNvYINtNtNtCsd0DXYhglbat_13multiversx_sc13contract_base22universal_contract_obj20UniversalContractObjINtNtNtNtCs2614o7AVePg_22multiversx_sc_scenario3api7impl_vh12vm_hooks_api10VMHooksApiNtNtB1G_9debug_api15DebugApiBackendEENtCsgD0AgT6J0eh_15delegation_mock16EndpointWrappers9call_initCsgub9DQDg2s9_15unDelegate_test
FN:11,_RINvCsgD0AgT6J0eh_15delegation_mock12contract_objINtNtNtNtCs2614o7AVePg_22multiversx_sc_scenario3api7impl_vh12vm_hooks_api10VMHooksApiNtNtBQ_9debug_api15DebugApiBackendEECsgub9DQDg2s9_15unDelegate_test
FN:11,_RINvXs6_CsgD0AgT6J0eh_15delegation_mockNtB6_15ContractBuilderNtNtNtCsd0DXYhglbat_13multiversx_sc13contract_base17callable_contract23CallableContractBuilder16new_contract_objINtNtNtNtCs2614o7AVePg_22multiversx_sc_scenario3api7impl_vh12vm_hooks_api10VMHooksApiNtNtB2Q_9debug_api15DebugApiBackendEECsgub9DQDg2s9_15unDelegate_test
FN:44,_RNCNvYINtNtNtCsd0DXYhglbat_13multiversx_sc13contract_base22universal_contract_obj20UniversalContractObjINtNtNtNtCs2614o7AVePg_22multiversx_sc_scenario3api7impl_vh12vm_hooks_api10VMHooksApiNtNtB1I_9debug_api15DebugApiBackendEENtCsgD0AgT6J0eh_15delegation_mock14DelegationMock10undelegate0Csgub9DQDg2s9_15unDelegate_test
FN:46,_RNCNvYINtNtNtCsd0DXYhglbat_13multiversx_sc13contract_base22universal_contract_obj20UniversalContractObjINtNtNtNtCs2614o7AVePg_22multiversx_sc_scenario3api7impl_vh12vm_hooks_api10VMHooksApiNtNtB1I_9debug_api15DebugApiBackendEENtCsgD0AgT6J0eh_15delegation_mock14DelegationMock10undelegates_0Csgub9DQDg2s9_15unDelegate_test
FN:22,_RNCNvYINtNtNtCsd0DXYhglbat_13multiversx_sc13contract_base22universal_contract_obj20UniversalContractObjINtNtNtNtCs2614o7AVePg_22multiversx_sc_scenario3api7impl_vh12vm_hooks_api10VMHooksApiNtNtB1I_9debug_api15DebugApiBackendEENtCsgD0AgT6J0eh_15delegation_mock14DelegationMock12deposit_egld0Csgub9DQDg2s9_15unDelegate_test
FN:30,_RNCNvYINtNtNtCsd0DXYhglbat_13multiversx_sc13contract_base22universal_contract_obj20UniversalContractObjINtNtNtNtCs2614o7AVePg_22multiversx_sc_scenario3api7impl_vh12vm_hooks_api10VMHooksApiNtNtB1I_9debug_api15DebugApiBackendEENtCsgD0AgT6J0eh_15delegation_mock14DelegationMock8delegate0Csgub9DQDg2s9_15unDelegate_test
FN:32,_RNCNvYINtNtNtCsd0DXYhglbat_13multiversx_sc13contract_base22universal_contract_obj20UniversalContractObjINtNtNtNtCs2614o7AVePg_22multiversx_sc_scenario3api7impl_vh12vm_hooks_api10VMHooksApiNtNtB1I_9debug_api15DebugApiBackendEENtCsgD0AgT6J0eh_15delegation_mock14DelegationMock8delegates_0Csgub9DQDg2s9_15unDelegate_test
FN:65,_RNCNvYINtNtNtCsd0DXYhglbat_13multiversx_sc13contract_base22universal_contract_obj20UniversalContractObjINtNtNtNtCs2614o7AVePg_22multiversx_sc_scenario3api7impl_vh12vm_hooks_api10VMHooksApiNtNtB1I_9debug_api15DebugApiBackendEENtCsgD0AgT6J0eh_15delegation_mock14DelegationMock8withdraw0Csgub9DQDg2s9_15unDelegate_test
FN:11,_RNvXs5_CsgD0AgT6J0eh_15delegation_mockINtB5_11ContractObjINtNtNtNtCs2614o7AVePg_22multiversx_sc_scenario3api7impl_vh12vm_hooks_api10VMHooksApiNtNtBY_9debug_api15DebugApiBackendEENtNtNtCsd0DXYhglbat_13multiversx_sc13contract_base17callable_contract16CallableContract4callCsgub9DQDg2s9_15unDelegate_test
FN:11,_RINvCsgD0AgT6J0eh_15delegation_mock12contract_objINtNtNtNtCs2614o7AVePg_22multiversx_sc_scenario3api7impl_vh12vm_hooks_api10VMHooksApiNtNtBQ_9debug_api15DebugApiBackendEECscNyXpV1vtNq_11unbond_test
FN:11,_RINvXs6_CsgD0AgT6J0eh_15delegation_mockNtB6_15ContractBuilderNtNtNtCsd0DXYhglbat_13multiversx_sc13contract_base17callable_contract23CallableContractBuilder16new_contract_objINtNtNtNtCs2614o7AVePg_22multiversx_sc_scenario3api7impl_vh12vm_hooks_api10VMHooksApiNtNtB2Q_9debug_api15DebugApiBackendEECscNyXpV1vtNq_11unbond_test
FN:44,_RNCNvYINtNtNtCsd0DXYhglbat_13multiversx_sc13contract_base22universal_contract_obj20UniversalContractObjINtNtNtNtCs2614o7AVePg_22multiversx_sc_scenario3api7impl_vh12vm_hooks_api10VMHooksApiNtNtB1I_9debug_api15DebugApiBackendEENtCsgD0AgT6J0eh_15delegation_mock14DelegationMock10undelegate0CscNyXpV1vtNq_11unbond_test
FN:46,_RNCNvYINtNtNtCsd0DXYhglbat_13multiversx_sc13contract_base22universal_contract_obj20UniversalContractObjINtNtNtNtCs2614o7AVePg_22multiversx_sc_scenario3api7impl_vh12vm_hooks_api10VMHooksApiNtNtB1I_9debug_api15DebugApiBackendEENtCsgD0AgT6J0eh_15delegation_mock14DelegationMock10undelegates_0CscNyXpV1vtNq_11unbond_test
FN:22,_RNCNvYINtNtNtCsd0DXYhglbat_13multiversx_sc13contract_base22universal_contract_obj20UniversalContractObjINtNtNtNtCs2614o7AVePg_22multiversx_sc_scenario3api7impl_vh12vm_hooks_api10VMHooksApiNtNtB1I_9debug_api15DebugApiBackendEENtCsgD0AgT6J0eh_15delegation_mock14DelegationMock12deposit_egld0CscNyXpV1vtNq_11unbond_test
FN:30,_RNCNvYINtNtNtCsd0DXYhglbat_13multiversx_sc13contract_base22universal_contract_obj20UniversalContractObjINtNtNtNtCs2614o7AVePg_22multiversx_sc_scenario3api7impl_vh12vm_hooks_api10VMHooksApiNtNtB1I_9debug_api15DebugApiBackendEENtCsgD0AgT6J0eh_15delegation_mock14DelegationMock8delegate0CscNyXpV1vtNq_11unbond_test
FN:32,_RNCNvYINtNtNtCsd0DXYhglbat_13multiversx_sc13contract_base22universal_contract_obj20UniversalContractObjINtNtNtNtCs2614o7AVePg_22multiversx_sc_scenario3api7impl_vh12vm_hooks_api10VMHooksApiNtNtB1I_9debug_api15DebugApiBackendEENtCsgD0AgT6J0eh_15delegation_mock14DelegationMock8delegates_0CscNyXpV1vtNq_11unbond_test
FN:65,_RNCNvYINtNtNtCsd0DXYhglbat_13multiversx_sc13contract_base22universal_contract_obj20UniversalContractObjINtNtNtNtCs2614o7AVePg_22multiversx_sc_scenario3api7impl_vh12vm_hooks_api10VMHooksApiNtNtB1I_9debug_api15DebugApiBackendEENtCsgD0AgT6J0eh_15delegation_mock14DelegationMock8withdraw0CscNyXpV1vtNq_11unbond_test
FN:11,_RNvXs5_CsgD0AgT6J0eh_15delegation_mockINtB5_11ContractObjINtNtNtNtCs2614o7AVePg_22multiversx_sc_scenario3api7impl_vh12vm_hooks_api10VMHooksApiNtNtBY_9debug_api15DebugApiBackendEENtNtNtCsd0DXYhglbat_13multiversx_sc13contract_base17callable_contract16CallableContract4callCscNyXpV1vtNq_11unbond_test
FN:11,_RNvXCsgD0AgT6J0eh_15delegation_mockINtNtNtCsd0DXYhglbat_13multiversx_sc13contract_base22universal_contract_obj20UniversalContractObjINtNtNtNtCs2614o7AVePg_22multiversx_sc_scenario3api7impl_vh12vm_hooks_api10VMHooksApiNtNtB2b_9debug_api15DebugApiBackendEENtB2_14DelegationMock15address_depositCscNyXpV1vtNq_11unbond_test
FN:11,_RNvXCsgD0AgT6J0eh_15delegation_mockINtNtNtCsd0DXYhglbat_13multiversx_sc13contract_base22universal_contract_obj20UniversalContractObjINtNtNtNtCs2614o7AVePg_22multiversx_sc_scenario3api7impl_vh12vm_hooks_api10VMHooksApiNtNtB2b_9debug_api15DebugApiBackendEENtB2_14DelegationMock17egld_token_supplyCscNyXpV1vtNq_11unbond_test
FN:11,_RNvXCsgD0AgT6J0eh_15delegation_mockINtNtNtCsd0DXYhglbat_13multiversx_sc13contract_base22universal_contract_obj20UniversalContractObjINtNtNtNtCs2614o7AVePg_22multiversx_sc_scenario3api7impl_vh12vm_hooks_api10VMHooksApiNtNtB2b_9debug_api15DebugApiBackendEENtB2_14DelegationMock24address_last_claim_epochCscNyXpV1vtNq_11unbond_test
FN:11,_RNvXCsgD0AgT6J0eh_15delegation_mockINtNtNtCsd0DXYhglbat_13multiversx_sc13contract_base22universal_contract_obj20UniversalContractObjINtNtNtNtCs2614o7AVePg_22multiversx_sc_scenario3api7impl_vh12vm_hooks_api10VMHooksApiNtNtB2b_9debug_api15DebugApiBackendEENtB2_14DelegationMock24address_undelegate_epochCscNyXpV1vtNq_11unbond_test
FN:11,_RNvXCsgD0AgT6J0eh_15delegation_mockINtNtNtCsd0DXYhglbat_13multiversx_sc13contract_base22universal_contract_obj20UniversalContractObjINtNtNtNtCs2614o7AVePg_22multiversx_sc_scenario3api7impl_vh12vm_hooks_api10VMHooksApiNtNtB2b_9debug_api15DebugApiBackendEENtB2_14DelegationMock25address_undelegate_amountCscNyXpV1vtNq_11unbond_test
FN:36,_RNvYINtNtNtCsd0DXYhglbat_13multiversx_sc13contract_base22universal_contract_obj20UniversalContractObjINtNtNtNtCs2614o7AVePg_22multiversx_sc_scenario3api7impl_vh12vm_hooks_api10VMHooksApiNtNtB1G_9debug_api15DebugApiBackendEENtCsgD0AgT6J0eh_15delegation_mock14DelegationMock10undelegateCscNyXpV1vtNq_11unbond_test
FN:19,_RNvYINtNtNtCsd0DXYhglbat_13multiversx_sc13contract_base22universal_contract_obj20UniversalContractObjINtNtNtNtCs2614o7AVePg_22multiversx_sc_scenario3api7impl_vh12vm_hooks_api10VMHooksApiNtNtB1G_9debug_api15DebugApiBackendEENtCsgD0AgT6J0eh_15delegation_mock14DelegationMock12deposit_egldCscNyXpV1vtNq_11unbond_test
FN:72,_RNvYINtNtNtCsd0DXYhglbat_13multiversx_sc13contract_base22universal_contract_obj20UniversalContractObjINtNtNtNtCs2614o7AVePg_22multiversx_sc_scenario3api7impl_vh12vm_hooks_api10VMHooksApiNtNtB1G_9debug_api15DebugApiBackendEENtCsgD0AgT6J0eh_15delegation_mock14DelegationMock13claim_rewardsCscNyXpV1vtNq_11unbond_test
FN:27,_RNvYINtNtNtCsd0DXYhglbat_13multiversx_sc13contract_base22universal_contract_obj20UniversalContractObjINtNtNtNtCs2614o7AVePg_22multiversx_sc_scenario3api7impl_vh12vm_hooks_api10VMHooksApiNtNtB1G_9debug_api15DebugApiBackendEENtCsgD0AgT6J0eh_15delegation_mock14DelegationMock8delegateCscNyXpV1vtNq_11unbond_test
FN:52,_RNvYINtNtNtCsd0DXYhglbat_13multiversx_sc13contract_base22universal_contract_obj20UniversalContractObjINtNtNtNtCs2614o7AVePg_22multiversx_sc_scenario3api7impl_vh12vm_hooks_api10VMHooksApiNtNtB1G_9debug_api15DebugApiBackendEENtCsgD0AgT6J0eh_15delegation_mock14DelegationMock8withdrawCscNyXpV1vtNq_11unbond_test
FN:11,_RNvYINtNtNtCsd0DXYhglbat_13multiversx_sc13contract_base22universal_contract_obj20UniversalContractObjINtNtNtNtCs2614o7AVePg_22multiversx_sc_scenario3api7impl_vh12vm_hooks_api10VMHooksApiNtNtB1G_9debug_api15DebugApiBackendEENtCsgD0AgT6J0eh_15delegation_mock16EndpointWrappers13call_delegateCscNyXpV1vtNq_11unbond_test
FN:11,_RNvYINtNtNtCsd0DXYhglbat_13multiversx_sc13contract_base22universal_contract_obj20UniversalContractObjINtNtNtNtCs2614o7AVePg_22multiversx_sc_scenario3api7impl_vh12vm_hooks_api10VMHooksApiNtNtB1G_9debug_api15DebugApiBackendEENtCsgD0AgT6J0eh_15delegation_mock16EndpointWrappers13call_withdrawCscNyXpV1vtNq_11unbond_test
FN:11,_RNvYINtNtNtCsd0DXYhglbat_13multiversx_sc13contract_base22universal_contract_obj20UniversalContractObjINtNtNtNtCs2614o7AVePg_22multiversx_sc_scenario3api7impl_vh12vm_hooks_api10VMHooksApiNtNtB1G_9debug_api15DebugApiBackendEENtCsgD0AgT6J0eh_15delegation_mock16EndpointWrappers15call_undelegateCscNyXpV1vtNq_11unbond_test
FN:11,_RNvYINtNtNtCsd0DXYhglbat_13multiversx_sc13contract_base22universal_contract_obj20UniversalContractObjINtNtNtNtCs2614o7AVePg_22multiversx_sc_scenario3api7impl_vh12vm_hooks_api10VMHooksApiNtNtB1G_9debug_api15DebugApiBackendEENtCsgD0AgT6J0eh_15delegation_mock16EndpointWrappers17call_deposit_egldCscNyXpV1vtNq_11unbond_test
FN:11,_RNvYINtNtNtCsd0DXYhglbat_13multiversx_sc13contract_base22universal_contract_obj20UniversalContractObjINtNtNtNtCs2614o7AVePg_22multiversx_sc_scenario3api7impl_vh12vm_hooks_api10VMHooksApiNtNtB1G_9debug_api15DebugApiBackendEENtCsgD0AgT6J0eh_15delegation_mock16EndpointWrappers18call_claim_rewardsCscNyXpV1vtNq_11unbond_test
FN:11,_RNvYINtNtNtCsd0DXYhglbat_13multiversx_sc13contract_base22universal_contract_obj20UniversalContractObjINtNtNtNtCs2614o7AVePg_22multiversx_sc_scenario3api7impl_vh12vm_hooks_api10VMHooksApiNtNtB1G_9debug_api15DebugApiBackendEENtCsgD0AgT6J0eh_15delegation_mock16EndpointWrappers4callCscNyXpV1vtNq_11unbond_test
FN:11,_RNvYINtNtNtCsd0DXYhglbat_13multiversx_sc13contract_base22universal_contract_obj20UniversalContractObjINtNtNtNtCs2614o7AVePg_22multiversx_sc_scenario3api7impl_vh12vm_hooks_api10VMHooksApiNtNtB1G_9debug_api15DebugApiBackendEENtCsgD0AgT6J0eh_15delegation_mock16EndpointWrappers8callbackCscNyXpV1vtNq_11unbond_test
FN:11,_RNvYINtNtNtCsd0DXYhglbat_13multiversx_sc13contract_base22universal_contract_obj20UniversalContractObjINtNtNtNtCs2614o7AVePg_22multiversx_sc_scenario3api7impl_vh12vm_hooks_api10VMHooksApiNtNtB1G_9debug_api15DebugApiBackendEENtCsgD0AgT6J0eh_15delegation_mock16EndpointWrappers9call_initCscNyXpV1vtNq_11unbond_test
FNDA:16,_RINvCsgD0AgT6J0eh_15delegation_mock12contract_objINtNtNtNtCs2614o7AVePg_22multiversx_sc_scenario3api7impl_vh12vm_hooks_api10VMHooksApiNtNtBQ_9debug_api15DebugApiBackendEECsbv7vZMOU1ip_13delegate_test
FNDA:16,_RINvXs6_CsgD0AgT6J0eh_15delegation_mockNtB6_15ContractBuilderNtNtNtCsd0DXYhglbat_13multiversx_sc13contract_base17callable_contract23CallableContractBuilder16new_contract_objINtNtNtNtCs2614o7AVePg_22multiversx_sc_scenario3api7impl_vh12vm_hooks_api10VMHooksApiNtNtB2Q_9debug_api15DebugApiBackendEECsbv7vZMOU1ip_13delegate_test
FNDA:0,_RNCNvYINtNtNtCsd0DXYhglbat_13multiversx_sc13contract_base22universal_contract_obj20UniversalContractObjINtNtNtNtCs2614o7AVePg_22multiversx_sc_scenario3api7impl_vh12vm_hooks_api10VMHooksApiNtNtB1I_9debug_api15DebugApiBackendEENtCsgD0AgT6J0eh_15delegation_mock14DelegationMock10undelegate0Csbv7vZMOU1ip_13delegate_test
FNDA:0,_RNCNvYINtNtNtCsd0DXYhglbat_13multiversx_sc13contract_base22universal_contract_obj20UniversalContractObjINtNtNtNtCs2614o7AVePg_22multiversx_sc_scenario3api7impl_vh12vm_hooks_api10VMHooksApiNtNtB1I_9debug_api15DebugApiBackendEENtCsgD0AgT6J0eh_15delegation_mock14DelegationMock10undelegates_0Csbv7vZMOU1ip_13delegate_test
FNDA:16,_RNCNvYINtNtNtCsd0DXYhglbat_13multiversx_sc13contract_base22universal_contract_obj20UniversalContractObjINtNtNtNtCs2614o7AVePg_22multiversx_sc_scenario3api7impl_vh12vm_hooks_api10VMHooksApiNtNtB1I_9debug_api15DebugApiBackendEENtCsgD0AgT6J0eh_15delegation_mock14DelegationMock12deposit_egld0Csbv7vZMOU1ip_13delegate_test
FNDA:24,_RNCNvYINtNtNtCsd0DXYhglbat_13multiversx_sc13contract_base22universal_contract_obj20UniversalContractObjINtNtNtNtCs2614o7AVePg_22multiversx_sc_scenario3api7impl_vh12vm_hooks_api10VMHooksApiNtNtB1I_9debug_api15DebugApiBackendEENtCsgD0AgT6J0eh_15delegation_mock14DelegationMock8delegate0Csbv7vZMOU1ip_13delegate_test
FNDA:24,_RNCNvYINtNtNtCsd0DXYhglbat_13multiversx_sc13contract_base22universal_contract_obj20UniversalContractObjINtNtNtNtCs2614o7AVePg_22multiversx_sc_scenario3api7impl_vh12vm_hooks_api10VMHooksApiNtNtB1I_9debug_api15DebugApiBackendEENtCsgD0AgT6J0eh_15delegation_mock14DelegationMock8delegates_0Csbv7vZMOU1ip_13delegate_test
FNDA:0,_RNCNvYINtNtNtCsd0DXYhglbat_13multiversx_sc13contract_base22universal_contract_obj20UniversalContractObjINtNtNtNtCs2614o7AVePg_22multiversx_sc_scenario3api7impl_vh12vm_hooks_api10VMHooksApiNtNtB1I_9debug_api15DebugApiBackendEENtCsgD0AgT6J0eh_15delegation_mock14DelegationMock8withdraw0Csbv7vZMOU1ip_13delegate_test
FNDA:56,_RNvXs5_CsgD0AgT6J0eh_15delegation_mockINtB5_11ContractObjINtNtNtNtCs2614o7AVePg_22multiversx_sc_scenario3api7impl_vh12vm_hooks_api10VMHooksApiNtNtBY_9debug_api15DebugApiBackendEENtNtNtCsd0DXYhglbat_13multiversx_sc13contract_base17callable_contract16CallableContract4callCsbv7vZMOU1ip_13delegate_test
FNDA:24,_RNvXCsgD0AgT6J0eh_15delegation_mockINtNtNtCsd0DXYhglbat_13multiversx_sc13contract_base22universal_contract_obj20UniversalContractObjINtNtNtNtCs2614o7AVePg_22multiversx_sc_scenario3api7impl_vh12vm_hooks_api10VMHooksApiNtNtB2b_9debug_api15DebugApiBackendEENtB2_14DelegationMock15address_depositCsbv7vZMOU1ip_13delegate_test
FNDA:40,_RNvXCsgD0AgT6J0eh_15delegation_mockINtNtNtCsd0DXYhglbat_13multiversx_sc13contract_base22universal_contract_obj20UniversalContractObjINtNtNtNtCs2614o7AVePg_22multiversx_sc_scenario3api7impl_vh12vm_hooks_api10VMHooksApiNtNtB2b_9debug_api15DebugApiBackendEENtB2_14DelegationMock17egld_token_supplyCsbv7vZMOU1ip_13delegate_test
FNDA:0,_RNvXCsgD0AgT6J0eh_15delegation_mockINtNtNtCsd0DXYhglbat_13multiversx_sc13contract_base22universal_contract_obj20UniversalContractObjINtNtNtNtCs2614o7AVePg_22multiversx_sc_scenario3api7impl_vh12vm_hooks_api10VMHooksApiNtNtB2b_9debug_api15DebugApiBackendEENtB2_14DelegationMock24address_last_claim_epochCsbv7vZMOU1ip_13delegate_test
FNDA:0,_RNvXCsgD0AgT6J0eh_15delegation_mockINtNtNtCsd0DXYhglbat_13multiversx_sc13contract_base22universal_contract_obj20UniversalContractObjINtNtNtNtCs2614o7AVePg_22multiversx_sc_scenario3api7impl_vh12vm_hooks_api10VMHooksApiNtNtB2b_9debug_api15DebugApiBackendEENtB2_14DelegationMock24address_undelegate_epochCsbv7vZMOU1ip_13delegate_test
FNDA:0,_RNvXCsgD0AgT6J0eh_15delegation_mockINtNtNtCsd0DXYhglbat_13multiversx_sc13contract_base22universal_contract_obj20UniversalContractObjINtNtNtNtCs2614o7AVePg_22multiversx_sc_scenario3api7impl_vh12vm_hooks_api10VMHooksApiNtNtB2b_9debug_api15DebugApiBackendEENtB2_14DelegationMock25address_undelegate_amountCsbv7vZMOU1ip_13delegate_test
FNDA:0,_RNvYINtNtNtCsd0DXYhglbat_13multiversx_sc13contract_base22universal_contract_obj20UniversalContractObjINtNtNtNtCs2614o7AVePg_22multiversx_sc_scenario3api7impl_vh12vm_hooks_api10VMHooksApiNtNtB1G_9debug_api15DebugApiBackendEENtCsgD0AgT6J0eh_15delegation_mock14DelegationMock10undelegateCsbv7vZMOU1ip_13delegate_test
FNDA:16,_RNvYINtNtNtCsd0DXYhglbat_13multiversx_sc13contract_base22universal_contract_obj20UniversalContractObjINtNtNtNtCs2614o7AVePg_22multiversx_sc_scenario3api7impl_vh12vm_hooks_api10VMHooksApiNtNtB1G_9debug_api15DebugApiBackendEENtCsgD0AgT6J0eh_15delegation_mock14DelegationMock12deposit_egldCsbv7vZMOU1ip_13delegate_test
FNDA:0,_RNvYINtNtNtCsd0DXYhglbat_13multiversx_sc13contract_base22universal_contract_obj20UniversalContractObjINtNtNtNtCs2614o7AVePg_22multiversx_sc_scenario3api7impl_vh12vm_hooks_api10VMHooksApiNtNtB1G_9debug_api15DebugApiBackendEENtCsgD0AgT6J0eh_15delegation_mock14DelegationMock13claim_rewardsCsbv7vZMOU1ip_13delegate_test
FNDA:24,_RNvYINtNtNtCsd0DXYhglbat_13multiversx_sc13contract_base22universal_contract_obj20UniversalContractObjINtNtNtNtCs2614o7AVePg_22multiversx_sc_scenario3api7impl_vh12vm_hooks_api10VMHooksApiNtNtB1G_9debug_api15DebugApiBackendEENtCsgD0AgT6J0eh_15delegation_mock14DelegationMock8delegateCsbv7vZMOU1ip_13delegate_test
FNDA:0,_RNvYINtNtNtCsd0DXYhglbat_13multiversx_sc13contract_base22universal_contract_obj20UniversalContractObjINtNtNtNtCs2614o7AVePg_22multiversx_sc_scenario3api7impl_vh12vm_hooks_api10VMHooksApiNtNtB1G_9debug_api15DebugApiBackendEENtCsgD0AgT6J0eh_15delegation_mock14DelegationMock8withdrawCsbv7vZMOU1ip_13delegate_test
FNDA:24,_RNvYINtNtNtCsd0DXYhglbat_13multiversx_sc13contract_base22universal_contract_obj20UniversalContractObjINtNtNtNtCs2614o7AVePg_22multiversx_sc_scenario3api7impl_vh12vm_hooks_api10VMHooksApiNtNtB1G_9debug_api15DebugApiBackendEENtCsgD0AgT6J0eh_15delegation_mock16EndpointWrappers13call_delegateCsbv7vZMOU1ip_13delegate_test
FNDA:0,_RNvYINtNtNtCsd0DXYhglbat_13multiversx_sc13contract_base22universal_contract_obj20UniversalContractObjINtNtNtNtCs2614o7AVePg_22multiversx_sc_scenario3api7impl_vh12vm_hooks_api10VMHooksApiNtNtB1G_9debug_api15DebugApiBackendEENtCsgD0AgT6J0eh_15delegation_mock16EndpointWrappers13call_withdrawCsbv7vZMOU1ip_13delegate_test
FNDA:0,_RNvYINtNtNtCsd0DXYhglbat_13multiversx_sc13contract_base22universal_contract_obj20UniversalContractObjINtNtNtNtCs2614o7AVePg_22multiversx_sc_scenario3api7impl_vh12vm_hooks_api10VMHooksApiNtNtB1G_9debug_api15DebugApiBackendEENtCsgD0AgT6J0eh_15delegation_mock16EndpointWrappers15call_undelegateCsbv7vZMOU1ip_13delegate_test
FNDA:16,_RNvYINtNtNtCsd0DXYhglbat_13multiversx_sc13contract_base22universal_contract_obj20UniversalContractObjINtNtNtNtCs2614o7AVePg_22multiversx_sc_scenario3api7impl_vh12vm_hooks_api10VMHooksApiNtNtB1G_9debug_api15DebugApiBackendEENtCsgD0AgT6J0eh_15delegation_mock16EndpointWrappers17call_deposit_egldCsbv7vZMOU1ip_13delegate_test
FNDA:0,_RNvYINtNtNtCsd0DXYhglbat_13multiversx_sc13contract_base22universal_contract_obj20UniversalContractObjINtNtNtNtCs2614o7AVePg_22multiversx_sc_scenario3api7impl_vh12vm_hooks_api10VMHooksApiNtNtB1G_9debug_api15DebugApiBackendEENtCsgD0AgT6J0eh_15delegation_mock16EndpointWrappers18call_claim_rewardsCsbv7vZMOU1ip_13delegate_test
FNDA:56,_RNvYINtNtNtCsd0DXYhglbat_13multiversx_sc13contract_base22universal_contract_obj20UniversalContractObjINtNtNtNtCs2614o7AVePg_22multiversx_sc_scenario3api7impl_vh12vm_hooks_api10VMHooksApiNtNtB1G_9debug_api15DebugApiBackendEENtCsgD0AgT6J0eh_15delegation_mock16EndpointWrappers4callCsbv7vZMOU1ip_13delegate_test
FNDA:0,_RNvYINtNtNtCsd0DXYhglbat_13multiversx_sc13contract_base22universal_contract_obj20UniversalContractObjINtNtNtNtCs2614o7AVePg_22multiversx_sc_scenario3api7impl_vh12vm_hooks_api10VMHooksApiNtNtB1G_9debug_api15DebugApiBackendEENtCsgD0AgT6J0eh_15delegation_mock16EndpointWrappers8callbackCsbv7vZMOU1ip_13delegate_test
FNDA:16,_RNvYINtNtNtCsd0DXYhglbat_13multiversx_sc13contract_base22universal_contract_obj20UniversalContractObjINtNtNtNtCs2614o7AVePg_22multiversx_sc_scenario3api7impl_vh12vm_hooks_api10VMHooksApiNtNtB1G_9debug_api15DebugApiBackendEENtCsgD0AgT6J0eh_15delegation_mock16EndpointWrappers9call_initCsbv7vZMOU1ip_13delegate_test
FNDA:0,_RNvYpNtCsix6tSn7p4k_15delegation_mock14DelegationMock12deposit_egldB5_
FNDA:0,_RNCNvYpNtCsix6tSn7p4k_15delegation_mock14DelegationMock12deposit_egld0B7_
FNDA:0,_RNvYpNtCsix6tSn7p4k_15delegation_mock14DelegationMock8delegateB5_
FNDA:0,_RNCNvYpNtCsix6tSn7p4k_15delegation_mock14DelegationMock8delegate0B7_
FNDA:0,_RNCNvYpNtCsix6tSn7p4k_15delegation_mock14DelegationMock8delegates_0B7_
FNDA:0,_RNvYpNtCsix6tSn7p4k_15delegation_mock14DelegationMock10undelegateB5_
FNDA:0,_RNCNvYpNtCsix6tSn7p4k_15delegation_mock14DelegationMock10undelegate0B7_
FNDA:0,_RNCNvYpNtCsix6tSn7p4k_15delegation_mock14DelegationMock10undelegates_0B7_
FNDA:0,_RNvYpNtCsix6tSn7p4k_15delegation_mock14DelegationMock8withdrawB5_
FNDA:0,_RNCNvYpNtCsix6tSn7p4k_15delegation_mock14DelegationMock8withdraw0B7_
FNDA:0,_RNvYpNtCsix6tSn7p4k_15delegation_mock14DelegationMock13claim_rewardsB5_
FNDA:0,_RNvXINICsix6tSn7p4k_15delegation_mock0pEpNtB5_14DelegationMock17egld_token_supplyB5_
FNDA:0,_RNvXINICsix6tSn7p4k_15delegation_mock0pEpNtB5_14DelegationMock15address_depositB5_
FNDA:0,_RNvXINICsix6tSn7p4k_15delegation_mock0pEpNtB5_14DelegationMock24address_last_claim_epochB5_
FNDA:0,_RNvXINICsix6tSn7p4k_15delegation_mock0pEpNtB5_14DelegationMock25address_undelegate_amountB5_
FNDA:0,_RNvXINICsix6tSn7p4k_15delegation_mock0pEpNtB5_14DelegationMock24address_undelegate_epochB5_
FNDA:0,_RNvYpNtCsix6tSn7p4k_15delegation_mock16EndpointWrappers9call_initB5_
FNDA:0,_RNvYpNtCsix6tSn7p4k_15delegation_mock16EndpointWrappers17call_deposit_egldB5_
FNDA:0,_RNvYpNtCsix6tSn7p4k_15delegation_mock16EndpointWrappers13call_delegateB5_
FNDA:0,_RNvYpNtCsix6tSn7p4k_15delegation_mock16EndpointWrappers15call_undelegateB5_
FNDA:0,_RNvYpNtCsix6tSn7p4k_15delegation_mock16EndpointWrappers13call_withdrawB5_
FNDA:0,_RNvYpNtCsix6tSn7p4k_15delegation_mock16EndpointWrappers18call_claim_rewardsB5_
FNDA:0,_RNvYpNtCsix6tSn7p4k_15delegation_mock16EndpointWrappers4callB5_
FNDA:0,_RNvYpNtCsix6tSn7p4k_15delegation_mock16EndpointWrappers17callback_selectorB5_
FNDA:0,_RNvYpNtCsix6tSn7p4k_15delegation_mock16EndpointWrappers8callbackB5_
FNDA:0,_RNvXs1_Csix6tSn7p4k_15delegation_mockNtB5_11AbiProviderNtNtNtCsd0DXYhglbat_13multiversx_sc13contract_base21contract_abi_provider19ContractAbiProvider3abi
FNDA:0,_RNvXINICsix6tSn7p4k_15delegation_mocks5_0pEINtB5_11ContractObjpENtNtNtCsd0DXYhglbat_13multiversx_sc13contract_base17callable_contract16CallableContract4callB5_
FNDA:0,_RINvCsix6tSn7p4k_15delegation_mock12contract_objpEB2_
FNDA:0,_RINvXs6_Csix6tSn7p4k_15delegation_mockNtB6_15ContractBuilderNtNtNtCsd0DXYhglbat_13multiversx_sc13contract_base17callable_contract23CallableContractBuilder16new_contract_objpEB6_
FNDA:0,_RINvNtCsix6tSn7p4k_15delegation_mock19___wasm__endpoints__4initpEB4_
FNDA:0,_RINvNtCsix6tSn7p4k_15delegation_mock19___wasm__endpoints__12deposit_egldpEB4_
FNDA:0,_RINvNtCsix6tSn7p4k_15delegation_mock19___wasm__endpoints__8delegatepEB4_
FNDA:0,_RINvNtCsix6tSn7p4k_15delegation_mock19___wasm__endpoints__10undelegatepEB4_
FNDA:0,_RINvNtCsix6tSn7p4k_15delegation_mock19___wasm__endpoints__8withdrawpEB4_
FNDA:0,_RINvNtCsix6tSn7p4k_15delegation_mock19___wasm__endpoints__13claim_rewardspEB4_
FNDA:0,_RINvNtCsix6tSn7p4k_15delegation_mock19___wasm__endpoints__8callBackpEB4_
FNDA:0,_RNvYpNtCsix6tSn7p4k_15delegation_mock10ProxyTrait4initB5_
FNDA:0,_RNvYpNtCsix6tSn7p4k_15delegation_mock10ProxyTrait12deposit_egldB5_
FNDA:0,_RNvYpNtCsix6tSn7p4k_15delegation_mock10ProxyTrait8delegateB5_
FNDA:0,_RINvYpNtCsix6tSn7p4k_15delegation_mock10ProxyTrait10undelegatepEB6_
FNDA:0,_RNvYpNtCsix6tSn7p4k_15delegation_mock10ProxyTrait8withdrawB5_
FNDA:0,_RNvYpNtCsix6tSn7p4k_15delegation_mock10ProxyTrait13claim_rewardsB5_
FNDA:0,_RNvXINICsix6tSn7p4k_15delegation_mocks7_0pEINtB5_5ProxypENtNtNtCsd0DXYhglbat_13multiversx_sc13contract_base14proxy_obj_base12ProxyObjBase19extract_opt_addressB5_
FNDA:0,_RNvXINICsix6tSn7p4k_15delegation_mocks7_0pEINtB5_5ProxypENtNtNtCsd0DXYhglbat_13multiversx_sc13contract_base14proxy_obj_base12ProxyObjBase16extract_proxy_toB5_
FNDA:0,_RNvXINICsix6tSn7p4k_15delegation_mocks8_0pEINtB5_5ProxypENtNtNtCsd0DXYhglbat_13multiversx_sc13contract_base14proxy_obj_base11ProxyObjNew13new_proxy_objB5_
FNDA:0,_RNvXINICsix6tSn7p4k_15delegation_mocks8_0pEINtB5_5ProxypENtNtNtCsd0DXYhglbat_13multiversx_sc13contract_base14proxy_obj_base11ProxyObjNew8contractB5_
FNDA:0,_RNvXINICsix6tSn7p4k_15delegation_mocks9_0pEINtB5_7ProxyTopENtNtNtCsd0DXYhglbat_13multiversx_sc13contract_base14proxy_obj_base12ProxyObjBase19extract_opt_addressB5_
FNDA:0,_RNvXINICsix6tSn7p4k_15delegation_mocks9_0pEINtB5_7ProxyTopENtNtNtCsd0DXYhglbat_13multiversx_sc13contract_base14proxy_obj_base12ProxyObjBase15extract_addressB5_
FNDA:0,_RNvXINICsix6tSn7p4k_15delegation_mocks9_0pEINtB5_7ProxyTopENtNtNtCsd0DXYhglbat_13multiversx_sc13contract_base14proxy_obj_base12ProxyObjBase16extract_proxy_toB5_
FNDA:29,_RNvXCsgD0AgT6J0eh_15delegation_mockINtNtNtCsd0DXYhglbat_13multiversx_sc13contract_base22universal_contract_obj20UniversalContractObjINtNtNtNtCs2614o7AVePg_22multiversx_sc_scenario3api7impl_vh12vm_hooks_api10VMHooksApiNtNtB2b_9debug_api15DebugApiBackendEENtB2_14DelegationMock15address_depositCs25HLPETZpNm_4test
FNDA:34,_RNvXCsgD0AgT6J0eh_15delegation_mockINtNtNtCsd0DXYhglbat_13multiversx_sc13contract_base22universal_contract_obj20UniversalContractObjINtNtNtNtCs2614o7AVePg_22multiversx_sc_scenario3api7impl_vh12vm_hooks_api10VMHooksApiNtNtB2b_9debug_api15DebugApiBackendEENtB2_14DelegationMock17egld_token_supplyCs25HLPETZpNm_4test
FNDA:0,_RNvXCsgD0AgT6J0eh_15delegation_mockINtNtNtCsd0DXYhglbat_13multiversx_sc13contract_base22universal_contract_obj20UniversalContractObjINtNtNtNtCs2614o7AVePg_22multiversx_sc_scenario3api7impl_vh12vm_hooks_api10VMHooksApiNtNtB2b_9debug_api15DebugApiBackendEENtB2_14DelegationMock24address_last_claim_epochCs25HLPETZpNm_4test
FNDA:6,_RNvXCsgD0AgT6J0eh_15delegation_mockINtNtNtCsd0DXYhglbat_13multiversx_sc13contract_base22universal_contract_obj20UniversalContractObjINtNtNtNtCs2614o7AVePg_22multiversx_sc_scenario3api7impl_vh12vm_hooks_api10VMHooksApiNtNtB2b_9debug_api15DebugApiBackendEENtB2_14DelegationMock24address_undelegate_epochCs25HLPETZpNm_4test
FNDA:6,_RNvXCsgD0AgT6J0eh_15delegation_mockINtNtNtCsd0DXYhglbat_13multiversx_sc13contract_base22universal_contract_obj20UniversalContractObjINtNtNtNtCs2614o7AVePg_22multiversx_sc_scenario3api7impl_vh12vm_hooks_api10VMHooksApiNtNtB2b_9debug_api15DebugApiBackendEENtB2_14DelegationMock25address_undelegate_amountCs25HLPETZpNm_4test
FNDA:2,_RNvYINtNtNtCsd0DXYhglbat_13multiversx_sc13contract_base22universal_contract_obj20UniversalContractObjINtNtNtNtCs2614o7AVePg_22multiversx_sc_scenario3api7impl_vh12vm_hooks_api10VMHooksApiNtNtB1G_9debug_api15DebugApiBackendEENtCsgD0AgT6J0eh_15delegation_mock14DelegationMock10undelegateCs25HLPETZpNm_4test
FNDA:7,_RNvYINtNtNtCsd0DXYhglbat_13multiversx_sc13contract_base22universal_contract_obj20UniversalContractObjINtNtNtNtCs2614o7AVePg_22multiversx_sc_scenario3api7impl_vh12vm_hooks_api10VMHooksApiNtNtB1G_9debug_api15DebugApiBackendEENtCsgD0AgT6J0eh_15delegation_mock14DelegationMock12deposit_egldCs25HLPETZpNm_4test
FNDA:0,_RNvYINtNtNtCsd0DXYhglbat_13multiversx_sc13contract_base22universal_contract_obj20UniversalContractObjINtNtNtNtCs2614o7AVePg_22multiversx_sc_scenario3api7impl_vh12vm_hooks_api10VMHooksApiNtNtB1G_9debug_api15DebugApiBackendEENtCsgD0AgT6J0eh_15delegation_mock14DelegationMock13claim_rewardsCs25HLPETZpNm_4test
FNDA:25,_RNvYINtNtNtCsd0DXYhglbat_13multiversx_sc13contract_base22universal_contract_obj20UniversalContractObjINtNtNtNtCs2614o7AVePg_22multiversx_sc_scenario3api7impl_vh12vm_hooks_api10VMHooksApiNtNtB1G_9debug_api15DebugApiBackendEENtCsgD0AgT6J0eh_15delegation_mock14DelegationMock8delegateCs25HLPETZpNm_4test
FNDA:2,_RNvYINtNtNtCsd0DXYhglbat_13multiversx_sc13contract_base22universal_contract_obj20UniversalContractObjINtNtNtNtCs2614o7AVePg_22multiversx_sc_scenario3api7impl_vh12vm_hooks_api10VMHooksApiNtNtB1G_9debug_api15DebugApiBackendEENtCsgD0AgT6J0eh_15delegation_mock14DelegationMock8withdrawCs25HLPETZpNm_4test
FNDA:25,_RNvYINtNtNtCsd0DXYhglbat_13multiversx_sc13contract_base22universal_contract_obj20UniversalContractObjINtNtNtNtCs2614o7AVePg_22multiversx_sc_scenario3api7impl_vh12vm_hooks_api10VMHooksApiNtNtB1G_9debug_api15DebugApiBackendEENtCsgD0AgT6J0eh_15delegation_mock16EndpointWrappers13call_delegateCs25HLPETZpNm_4test
FNDA:2,_RNvYINtNtNtCsd0DXYhglbat_13multiversx_sc13contract_base22universal_contract_obj20UniversalContractObjINtNtNtNtCs2614o7AVePg_22multiversx_sc_scenario3api7impl_vh12vm_hooks_api10VMHooksApiNtNtB1G_9debug_api15DebugApiBackendEENtCsgD0AgT6J0eh_15delegation_mock16EndpointWrappers13call_withdrawCs25HLPETZpNm_4test
FNDA:2,_RNvYINtNtNtCsd0DXYhglbat_13multiversx_sc13contract_base22universal_contract_obj20UniversalContractObjINtNtNtNtCs2614o7AVePg_22multiversx_sc_scenario3api7impl_vh12vm_hooks_api10VMHooksApiNtNtB1G_9debug_api15DebugApiBackendEENtCsgD0AgT6J0eh_15delegation_mock16EndpointWrappers15call_undelegateCs25HLPETZpNm_4test
FNDA:7,_RNvYINtNtNtCsd0DXYhglbat_13multiversx_sc13contract_base22universal_contract_obj20UniversalContractObjINtNtNtNtCs2614o7AVePg_22multiversx_sc_scenario3api7impl_vh12vm_hooks_api10VMHooksApiNtNtB1G_9debug_api15DebugApiBackendEENtCsgD0AgT6J0eh_15delegation_mock16EndpointWrappers17call_deposit_egldCs25HLPETZpNm_4test
FNDA:0,_RNvYINtNtNtCsd0DXYhglbat_13multiversx_sc13contract_base22universal_contract_obj20UniversalContractObjINtNtNtNtCs2614o7AVePg_22multiversx_sc_scenario3api7impl_vh12vm_hooks_api10VMHooksApiNtNtB1G_9debug_api15DebugApiBackendEENtCsgD0AgT6J0eh_15delegation_mock16EndpointWrappers18call_claim_rewardsCs25HLPETZpNm_4test
FNDA:43,_RNvYINtNtNtCsd0DXYhglbat_13multiversx_sc13contract_base22universal_contract_obj20UniversalContractObjINtNtNtNtCs2614o7AVePg_22multiversx_sc_scenario3api7impl_vh12vm_hooks_api10VMHooksApiNtNtB1G_9debug_api15DebugApiBackendEENtCsgD0AgT6J0eh_15delegation_mock16EndpointWrappers4callCs25HLPETZpNm_4test
FNDA:0,_RNvYINtNtNtCsd0DXYhglbat_13multiversx_sc13contract_base22universal_contract_obj20UniversalContractObjINtNtNtNtCs2614o7AVePg_22multiversx_sc_scenario3api7impl_vh12vm_hooks_api10VMHooksApiNtNtB1G_9debug_api15DebugApiBackendEENtCsgD0AgT6J0eh_15delegation_mock16EndpointWrappers8callbackCs25HLPETZpNm_4test
FNDA:7,_RNvYINtNtNtCsd0DXYhglbat_13multiversx_sc13contract_base22universal_contract_obj20UniversalContractObjINtNtNtNtCs2614o7AVePg_22multiversx_sc_scenario3api7impl_vh12vm_hooks_api10VMHooksApiNtNtB1G_9debug_api15DebugApiBackendEENtCsgD0AgT6J0eh_15delegation_mock16EndpointWrappers9call_initCs25HLPETZpNm_4test
FNDA:5,_RINvCsgD0AgT6J0eh_15delegation_mock12contract_objINtNtNtNtCs2614o7AVePg_22multiversx_sc_scenario3api7impl_vh12vm_hooks_api10VMHooksApiNtNtBQ_9debug_api15DebugApiBackendEECs25HLPETZpNm_4test
FNDA:5,_RINvXs6_CsgD0AgT6J0eh_15delegation_mockNtB6_15ContractBuilderNtNtNtCsd0DXYhglbat_13multiversx_sc13contract_base17callable_contract23CallableContractBuilder16new_contract_objINtNtNtNtCs2614o7AVePg_22multiversx_sc_scenario3api7impl_vh12vm_hooks_api10VMHooksApiNtNtB2Q_9debug_api15DebugApiBackendEECs25HLPETZpNm_4test
FNDA:2,_RNCNvYINtNtNtCsd0DXYhglbat_13multiversx_sc13contract_base22universal_contract_obj20UniversalContractObjINtNtNtNtCs2614o7AVePg_22multiversx_sc_scenario3api7impl_vh12vm_hooks_api10VMHooksApiNtNtB1I_9debug_api15DebugApiBackendEENtCsgD0AgT6J0eh_15delegation_mock14DelegationMock10undelegate0Cs25HLPETZpNm_4test
FNDA:2,_RNCNvYINtNtNtCsd0DXYhglbat_13multiversx_sc13contract_base22universal_contract_obj20UniversalContractObjINtNtNtNtCs2614o7AVePg_22multiversx_sc_scenario3api7impl_vh12vm_hooks_api10VMHooksApiNtNtB1I_9debug_api15DebugApiBackendEENtCsgD0AgT6J0eh_15delegation_mock14DelegationMock10undelegates_0Cs25HLPETZpNm_4test
FNDA:7,_RNCNvYINtNtNtCsd0DXYhglbat_13multiversx_sc13contract_base22universal_contract_obj20UniversalContractObjINtNtNtNtCs2614o7AVePg_22multiversx_sc_scenario3api7impl_vh12vm_hooks_api10VMHooksApiNtNtB1I_9debug_api15DebugApiBackendEENtCsgD0AgT6J0eh_15delegation_mock14DelegationMock12deposit_egld0Cs25HLPETZpNm_4test
FNDA:25,_RNCNvYINtNtNtCsd0DXYhglbat_13multiversx_sc13contract_base22universal_contract_obj20UniversalContractObjINtNtNtNtCs2614o7AVePg_22multiversx_sc_scenario3api7impl_vh12vm_hooks_api10VMHooksApiNtNtB1I_9debug_api15DebugApiBackendEENtCsgD0AgT6J0eh_15delegation_mock14DelegationMock8delegate0Cs25HLPETZpNm_4test
FNDA:25,_RNCNvYINtNtNtCsd0DXYhglbat_13multiversx_sc13contract_base22universal_contract_obj20UniversalContractObjINtNtNtNtCs2614o7AVePg_22multiversx_sc_scenario3api7impl_vh12vm_hooks_api10VMHooksApiNtNtB1I_9debug_api15DebugApiBackendEENtCsgD0AgT6J0eh_15delegation_mock14DelegationMock8delegates_0Cs25HLPETZpNm_4test
FNDA:2,_RNCNvYINtNtNtCsd0DXYhglbat_13multiversx_sc13contract_base22universal_contract_obj20UniversalContractObjINtNtNtNtCs2614o7AVePg_22multiversx_sc_scenario3api7impl_vh12vm_hooks_api10VMHooksApiNtNtB1I_9debug_api15DebugApiBackendEENtCsgD0AgT6J0eh_15delegation_mock14DelegationMock8withdraw0Cs25HLPETZpNm_4test
FNDA:43,_RNvXs5_CsgD0AgT6J0eh_15delegation_mockINtB5_11ContractObjINtNtNtNtCs2614o7AVePg_22multiversx_sc_scenario3api7impl_vh12vm_hooks_api10VMHooksApiNtNtBY_9debug_api15DebugApiBackendEENtNtNtCsd0DXYhglbat_13multiversx_sc13contract_base17callable_contract16CallableContract4callCs25HLPETZpNm_4test
FNDA:908,_RNvXCsgD0AgT6J0eh_15delegation_mockINtNtNtCsd0DXYhglbat_13multiversx_sc13contract_base22universal_contract_obj20UniversalContractObjINtNtNtNtCs2614o7AVePg_22multiversx_sc_scenario3api7impl_vh12vm_hooks_api10VMHooksApiNtNtB2b_9debug_api15DebugApiBackendEENtB2_14DelegationMock15address_depositCsgub9DQDg2s9_15unDelegate_test
FNDA:1119,_RNvXCsgD0AgT6J0eh_15delegation_mockINtNtNtCsd0DXYhglbat_13multiversx_sc13contract_base22universal_contract_obj20UniversalContractObjINtNtNtNtCs2614o7AVePg_22multiversx_sc_scenario3api7impl_vh12vm_hooks_api10VMHooksApiNtNtB2b_9debug_api15DebugApiBackendEENtB2_14DelegationMock17egld_token_supplyCsgub9DQDg2s9_15unDelegate_test
FNDA:0,_RNvXCsgD0AgT6J0eh_15delegation_mockINtNtNtCsd0DXYhglbat_13multiversx_sc13contract_base22universal_contract_obj20UniversalContractObjINtNtNtNtCs2614o7AVePg_22multiversx_sc_scenario3api7impl_vh12vm_hooks_api10VMHooksApiNtNtB2b_9debug_api15DebugApiBackendEENtB2_14DelegationMock24address_last_claim_epochCsgub9DQDg2s9_15unDelegate_test
FNDA:89,_RNvXCsgD0AgT6J0eh_15delegation_mockINtNtNtCsd0DXYhglbat_13multiversx_sc13contract_base22universal_contract_obj20UniversalContractObjINtNtNtNtCs2614o7AVePg_22multiversx_sc_scenario3api7impl_vh12vm_hooks_api10VMHooksApiNtNtB2b_9debug_api15DebugApiBackendEENtB2_14DelegationMock24address_undelegate_epochCsgub9DQDg2s9_15unDelegate_test
FNDA:89,_RNvXCsgD0AgT6J0eh_15delegation_mockINtNtNtCsd0DXYhglbat_13multiversx_sc13contract_base22universal_contract_obj20UniversalContractObjINtNtNtNtCs2614o7AVePg_22multiversx_sc_scenario3api7impl_vh12vm_hooks_api10VMHooksApiNtNtB2b_9debug_api15DebugApiBackendEENtB2_14DelegationMock25address_undelegate_amountCsgub9DQDg2s9_15unDelegate_test
FNDA:89,_RNvYINtNtNtCsd0DXYhglbat_13multiversx_sc13contract_base22universal_contract_obj20UniversalContractObjINtNtNtNtCs2614o7AVePg_22multiversx_sc_scenario3api7impl_vh12vm_hooks_api10VMHooksApiNtNtB1G_9debug_api15DebugApiBackendEENtCsgD0AgT6J0eh_15delegation_mock14DelegationMock10undelegateCsgub9DQDg2s9_15unDelegate_test
FNDA:389,_RNvYINtNtNtCsd0DXYhglbat_13multiversx_sc13contract_base22universal_contract_obj20UniversalContractObjINtNtNtNtCs2614o7AVePg_22multiversx_sc_scenario3api7impl_vh12vm_hooks_api10VMHooksApiNtNtB1G_9debug_api15DebugApiBackendEENtCsgD0AgT6J0eh_15delegation_mock14DelegationMock12deposit_egldCsgub9DQDg2s9_15unDelegate_test
FNDA:0,_RNvYINtNtNtCsd0DXYhglbat_13multiversx_sc13contract_base22universal_contract_obj20UniversalContractObjINtNtNtNtCs2614o7AVePg_22multiversx_sc_scenario3api7impl_vh12vm_hooks_api10VMHooksApiNtNtB1G_9debug_api15DebugApiBackendEENtCsgD0AgT6J0eh_15delegation_mock14DelegationMock13claim_rewardsCsgub9DQDg2s9_15unDelegate_test
FNDA:730,_RNvYINtNtNtCsd0DXYhglbat_13multiversx_sc13contract_base22universal_contract_obj20UniversalContractObjINtNtNtNtCs2614o7AVePg_22multiversx_sc_scenario3api7impl_vh12vm_hooks_api10VMHooksApiNtNtB1G_9debug_api15DebugApiBackendEENtCsgD0AgT6J0eh_15delegation_mock14DelegationMock8delegateCsgub9DQDg2s9_15unDelegate_test
FNDA:0,_RNvYINtNtNtCsd0DXYhglbat_13multiversx_sc13contract_base22universal_contract_obj20UniversalContractObjINtNtNtNtCs2614o7AVePg_22multiversx_sc_scenario3api7impl_vh12vm_hooks_api10VMHooksApiNtNtB1G_9debug_api15DebugApiBackendEENtCsgD0AgT6J0eh_15delegation_mock14DelegationMock8withdrawCsgub9DQDg2s9_15unDelegate_test
FNDA:730,_RNvYINtNtNtCsd0DXYhglbat_13multiversx_sc13contract_base22universal_contract_obj20UniversalContractObjINtNtNtNtCs2614o7AVePg_22multiversx_sc_scenario3api7impl_vh12vm_hooks_api10VMHooksApiNtNtB1G_9debug_api15DebugApiBackendEENtCsgD0AgT6J0eh_15delegation_mock16EndpointWrappers13call_delegateCsgub9DQDg2s9_15unDelegate_test
FNDA:0,_RNvYINtNtNtCsd0DXYhglbat_13multiversx_sc13contract_base22universal_contract_obj20UniversalContractObjINtNtNtNtCs2614o7AVePg_22multiversx_sc_scenario3api7impl_vh12vm_hooks_api10VMHooksApiNtNtB1G_9debug_api15DebugApiBackendEENtCsgD0AgT6J0eh_15delegation_mock16EndpointWrappers13call_withdrawCsgub9DQDg2s9_15unDelegate_test
FNDA:89,_RNvYINtNtNtCsd0DXYhglbat_13multiversx_sc13contract_base22universal_contract_obj20UniversalContractObjINtNtNtNtCs2614o7AVePg_22multiversx_sc_scenario3api7impl_vh12vm_hooks_api10VMHooksApiNtNtB1G_9debug_api15DebugApiBackendEENtCsgD0AgT6J0eh_15delegation_mock16EndpointWrappers15call_undelegateCsgub9DQDg2s9_15unDelegate_test
FNDA:389,_RNvYINtNtNtCsd0DXYhglbat_13multiversx_sc13contract_base22universal_contract_obj20UniversalContractObjINtNtNtNtCs2614o7AVePg_22multiversx_sc_scenario3api7impl_vh12vm_hooks_api10VMHooksApiNtNtB1G_9debug_api15DebugApiBackendEENtCsgD0AgT6J0eh_15delegation_mock16EndpointWrappers17call_deposit_egldCsgub9DQDg2s9_15unDelegate_test
FNDA:0,_RNvYINtNtNtCsd0DXYhglbat_13multiversx_sc13contract_base22universal_contract_obj20UniversalContractObjINtNtNtNtCs2614o7AVePg_22multiversx_sc_scenario3api7impl_vh12vm_hooks_api10VMHooksApiNtNtB1G_9debug_api15DebugApiBackendEENtCsgD0AgT6J0eh_15delegation_mock16EndpointWrappers18call_claim_rewardsCsgub9DQDg2s9_15unDelegate_test
FNDA:1597,_RNvYINtNtNtCsd0DXYhglbat_13multiversx_sc13contract_base22universal_contract_obj20UniversalContractObjINtNtNtNtCs2614o7AVePg_22multiversx_sc_scenario3api7impl_vh12vm_hooks_api10VMHooksApiNtNtB1G_9debug_api15DebugApiBackendEENtCsgD0AgT6J0eh_15delegation_mock16EndpointWrappers4callCsgub9DQDg2s9_15unDelegate_test
FNDA:0,_RNvYINtNtNtCsd0DXYhglbat_13multiversx_sc13contract_base22universal_contract_obj20UniversalContractObjINtNtNtNtCs2614o7AVePg_22multiversx_sc_scenario3api7impl_vh12vm_hooks_api10VMHooksApiNtNtB1G_9debug_api15DebugApiBackendEENtCsgD0AgT6J0eh_15delegation_mock16EndpointWrappers8callbackCsgub9DQDg2s9_15unDelegate_test
FNDA:389,_RNvYINtNtNtCsd0DXYhglbat_13multiversx_sc13contract_base22universal_contract_obj20UniversalContractObjINtNtNtNtCs2614o7AVePg_22multiversx_sc_scenario3api7impl_vh12vm_hooks_api10VMHooksApiNtNtB1G_9debug_api15DebugApiBackendEENtCsgD0AgT6J0eh_15delegation_mock16EndpointWrappers9call_initCsgub9DQDg2s9_15unDelegate_test
FNDA:19,_RINvCsgD0AgT6J0eh_15delegation_mock12contract_objINtNtNtNtCs2614o7AVePg_22multiversx_sc_scenario3api7impl_vh12vm_hooks_api10VMHooksApiNtNtBQ_9debug_api15DebugApiBackendEECsgub9DQDg2s9_15unDelegate_test
FNDA:19,_RINvXs6_CsgD0AgT6J0eh_15delegation_mockNtB6_15ContractBuilderNtNtNtCsd0DXYhglbat_13multiversx_sc13contract_base17callable_contract23CallableContractBuilder16new_contract_objINtNtNtNtCs2614o7AVePg_22multiversx_sc_scenario3api7impl_vh12vm_hooks_api10VMHooksApiNtNtB2Q_9debug_api15DebugApiBackendEECsgub9DQDg2s9_15unDelegate_test
FNDA:89,_RNCNvYINtNtNtCsd0DXYhglbat_13multiversx_sc13contract_base22universal_contract_obj20UniversalContractObjINtNtNtNtCs2614o7AVePg_22multiversx_sc_scenario3api7impl_vh12vm_hooks_api10VMHooksApiNtNtB1I_9debug_api15DebugApiBackendEENtCsgD0AgT6J0eh_15delegation_mock14DelegationMock10undelegate0Csgub9DQDg2s9_15unDelegate_test
FNDA:89,_RNCNvYINtNtNtCsd0DXYhglbat_13multiversx_sc13contract_base22universal_contract_obj20UniversalContractObjINtNtNtNtCs2614o7AVePg_22multiversx_sc_scenario3api7impl_vh12vm_hooks_api10VMHooksApiNtNtB1I_9debug_api15DebugApiBackendEENtCsgD0AgT6J0eh_15delegation_mock14DelegationMock10undelegates_0Csgub9DQDg2s9_15unDelegate_test
FNDA:389,_RNCNvYINtNtNtCsd0DXYhglbat_13multiversx_sc13contract_base22universal_contract_obj20UniversalContractObjINtNtNtNtCs2614o7AVePg_22multiversx_sc_scenario3api7impl_vh12vm_hooks_api10VMHooksApiNtNtB1I_9debug_api15DebugApiBackendEENtCsgD0AgT6J0eh_15delegation_mock14DelegationMock12deposit_egld0Csgub9DQDg2s9_15unDelegate_test
FNDA:730,_RNCNvYINtNtNtCsd0DXYhglbat_13multiversx_sc13contract_base22universal_contract_obj20UniversalContractObjINtNtNtNtCs2614o7AVePg_22multiversx_sc_scenario3api7impl_vh12vm_hooks_api10VMHooksApiNtNtB1I_9debug_api15DebugApiBackendEENtCsgD0AgT6J0eh_15delegation_mock14DelegationMock8delegate0Csgub9DQDg2s9_15unDelegate_test
FNDA:730,_RNCNvYINtNtNtCsd0DXYhglbat_13multiversx_sc13contract_base22universal_contract_obj20UniversalContractObjINtNtNtNtCs2614o7AVePg_22multiversx_sc_scenario3api7impl_vh12vm_hooks_api10VMHooksApiNtNtB1I_9debug_api15DebugApiBackendEENtCsgD0AgT6J0eh_15delegation_mock14DelegationMock8delegates_0Csgub9DQDg2s9_15unDelegate_test
FNDA:0,_RNCNvYINtNtNtCsd0DXYhglbat_13multiversx_sc13contract_base22universal_contract_obj20UniversalContractObjINtNtNtNtCs2614o7AVePg_22multiversx_sc_scenario3api7impl_vh12vm_hooks_api10VMHooksApiNtNtB1I_9debug_api15DebugApiBackendEENtCsgD0AgT6J0eh_15delegation_mock14DelegationMock8withdraw0Csgub9DQDg2s9_15unDelegate_test
FNDA:1597,_RNvXs5_CsgD0AgT6J0eh_15delegation_mockINtB5_11ContractObjINtNtNtNtCs2614o7AVePg_22multiversx_sc_scenario3api7impl_vh12vm_hooks_api10VMHooksApiNtNtBY_9debug_api15DebugApiBackendEENtNtNtCsd0DXYhglbat_13multiversx_sc13contract_base17callable_contract16CallableContract4callCsgub9DQDg2s9_15unDelegate_test
FNDA:7,_RINvCsgD0AgT6J0eh_15delegation_mock12contract_objINtNtNtNtCs2614o7AVePg_22multiversx_sc_scenario3api7impl_vh12vm_hooks_api10VMHooksApiNtNtBQ_9debug_api15DebugApiBackendEECscNyXpV1vtNq_11unbond_test
FNDA:7,_RINvXs6_CsgD0AgT6J0eh_15delegation_mockNtB6_15ContractBuilderNtNtNtCsd0DXYhglbat_13multiversx_sc13contract_base17callable_contract23CallableContractBuilder16new_contract_objINtNtNtNtCs2614o7AVePg_22multiversx_sc_scenario3api7impl_vh12vm_hooks_api10VMHooksApiNtNtB2Q_9debug_api15DebugApiBackendEECscNyXpV1vtNq_11unbond_test
FNDA:7,_RNCNvYINtNtNtCsd0DXYhglbat_13multiversx_sc13contract_base22universal_contract_obj20UniversalContractObjINtNtNtNtCs2614o7AVePg_22multiversx_sc_scenario3api7impl_vh12vm_hooks_api10VMHooksApiNtNtB1I_9debug_api15DebugApiBackendEENtCsgD0AgT6J0eh_15delegation_mock14DelegationMock10undelegate0CscNyXpV1vtNq_11unbond_test
FNDA:7,_RNCNvYINtNtNtCsd0DXYhglbat_13multiversx_sc13contract_base22universal_contract_obj20UniversalContractObjINtNtNtNtCs2614o7AVePg_22multiversx_sc_scenario3api7impl_vh12vm_hooks_api10VMHooksApiNtNtB1I_9debug_api15DebugApiBackendEENtCsgD0AgT6J0eh_15delegation_mock14DelegationMock10undelegates_0CscNyXpV1vtNq_11unbond_test
FNDA:7,_RNCNvYINtNtNtCsd0DXYhglbat_13multiversx_sc13contract_base22universal_contract_obj20UniversalContractObjINtNtNtNtCs2614o7AVePg_22multiversx_sc_scenario3api7impl_vh12vm_hooks_api10VMHooksApiNtNtB1I_9debug_api15DebugApiBackendEENtCsgD0AgT6J0eh_15delegation_mock14DelegationMock12deposit_egld0CscNyXpV1vtNq_11unbond_test
FNDA:14,_RNCNvYINtNtNtCsd0DXYhglbat_13multiversx_sc13contract_base22universal_contract_obj20UniversalContractObjINtNtNtNtCs2614o7AVePg_22multiversx_sc_scenario3api7impl_vh12vm_hooks_api10VMHooksApiNtNtB1I_9debug_api15DebugApiBackendEENtCsgD0AgT6J0eh_15delegation_mock14DelegationMock8delegate0CscNyXpV1vtNq_11unbond_test
FNDA:14,_RNCNvYINtNtNtCsd0DXYhglbat_13multiversx_sc13contract_base22universal_contract_obj20UniversalContractObjINtNtNtNtCs2614o7AVePg_22multiversx_sc_scenario3api7impl_vh12vm_hooks_api10VMHooksApiNtNtB1I_9debug_api15DebugApiBackendEENtCsgD0AgT6J0eh_15delegation_mock14DelegationMock8delegates_0CscNyXpV1vtNq_11unbond_test
FNDA:5,_RNCNvYINtNtNtCsd0DXYhglbat_13multiversx_sc13contract_base22universal_contract_obj20UniversalContractObjINtNtNtNtCs2614o7AVePg_22multiversx_sc_scenario3api7impl_vh12vm_hooks_api10VMHooksApiNtNtB1I_9debug_api15DebugApiBackendEENtCsgD0AgT6J0eh_15delegation_mock14DelegationMock8withdraw0CscNyXpV1vtNq_11unbond_test
FNDA:41,_RNvXs5_CsgD0AgT6J0eh_15delegation_mockINtB5_11ContractObjINtNtNtNtCs2614o7AVePg_22multiversx_sc_scenario3api7impl_vh12vm_hooks_api10VMHooksApiNtNtBY_9debug_api15DebugApiBackendEENtNtNtCsd0DXYhglbat_13multiversx_sc13contract_base17callable_contract16CallableContract4callCscNyXpV1vtNq_11unbond_test
FNDA:28,_RNvXCsgD0AgT6J0eh_15delegation_mockINtNtNtCsd0DXYhglbat_13multiversx_sc13contract_base22universal_contract_obj20UniversalContractObjINtNtNtNtCs2614o7AVePg_22multiversx_sc_scenario3api7impl_vh12vm_hooks_api10VMHooksApiNtNtB2b_9debug_api15DebugApiBackendEENtB2_14DelegationMock15address_depositCscNyXpV1vtNq_11unbond_test
FNDA:26,_RNvXCsgD0AgT6J0eh_15delegation_mockINtNtNtCsd0DXYhglbat_13multiversx_sc13contract_base22universal_contract_obj20UniversalContractObjINtNtNtNtCs2614o7AVePg_22multiversx_sc_scenario3api7impl_vh12vm_hooks_api10VMHooksApiNtNtB2b_9debug_api15DebugApiBackendEENtB2_14DelegationMock17egld_token_supplyCscNyXpV1vtNq_11unbond_test
FNDA:0,_RNvXCsgD0AgT6J0eh_15delegation_mockINtNtNtCsd0DXYhglbat_13multiversx_sc13contract_base22universal_contract_obj20UniversalContractObjINtNtNtNtCs2614o7AVePg_22multiversx_sc_scenario3api7impl_vh12vm_hooks_api10VMHooksApiNtNtB2b_9debug_api15DebugApiBackendEENtB2_14DelegationMock24address_last_claim_epochCscNyXpV1vtNq_11unbond_test
FNDA:18,_RNvXCsgD0AgT6J0eh_15delegation_mockINtNtNtCsd0DXYhglbat_13multiversx_sc13contract_base22universal_contract_obj20UniversalContractObjINtNtNtNtCs2614o7AVePg_22multiversx_sc_scenario3api7impl_vh12vm_hooks_api10VMHooksApiNtNtB2b_9debug_api15DebugApiBackendEENtB2_14DelegationMock24address_undelegate_epochCscNyXpV1vtNq_11unbond_test
FNDA:18,_RNvXCsgD0AgT6J0eh_15delegation_mockINtNtNtCsd0DXYhglbat_13multiversx_sc13contract_base22universal_contract_obj20UniversalContractObjINtNtNtNtCs2614o7AVePg_22multiversx_sc_scenario3api7impl_vh12vm_hooks_api10VMHooksApiNtNtB2b_9debug_api15DebugApiBackendEENtB2_14DelegationMock25address_undelegate_amountCscNyXpV1vtNq_11unbond_test
FNDA:7,_RNvYINtNtNtCsd0DXYhglbat_13multiversx_sc13contract_base22universal_contract_obj20UniversalContractObjINtNtNtNtCs2614o7AVePg_22multiversx_sc_scenario3api7impl_vh12vm_hooks_api10VMHooksApiNtNtB1G_9debug_api15DebugApiBackendEENtCsgD0AgT6J0eh_15delegation_mock14DelegationMock10undelegateCscNyXpV1vtNq_11unbond_test
FNDA:7,_RNvYINtNtNtCsd0DXYhglbat_13multiversx_sc13contract_base22universal_contract_obj20UniversalContractObjINtNtNtNtCs2614o7AVePg_22multiversx_sc_scenario3api7impl_vh12vm_hooks_api10VMHooksApiNtNtB1G_9debug_api15DebugApiBackendEENtCsgD0AgT6J0eh_15delegation_mock14DelegationMock12deposit_egldCscNyXpV1vtNq_11unbond_test
FNDA:0,_RNvYINtNtNtCsd0DXYhglbat_13multiversx_sc13contract_base22universal_contract_obj20UniversalContractObjINtNtNtNtCs2614o7AVePg_22multiversx_sc_scenario3api7impl_vh12vm_hooks_api10VMHooksApiNtNtB1G_9debug_api15DebugApiBackendEENtCsgD0AgT6J0eh_15delegation_mock14DelegationMock13claim_rewardsCscNyXpV1vtNq_11unbond_test
FNDA:14,_RNvYINtNtNtCsd0DXYhglbat_13multiversx_sc13contract_base22universal_contract_obj20UniversalContractObjINtNtNtNtCs2614o7AVePg_22multiversx_sc_scenario3api7impl_vh12vm_hooks_api10VMHooksApiNtNtB1G_9debug_api15DebugApiBackendEENtCsgD0AgT6J0eh_15delegation_mock14DelegationMock8delegateCscNyXpV1vtNq_11unbond_test
FNDA:6,_RNvYINtNtNtCsd0DXYhglbat_13multiversx_sc13contract_base22universal_contract_obj20UniversalContractObjINtNtNtNtCs2614o7AVePg_22multiversx_sc_scenario3api7impl_vh12vm_hooks_api10VMHooksApiNtNtB1G_9debug_api15DebugApiBackendEENtCsgD0AgT6J0eh_15delegation_mock14DelegationMock8withdrawCscNyXpV1vtNq_11unbond_test
FNDA:14,_RNvYINtNtNtCsd0DXYhglbat_13multiversx_sc13contract_base22universal_contract_obj20UniversalContractObjINtNtNtNtCs2614o7AVePg_22multiversx_sc_scenario3api7impl_vh12vm_hooks_api10VMHooksApiNtNtB1G_9debug_api15DebugApiBackendEENtCsgD0AgT6J0eh_15delegation_mock16EndpointWrappers13call_delegateCscNyXpV1vtNq_11unbond_test
FNDA:6,_RNvYINtNtNtCsd0DXYhglbat_13multiversx_sc13contract_base22universal_contract_obj20UniversalContractObjINtNtNtNtCs2614o7AVePg_22multiversx_sc_scenario3api7impl_vh12vm_hooks_api10VMHooksApiNtNtB1G_9debug_api15DebugApiBackendEENtCsgD0AgT6J0eh_15delegation_mock16EndpointWrappers13call_withdrawCscNyXpV1vtNq_11unbond_test
FNDA:7,_RNvYINtNtNtCsd0DXYhglbat_13multiversx_sc13contract_base22universal_contract_obj20UniversalContractObjINtNtNtNtCs2614o7AVePg_22multiversx_sc_scenario3api7impl_vh12vm_hooks_api10VMHooksApiNtNtB1G_9debug_api15DebugApiBackendEENtCsgD0AgT6J0eh_15delegation_mock16EndpointWrappers15call_undelegateCscNyXpV1vtNq_11unbond_test
FNDA:7,_RNvYINtNtNtCsd0DXYhglbat_13multiversx_sc13contract_base22universal_contract_obj20UniversalContractObjINtNtNtNtCs2614o7AVePg_22multiversx_sc_scenario3api7impl_vh12vm_hooks_api10VMHooksApiNtNtB1G_9debug_api15DebugApiBackendEENtCsgD0AgT6J0eh_15delegation_mock16EndpointWrappers17call_deposit_egldCscNyXpV1vtNq_11unbond_test
FNDA:0,_RNvYINtNtNtCsd0DXYhglbat_13multiversx_sc13contract_base22universal_contract_obj20UniversalContractObjINtNtNtNtCs2614o7AVePg_22multiversx_sc_scenario3api7impl_vh12vm_hooks_api10VMHooksApiNtNtB1G_9debug_api15DebugApiBackendEENtCsgD0AgT6J0eh_15delegation_mock16EndpointWrappers18call_claim_rewardsCscNyXpV1vtNq_11unbond_test
FNDA:41,_RNvYINtNtNtCsd0DXYhglbat_13multiversx_sc13contract_base22universal_contract_obj20UniversalContractObjINtNtNtNtCs2614o7AVePg_22multiversx_sc_scenario3api7impl_vh12vm_hooks_api10VMHooksApiNtNtB1G_9debug_api15DebugApiBackendEENtCsgD0AgT6J0eh_15delegation_mock16EndpointWrappers4callCscNyXpV1vtNq_11unbond_test
FNDA:0,_RNvYINtNtNtCsd0DXYhglbat_13multiversx_sc13contract_base22universal_contract_obj20UniversalContractObjINtNtNtNtCs2614o7AVePg_22multiversx_sc_scenario3api7impl_vh12vm_hooks_api10VMHooksApiNtNtB1G_9debug_api15DebugApiBackendEENtCsgD0AgT6J0eh_15delegation_mock16EndpointWrappers8callbackCscNyXpV1vtNq_11unbond_test
FNDA:7,_RNvYINtNtNtCsd0DXYhglbat_13multiversx_sc13contract_base22universal_contract_obj20UniversalContractObjINtNtNtNtCs2614o7AVePg_22multiversx_sc_scenario3api7impl_vh12vm_hooks_api10VMHooksApiNtNtB1G_9debug_api15DebugApiBackendEENtCsgD0AgT6J0eh_15delegation_mock16EndpointWrappers9call_initCscNyXpV1vtNq_11unbond_test
FNF:12
FNH:11
DA:11,2156
DA:19,419
DA:20,419
DA:21,419
DA:22,419
DA:27,793
DA:28,793
DA:29,793
DA:30,793
DA:31,793
DA:32,793
DA:36,98
DA:37,98
DA:38,98
DA:39,98
DA:40,98
DA:43,98
DA:44,98
DA:45,98
DA:46,98
DA:47,98
DA:48,98
DA:52,8
DA:53,8
DA:54,8
DA:55,8
DA:56,8
DA:57,8
DA:58,8
DA:59,8
DA:60,8
DA:64,7
DA:65,7
DA:66,7
DA:67,7
DA:68,7
DA:72,0
DA:73,0
DA:74,0
DA:75,0
DA:76,0
DA:77,0
DA:78,0
DA:79,0
DA:80,0
DA:81,0
DA:82,0
DA:83,0
DA:84,0
DA:85,0
DA:86,0
DA:87,0
DA:88,0
DA:89,0
DA:90,0
DA:92,0
BRF:0
BRH:0
LF:62
LH:42
end_of_record
SF:/Users/mihaieremia/GitHub/rs-egld-liquid-staking/liquid-staking/meta/src/main.rs
FN:1,_RNvCs7I5Hz3AhVrM_18liquid_staking_abi4main
FNDA:0,_RNvCs7I5Hz3AhVrM_18liquid_staking_abi4main
FNF:1
FNH:0
DA:1,0
DA:2,0
DA:3,0
BRF:0
BRH:0
LF:3
LH:0
end_of_record
SF:/Users/mihaieremia/GitHub/rs-egld-liquid-staking/liquid-staking/src/callback.rs
FN:55,_RNCNvYINtNtNtCsd0DXYhglbat_13multiversx_sc13contract_base22universal_contract_obj20UniversalContractObjINtNtNtNtCs2614o7AVePg_22multiversx_sc_scenario3api7impl_vh12vm_hooks_api10VMHooksApiNtNtB1I_9debug_api15DebugApiBackendEENtNtCs141FUTAEp3L_14liquid_staking8callback14CallbackModule22add_liquidity_callback0Csbv7vZMOU1ip_13delegate_test
FN:63,_RNCNvYINtNtNtCsd0DXYhglbat_13multiversx_sc13contract_base22universal_contract_obj20UniversalContractObjINtNtNtNtCs2614o7AVePg_22multiversx_sc_scenario3api7impl_vh12vm_hooks_api10VMHooksApiNtNtB1I_9debug_api15DebugApiBackendEENtNtCs141FUTAEp3L_14liquid_staking8callback14CallbackModule22add_liquidity_callbacks_0Csbv7vZMOU1ip_13delegate_test
FN:82,_RNCNvYINtNtNtCsd0DXYhglbat_13multiversx_sc13contract_base22universal_contract_obj20UniversalContractObjINtNtNtNtCs2614o7AVePg_22multiversx_sc_scenario3api7impl_vh12vm_hooks_api10VMHooksApiNtNtB1I_9debug_api15DebugApiBackendEENtNtCs141FUTAEp3L_14liquid_staking8callback14CallbackModule24withdraw_tokens_callback0Csbv7vZMOU1ip_13delegate_test
FN:27,_RNCNvYINtNtNtCsd0DXYhglbat_13multiversx_sc13contract_base22universal_contract_obj20UniversalContractObjINtNtNtNtCs2614o7AVePg_22multiversx_sc_scenario3api7impl_vh12vm_hooks_api10VMHooksApiNtNtB1I_9debug_api15DebugApiBackendEENtNtCs141FUTAEp3L_14liquid_staking8callback14CallbackModule25remove_liquidity_callback0Csbv7vZMOU1ip_13delegate_test
FN:36,_RNCNvYINtNtNtCsd0DXYhglbat_13multiversx_sc13contract_base22universal_contract_obj20UniversalContractObjINtNtNtNtCs2614o7AVePg_22multiversx_sc_scenario3api7impl_vh12vm_hooks_api10VMHooksApiNtNtB1I_9debug_api15DebugApiBackendEENtNtCs141FUTAEp3L_14liquid_staking8callback14CallbackModule25remove_liquidity_callbacks_0Csbv7vZMOU1ip_13delegate_test
FN:142,_RNCNvYINtNtNtCsd0DXYhglbat_13multiversx_sc13contract_base22universal_contract_obj20UniversalContractObjINtNtNtNtCs2614o7AVePg_22multiversx_sc_scenario3api7impl_vh12vm_hooks_api10VMHooksApiNtNtB1I_9debug_api15DebugApiBackendEENtNtCs141FUTAEp3L_14liquid_staking8callback14CallbackModule36instant_delegation_contract_callback0Csbv7vZMOU1ip_13delegate_test
FN:4,_RNvXsn_NtCs141FUTAEp3L_14liquid_staking8callbackINtB5_16CallbackProxyObjINtNtNtNtCs2614o7AVePg_22multiversx_sc_scenario3api7impl_vh12vm_hooks_api10VMHooksApiNtNtB1d_9debug_api15DebugApiBackendEENtNtNtCsd0DXYhglbat_13multiversx_sc13contract_base23proxy_obj_callback_base20CallbackProxyObjBase16new_cb_proxy_objCsbv7vZMOU1ip_13delegate_test
FN:4,_RNvYINtNtCs141FUTAEp3L_14liquid_staking8callback16CallbackProxyObjINtNtNtNtCs2614o7AVePg_22multiversx_sc_scenario3api7impl_vh12vm_hooks_api10VMHooksApiNtNtB17_9debug_api15DebugApiBackendEENtB5_13CallbackProxy22add_liquidity_callbackCsbv7vZMOU1ip_13delegate_test
FN:4,_RNvYINtNtCs141FUTAEp3L_14liquid_staking8callback16CallbackProxyObjINtNtNtNtCs2614o7AVePg_22multiversx_sc_scenario3api7impl_vh12vm_hooks_api10VMHooksApiNtNtB17_9debug_api15DebugApiBackendEENtB5_13CallbackProxy22claim_rewards_callbackCsbv7vZMOU1ip_13delegate_test
FN:4,_RNvYINtNtCs141FUTAEp3L_14liquid_staking8callback16CallbackProxyObjINtNtNtNtCs2614o7AVePg_22multiversx_sc_scenario3api7impl_vh12vm_hooks_api10VMHooksApiNtNtB17_9debug_api15DebugApiBackendEENtB5_13CallbackProxy24withdraw_tokens_callbackCsbv7vZMOU1ip_13delegate_test
FN:4,_RNvYINtNtCs141FUTAEp3L_14liquid_staking8callback16CallbackProxyObjINtNtNtNtCs2614o7AVePg_22multiversx_sc_scenario3api7impl_vh12vm_hooks_api10VMHooksApiNtNtB17_9debug_api15DebugApiBackendEENtB5_13CallbackProxy25remove_liquidity_callbackCsbv7vZMOU1ip_13delegate_test
FN:4,_RNvYINtNtCs141FUTAEp3L_14liquid_staking8callback16CallbackProxyObjINtNtNtNtCs2614o7AVePg_22multiversx_sc_scenario3api7impl_vh12vm_hooks_api10VMHooksApiNtNtB17_9debug_api15DebugApiBackendEENtB5_13CallbackProxy36instant_delegation_contract_callbackCsbv7vZMOU1ip_13delegate_test
FN:4,_RNvYINtNtCs141FUTAEp3L_14liquid_staking8callback16CallbackProxyObjINtNtNtNtCs2614o7AVePg_22multiversx_sc_scenario3api7impl_vh12vm_hooks_api10VMHooksApiNtNtB17_9debug_api15DebugApiBackendEENtB5_13CallbackProxy38whitelist_delegation_contract_callbackCsbv7vZMOU1ip_13delegate_test
FN:4,_RNvXNtCs141FUTAEp3L_14liquid_staking8callbackINtNtNtCsd0DXYhglbat_13multiversx_sc13contract_base22universal_contract_obj20UniversalContractObjINtNtNtNtCs2614o7AVePg_22multiversx_sc_scenario3api7impl_vh12vm_hooks_api10VMHooksApiNtNtB2l_9debug_api15DebugApiBackendEENtB2_14CallbackModule9callbacksCsbv7vZMOU1ip_13delegate_test
FN:50,_RNvYINtNtNtCsd0DXYhglbat_13multiversx_sc13contract_base22universal_contract_obj20UniversalContractObjINtNtNtNtCs2614o7AVePg_22multiversx_sc_scenario3api7impl_vh12vm_hooks_api10VMHooksApiNtNtB1G_9debug_api15DebugApiBackendEENtNtCs141FUTAEp3L_14liquid_staking8callback14CallbackModule22add_liquidity_callbackCsbv7vZMOU1ip_13delegate_test
FN:90,_RNvYINtNtNtCsd0DXYhglbat_13multiversx_sc13contract_base22universal_contract_obj20UniversalContractObjINtNtNtNtCs2614o7AVePg_22multiversx_sc_scenario3api7impl_vh12vm_hooks_api10VMHooksApiNtNtB1G_9debug_api15DebugApiBackendEENtNtCs141FUTAEp3L_14liquid_staking8callback14CallbackModule22claim_rewards_callbackCsbv7vZMOU1ip_13delegate_test
FN:73,_RNvYINtNtNtCsd0DXYhglbat_13multiversx_sc13contract_base22universal_contract_obj20UniversalContractObjINtNtNtNtCs2614o7AVePg_22multiversx_sc_scenario3api7impl_vh12vm_hooks_api10VMHooksApiNtNtB1G_9debug_api15DebugApiBackendEENtNtCs141FUTAEp3L_14liquid_staking8callback14CallbackModule24withdraw_tokens_callbackCsbv7vZMOU1ip_13delegate_test
FN:21,_RNvYINtNtNtCsd0DXYhglbat_13multiversx_sc13contract_base22universal_contract_obj20UniversalContractObjINtNtNtNtCs2614o7AVePg_22multiversx_sc_scenario3api7impl_vh12vm_hooks_api10VMHooksApiNtNtB1G_9debug_api15DebugApiBackendEENtNtCs141FUTAEp3L_14liquid_staking8callback14CallbackModule25remove_liquidity_callbackCsbv7vZMOU1ip_13delegate_test
FN:137,_RNvYINtNtNtCsd0DXYhglbat_13multiversx_sc13contract_base22universal_contract_obj20UniversalContractObjINtNtNtNtCs2614o7AVePg_22multiversx_sc_scenario3api7impl_vh12vm_hooks_api10VMHooksApiNtNtB1G_9debug_api15DebugApiBackendEENtNtCs141FUTAEp3L_14liquid_staking8callback14CallbackModule36instant_delegation_contract_callbackCsbv7vZMOU1ip_13delegate_test
FN:117,_RNvYINtNtNtCsd0DXYhglbat_13multiversx_sc13contract_base22universal_contract_obj20UniversalContractObjINtNtNtNtCs2614o7AVePg_22multiversx_sc_scenario3api7impl_vh12vm_hooks_api10VMHooksApiNtNtB1G_9debug_api15DebugApiBackendEENtNtCs141FUTAEp3L_14liquid_staking8callback14CallbackModule38whitelist_delegation_contract_callbackCsbv7vZMOU1ip_13delegate_test
FN:4,_RNvYINtNtNtCsd0DXYhglbat_13multiversx_sc13contract_base22universal_contract_obj20UniversalContractObjINtNtNtNtCs2614o7AVePg_22multiversx_sc_scenario3api7impl_vh12vm_hooks_api10VMHooksApiNtNtB1G_9debug_api15DebugApiBackendEENtNtCs141FUTAEp3L_14liquid_staking8callback16EndpointWrappers17callback_selectorCsbv7vZMOU1ip_13delegate_test
FN:4,_RNvYINtNtNtCsd0DXYhglbat_13multiversx_sc13contract_base22universal_contract_obj20UniversalContractObjINtNtNtNtCs2614o7AVePg_22multiversx_sc_scenario3api7impl_vh12vm_hooks_api10VMHooksApiNtNtB1G_9debug_api15DebugApiBackendEENtNtCs141FUTAEp3L_14liquid_staking8callback16EndpointWrappers27call_add_liquidity_callbackCsbv7vZMOU1ip_13delegate_test
FN:4,_RNvYINtNtNtCsd0DXYhglbat_13multiversx_sc13contract_base22universal_contract_obj20UniversalContractObjINtNtNtNtCs2614o7AVePg_22multiversx_sc_scenario3api7impl_vh12vm_hooks_api10VMHooksApiNtNtB1G_9debug_api15DebugApiBackendEENtNtCs141FUTAEp3L_14liquid_staking8callback16EndpointWrappers27call_claim_rewards_callbackCsbv7vZMOU1ip_13delegate_test
FN:4,_RNvYINtNtNtCsd0DXYhglbat_13multiversx_sc13contract_base22universal_contract_obj20UniversalContractObjINtNtNtNtCs2614o7AVePg_22multiversx_sc_scenario3api7impl_vh12vm_hooks_api10VMHooksApiNtNtB1G_9debug_api15DebugApiBackendEENtNtCs141FUTAEp3L_14liquid_staking8callback16EndpointWrappers29call_withdraw_tokens_callbackCsbv7vZMOU1ip_13delegate_test
FN:4,_RNvYINtNtNtCsd0DXYhglbat_13multiversx_sc13contract_base22universal_contract_obj20UniversalContractObjINtNtNtNtCs2614o7AVePg_22multiversx_sc_scenario3api7impl_vh12vm_hooks_api10VMHooksApiNtNtB1G_9debug_api15DebugApiBackendEENtNtCs141FUTAEp3L_14liquid_staking8callback16EndpointWrappers30call_remove_liquidity_callbackCsbv7vZMOU1ip_13delegate_test
FN:4,_RNvYINtNtNtCsd0DXYhglbat_13multiversx_sc13contract_base22universal_contract_obj20UniversalContractObjINtNtNtNtCs2614o7AVePg_22multiversx_sc_scenario3api7impl_vh12vm_hooks_api10VMHooksApiNtNtB1G_9debug_api15DebugApiBackendEENtNtCs141FUTAEp3L_14liquid_staking8callback16EndpointWrappers41call_instant_delegation_contract_callbackCsbv7vZMOU1ip_13delegate_test
FN:4,_RNvYINtNtNtCsd0DXYhglbat_13multiversx_sc13contract_base22universal_contract_obj20UniversalContractObjINtNtNtNtCs2614o7AVePg_22multiversx_sc_scenario3api7impl_vh12vm_hooks_api10VMHooksApiNtNtB1G_9debug_api15DebugApiBackendEENtNtCs141FUTAEp3L_14liquid_staking8callback16EndpointWrappers43call_whitelist_delegation_contract_callbackCsbv7vZMOU1ip_13delegate_test
FN:4,_RNvYINtNtNtCsd0DXYhglbat_13multiversx_sc13contract_base22universal_contract_obj20UniversalContractObjINtNtNtNtCs2614o7AVePg_22multiversx_sc_scenario3api7impl_vh12vm_hooks_api10VMHooksApiNtNtB1G_9debug_api15DebugApiBackendEENtNtCs141FUTAEp3L_14liquid_staking8callback16EndpointWrappers4callCsbv7vZMOU1ip_13delegate_test
FN:4,_RNvYINtNtNtCsd0DXYhglbat_13multiversx_sc13contract_base22universal_contract_obj20UniversalContractObjINtNtNtNtCs2614o7AVePg_22multiversx_sc_scenario3api7impl_vh12vm_hooks_api10VMHooksApiNtNtB1G_9debug_api15DebugApiBackendEENtNtCs141FUTAEp3L_14liquid_staking8callback16EndpointWrappers8callbackCsbv7vZMOU1ip_13delegate_test
FN:21,_RNvYpNtNtCs2edAa8LGkSL_14liquid_staking8callback14CallbackModule25remove_liquidity_callbackB7_
FN:27,_RNCNvYpNtNtCs2edAa8LGkSL_14liquid_staking8callback14CallbackModule25remove_liquidity_callback0B9_
FN:36,_RNCNvYpNtNtCs2edAa8LGkSL_14liquid_staking8callback14CallbackModule25remove_liquidity_callbacks_0B9_
FN:50,_RNvYpNtNtCs2edAa8LGkSL_14liquid_staking8callback14CallbackModule22add_liquidity_callbackB7_
FN:55,_RNCNvYpNtNtCs2edAa8LGkSL_14liquid_staking8callback14CallbackModule22add_liquidity_callback0B9_
FN:63,_RNCNvYpNtNtCs2edAa8LGkSL_14liquid_staking8callback14CallbackModule22add_liquidity_callbacks_0B9_
FN:73,_RNvYpNtNtCs2edAa8LGkSL_14liquid_staking8callback14CallbackModule24withdraw_tokens_callbackB7_
FN:82,_RNCNvYpNtNtCs2edAa8LGkSL_14liquid_staking8callback14CallbackModule24withdraw_tokens_callback0B9_
FN:90,_RNvYpNtNtCs2edAa8LGkSL_14liquid_staking8callback14CallbackModule22claim_rewards_callbackB7_
FN:117,_RNvYpNtNtCs2edAa8LGkSL_14liquid_staking8callback14CallbackModule38whitelist_delegation_contract_callbackB7_
FN:137,_RNvYpNtNtCs2edAa8LGkSL_14liquid_staking8callback14CallbackModule36instant_delegation_contract_callbackB7_
FN:142,_RNCNvYpNtNtCs2edAa8LGkSL_14liquid_staking8callback14CallbackModule36instant_delegation_contract_callback0B9_
FN:4,_RNvXININtCs2edAa8LGkSL_14liquid_staking8callback0pEpNtB5_14CallbackModule9callbacksB7_
FN:4,_RNvYpNtNtCs2edAa8LGkSL_14liquid_staking8callback16EndpointWrappers30call_remove_liquidity_callbackB7_
FN:4,_RNvYpNtNtCs2edAa8LGkSL_14liquid_staking8callback16EndpointWrappers27call_add_liquidity_callbackB7_
FN:4,_RNvYpNtNtCs2edAa8LGkSL_14liquid_staking8callback16EndpointWrappers29call_withdraw_tokens_callbackB7_
FN:4,_RNvYpNtNtCs2edAa8LGkSL_14liquid_staking8callback16EndpointWrappers27call_claim_rewards_callbackB7_
FN:4,_RNvYpNtNtCs2edAa8LGkSL_14liquid_staking8callback16EndpointWrappers43call_whitelist_delegation_contract_callbackB7_
FN:4,_RNvYpNtNtCs2edAa8LGkSL_14liquid_staking8callback16EndpointWrappers41call_instant_delegation_contract_callbackB7_
FN:4,_RNvYpNtNtCs2edAa8LGkSL_14liquid_staking8callback16EndpointWrappers4callB7_
FN:4,_RNvYpNtNtCs2edAa8LGkSL_14liquid_staking8callback16EndpointWrappers17callback_selectorB7_
FN:4,_RNvYpNtNtCs2edAa8LGkSL_14liquid_staking8callback16EndpointWrappers8callbackB7_
FN:4,_RNvXs1_NtCs2edAa8LGkSL_14liquid_staking8callbackNtB5_11AbiProviderNtNtNtCsd0DXYhglbat_13multiversx_sc13contract_base21contract_abi_provider19ContractAbiProvider3abi
FN:4,_RNvXININtCs2edAa8LGkSL_14liquid_staking8callbacksl_0pEINtB5_11ContractObjpENtNtNtCsd0DXYhglbat_13multiversx_sc13contract_base17callable_contract16CallableContract4callB7_
FN:4,_RINvNtCs2edAa8LGkSL_14liquid_staking8callback12contract_objpEB4_
FN:4,_RINvXsm_NtCs2edAa8LGkSL_14liquid_staking8callbackNtB6_15ContractBuilderNtNtNtCsd0DXYhglbat_13multiversx_sc13contract_base17callable_contract23CallableContractBuilder16new_contract_objpEB8_
FN:4,_RINvNtNtCs2edAa8LGkSL_14liquid_staking8callback19___wasm__endpoints__25remove_liquidity_callbackpEB6_
FN:4,_RINvNtNtCs2edAa8LGkSL_14liquid_staking8callback19___wasm__endpoints__22add_liquidity_callbackpEB6_
FN:4,_RINvNtNtCs2edAa8LGkSL_14liquid_staking8callback19___wasm__endpoints__24withdraw_tokens_callbackpEB6_
FN:4,_RINvNtNtCs2edAa8LGkSL_14liquid_staking8callback19___wasm__endpoints__22claim_rewards_callbackpEB6_
FN:4,_RINvNtNtCs2edAa8LGkSL_14liquid_staking8callback19___wasm__endpoints__38whitelist_delegation_contract_callbackpEB6_
FN:4,_RINvNtNtCs2edAa8LGkSL_14liquid_staking8callback19___wasm__endpoints__36instant_delegation_contract_callbackpEB6_
FN:4,_RNvXININtCs2edAa8LGkSL_14liquid_staking8callbacksn_0pEINtB5_16CallbackProxyObjpENtNtNtCsd0DXYhglbat_13multiversx_sc13contract_base23proxy_obj_callback_base20CallbackProxyObjBase16new_cb_proxy_objB7_
FN:4,_RNvYpNtNtCs2edAa8LGkSL_14liquid_staking8callback13CallbackProxy25remove_liquidity_callbackB7_
FN:4,_RNvYpNtNtCs2edAa8LGkSL_14liquid_staking8callback13CallbackProxy22add_liquidity_callbackB7_
FN:4,_RNvYpNtNtCs2edAa8LGkSL_14liquid_staking8callback13CallbackProxy24withdraw_tokens_callbackB7_
FN:4,_RNvYpNtNtCs2edAa8LGkSL_14liquid_staking8callback13CallbackProxy22claim_rewards_callbackB7_
FN:4,_RNvYpNtNtCs2edAa8LGkSL_14liquid_staking8callback13CallbackProxy38whitelist_delegation_contract_callbackB7_
FN:4,_RNvYpNtNtCs2edAa8LGkSL_14liquid_staking8callback13CallbackProxy36instant_delegation_contract_callbackB7_
FN:4,_RNvXNtCs141FUTAEp3L_14liquid_staking8callbackINtNtNtCsd0DXYhglbat_13multiversx_sc13contract_base22universal_contract_obj20UniversalContractObjINtNtNtNtCs2614o7AVePg_22multiversx_sc_scenario3api7impl_vh12vm_hooks_api10VMHooksApiNtNtB2l_9debug_api15DebugApiBackendEENtB2_14CallbackModule9callbacksCs25HLPETZpNm_4test
FN:50,_RNvYINtNtNtCsd0DXYhglbat_13multiversx_sc13contract_base22universal_contract_obj20UniversalContractObjINtNtNtNtCs2614o7AVePg_22multiversx_sc_scenario3api7impl_vh12vm_hooks_api10VMHooksApiNtNtB1G_9debug_api15DebugApiBackendEENtNtCs141FUTAEp3L_14liquid_staking8callback14CallbackModule22add_liquidity_callbackCs25HLPETZpNm_4test
FN:90,_RNvYINtNtNtCsd0DXYhglbat_13multiversx_sc13contract_base22universal_contract_obj20UniversalContractObjINtNtNtNtCs2614o7AVePg_22multiversx_sc_scenario3api7impl_vh12vm_hooks_api10VMHooksApiNtNtB1G_9debug_api15DebugApiBackendEENtNtCs141FUTAEp3L_14liquid_staking8callback14CallbackModule22claim_rewards_callbackCs25HLPETZpNm_4test
FN:73,_RNvYINtNtNtCsd0DXYhglbat_13multiversx_sc13contract_base22universal_contract_obj20UniversalContractObjINtNtNtNtCs2614o7AVePg_22multiversx_sc_scenario3api7impl_vh12vm_hooks_api10VMHooksApiNtNtB1G_9debug_api15DebugApiBackendEENtNtCs141FUTAEp3L_14liquid_staking8callback14CallbackModule24withdraw_tokens_callbackCs25HLPETZpNm_4test
FN:21,_RNvYINtNtNtCsd0DXYhglbat_13multiversx_sc13contract_base22universal_contract_obj20UniversalContractObjINtNtNtNtCs2614o7AVePg_22multiversx_sc_scenario3api7impl_vh12vm_hooks_api10VMHooksApiNtNtB1G_9debug_api15DebugApiBackendEENtNtCs141FUTAEp3L_14liquid_staking8callback14CallbackModule25remove_liquidity_callbackCs25HLPETZpNm_4test
FN:137,_RNvYINtNtNtCsd0DXYhglbat_13multiversx_sc13contract_base22universal_contract_obj20UniversalContractObjINtNtNtNtCs2614o7AVePg_22multiversx_sc_scenario3api7impl_vh12vm_hooks_api10VMHooksApiNtNtB1G_9debug_api15DebugApiBackendEENtNtCs141FUTAEp3L_14liquid_staking8callback14CallbackModule36instant_delegation_contract_callbackCs25HLPETZpNm_4test
FN:117,_RNvYINtNtNtCsd0DXYhglbat_13multiversx_sc13contract_base22universal_contract_obj20UniversalContractObjINtNtNtNtCs2614o7AVePg_22multiversx_sc_scenario3api7impl_vh12vm_hooks_api10VMHooksApiNtNtB1G_9debug_api15DebugApiBackendEENtNtCs141FUTAEp3L_14liquid_staking8callback14CallbackModule38whitelist_delegation_contract_callbackCs25HLPETZpNm_4test
FN:4,_RNvYINtNtNtCsd0DXYhglbat_13multiversx_sc13contract_base22universal_contract_obj20UniversalContractObjINtNtNtNtCs2614o7AVePg_22multiversx_sc_scenario3api7impl_vh12vm_hooks_api10VMHooksApiNtNtB1G_9debug_api15DebugApiBackendEENtNtCs141FUTAEp3L_14liquid_staking8callback16EndpointWrappers17callback_selectorCs25HLPETZpNm_4test
FN:4,_RNvYINtNtNtCsd0DXYhglbat_13multiversx_sc13contract_base22universal_contract_obj20UniversalContractObjINtNtNtNtCs2614o7AVePg_22multiversx_sc_scenario3api7impl_vh12vm_hooks_api10VMHooksApiNtNtB1G_9debug_api15DebugApiBackendEENtNtCs141FUTAEp3L_14liquid_staking8callback16EndpointWrappers27call_add_liquidity_callbackCs25HLPETZpNm_4test
FN:4,_RNvYINtNtNtCsd0DXYhglbat_13multiversx_sc13contract_base22universal_contract_obj20UniversalContractObjINtNtNtNtCs2614o7AVePg_22multiversx_sc_scenario3api7impl_vh12vm_hooks_api10VMHooksApiNtNtB1G_9debug_api15DebugApiBackendEENtNtCs141FUTAEp3L_14liquid_staking8callback16EndpointWrappers27call_claim_rewards_callbackCs25HLPETZpNm_4test
FN:4,_RNvYINtNtNtCsd0DXYhglbat_13multiversx_sc13contract_base22universal_contract_obj20UniversalContractObjINtNtNtNtCs2614o7AVePg_22multiversx_sc_scenario3api7impl_vh12vm_hooks_api10VMHooksApiNtNtB1G_9debug_api15DebugApiBackendEENtNtCs141FUTAEp3L_14liquid_staking8callback16EndpointWrappers29call_withdraw_tokens_callbackCs25HLPETZpNm_4test
FN:4,_RNvYINtNtNtCsd0DXYhglbat_13multiversx_sc13contract_base22universal_contract_obj20UniversalContractObjINtNtNtNtCs2614o7AVePg_22multiversx_sc_scenario3api7impl_vh12vm_hooks_api10VMHooksApiNtNtB1G_9debug_api15DebugApiBackendEENtNtCs141FUTAEp3L_14liquid_staking8callback16EndpointWrappers30call_remove_liquidity_callbackCs25HLPETZpNm_4test
FN:4,_RNvYINtNtNtCsd0DXYhglbat_13multiversx_sc13contract_base22universal_contract_obj20UniversalContractObjINtNtNtNtCs2614o7AVePg_22multiversx_sc_scenario3api7impl_vh12vm_hooks_api10VMHooksApiNtNtB1G_9debug_api15DebugApiBackendEENtNtCs141FUTAEp3L_14liquid_staking8callback16EndpointWrappers41call_instant_delegation_contract_callbackCs25HLPETZpNm_4test
FN:4,_RNvYINtNtNtCsd0DXYhglbat_13multiversx_sc13contract_base22universal_contract_obj20UniversalContractObjINtNtNtNtCs2614o7AVePg_22multiversx_sc_scenario3api7impl_vh12vm_hooks_api10VMHooksApiNtNtB1G_9debug_api15DebugApiBackendEENtNtCs141FUTAEp3L_14liquid_staking8callback16EndpointWrappers43call_whitelist_delegation_contract_callbackCs25HLPETZpNm_4test
FN:4,_RNvYINtNtNtCsd0DXYhglbat_13multiversx_sc13contract_base22universal_contract_obj20UniversalContractObjINtNtNtNtCs2614o7AVePg_22multiversx_sc_scenario3api7impl_vh12vm_hooks_api10VMHooksApiNtNtB1G_9debug_api15DebugApiBackendEENtNtCs141FUTAEp3L_14liquid_staking8callback16EndpointWrappers4callCs25HLPETZpNm_4test
FN:4,_RNvYINtNtNtCsd0DXYhglbat_13multiversx_sc13contract_base22universal_contract_obj20UniversalContractObjINtNtNtNtCs2614o7AVePg_22multiversx_sc_scenario3api7impl_vh12vm_hooks_api10VMHooksApiNtNtB1G_9debug_api15DebugApiBackendEENtNtCs141FUTAEp3L_14liquid_staking8callback16EndpointWrappers8callbackCs25HLPETZpNm_4test
FN:55,_RNCNvYINtNtNtCsd0DXYhglbat_13multiversx_sc13contract_base22universal_contract_obj20UniversalContractObjINtNtNtNtCs2614o7AVePg_22multiversx_sc_scenario3api7impl_vh12vm_hooks_api10VMHooksApiNtNtB1I_9debug_api15DebugApiBackendEENtNtCs141FUTAEp3L_14liquid_staking8callback14CallbackModule22add_liquidity_callback0Cs25HLPETZpNm_4test
FN:63,_RNCNvYINtNtNtCsd0DXYhglbat_13multiversx_sc13contract_base22universal_contract_obj20UniversalContractObjINtNtNtNtCs2614o7AVePg_22multiversx_sc_scenario3api7impl_vh12vm_hooks_api10VMHooksApiNtNtB1I_9debug_api15DebugApiBackendEENtNtCs141FUTAEp3L_14liquid_staking8callback14CallbackModule22add_liquidity_callbacks_0Cs25HLPETZpNm_4test
FN:82,_RNCNvYINtNtNtCsd0DXYhglbat_13multiversx_sc13contract_base22universal_contract_obj20UniversalContractObjINtNtNtNtCs2614o7AVePg_22multiversx_sc_scenario3api7impl_vh12vm_hooks_api10VMHooksApiNtNtB1I_9debug_api15DebugApiBackendEENtNtCs141FUTAEp3L_14liquid_staking8callback14CallbackModule24withdraw_tokens_callback0Cs25HLPETZpNm_4test
FN:27,_RNCNvYINtNtNtCsd0DXYhglbat_13multiversx_sc13contract_base22universal_contract_obj20UniversalContractObjINtNtNtNtCs2614o7AVePg_22multiversx_sc_scenario3api7impl_vh12vm_hooks_api10VMHooksApiNtNtB1I_9debug_api15DebugApiBackendEENtNtCs141FUTAEp3L_14liquid_staking8callback14CallbackModule25remove_liquidity_callback0Cs25HLPETZpNm_4test
FN:36,_RNCNvYINtNtNtCsd0DXYhglbat_13multiversx_sc13contract_base22universal_contract_obj20UniversalContractObjINtNtNtNtCs2614o7AVePg_22multiversx_sc_scenario3api7impl_vh12vm_hooks_api10VMHooksApiNtNtB1I_9debug_api15DebugApiBackendEENtNtCs141FUTAEp3L_14liquid_staking8callback14CallbackModule25remove_liquidity_callbacks_0Cs25HLPETZpNm_4test
FN:142,_RNCNvYINtNtNtCsd0DXYhglbat_13multiversx_sc13contract_base22universal_contract_obj20UniversalContractObjINtNtNtNtCs2614o7AVePg_22multiversx_sc_scenario3api7impl_vh12vm_hooks_api10VMHooksApiNtNtB1I_9debug_api15DebugApiBackendEENtNtCs141FUTAEp3L_14liquid_staking8callback14CallbackModule36instant_delegation_contract_callback0Cs25HLPETZpNm_4test
FN:4,_RNvXsn_NtCs141FUTAEp3L_14liquid_staking8callbackINtB5_16CallbackProxyObjINtNtNtNtCs2614o7AVePg_22multiversx_sc_scenario3api7impl_vh12vm_hooks_api10VMHooksApiNtNtB1d_9debug_api15DebugApiBackendEENtNtNtCsd0DXYhglbat_13multiversx_sc13contract_base23proxy_obj_callback_base20CallbackProxyObjBase16new_cb_proxy_objCs25HLPETZpNm_4test
FN:4,_RNvYINtNtCs141FUTAEp3L_14liquid_staking8callback16CallbackProxyObjINtNtNtNtCs2614o7AVePg_22multiversx_sc_scenario3api7impl_vh12vm_hooks_api10VMHooksApiNtNtB17_9debug_api15DebugApiBackendEENtB5_13CallbackProxy22add_liquidity_callbackCs25HLPETZpNm_4test
FN:4,_RNvYINtNtCs141FUTAEp3L_14liquid_staking8callback16CallbackProxyObjINtNtNtNtCs2614o7AVePg_22multiversx_sc_scenario3api7impl_vh12vm_hooks_api10VMHooksApiNtNtB17_9debug_api15DebugApiBackendEENtB5_13CallbackProxy22claim_rewards_callbackCs25HLPETZpNm_4test
FN:4,_RNvYINtNtCs141FUTAEp3L_14liquid_staking8callback16CallbackProxyObjINtNtNtNtCs2614o7AVePg_22multiversx_sc_scenario3api7impl_vh12vm_hooks_api10VMHooksApiNtNtB17_9debug_api15DebugApiBackendEENtB5_13CallbackProxy24withdraw_tokens_callbackCs25HLPETZpNm_4test
FN:4,_RNvYINtNtCs141FUTAEp3L_14liquid_staking8callback16CallbackProxyObjINtNtNtNtCs2614o7AVePg_22multiversx_sc_scenario3api7impl_vh12vm_hooks_api10VMHooksApiNtNtB17_9debug_api15DebugApiBackendEENtB5_13CallbackProxy25remove_liquidity_callbackCs25HLPETZpNm_4test
FN:4,_RNvYINtNtCs141FUTAEp3L_14liquid_staking8callback16CallbackProxyObjINtNtNtNtCs2614o7AVePg_22multiversx_sc_scenario3api7impl_vh12vm_hooks_api10VMHooksApiNtNtB17_9debug_api15DebugApiBackendEENtB5_13CallbackProxy36instant_delegation_contract_callbackCs25HLPETZpNm_4test
FN:4,_RNvYINtNtCs141FUTAEp3L_14liquid_staking8callback16CallbackProxyObjINtNtNtNtCs2614o7AVePg_22multiversx_sc_scenario3api7impl_vh12vm_hooks_api10VMHooksApiNtNtB17_9debug_api15DebugApiBackendEENtB5_13CallbackProxy38whitelist_delegation_contract_callbackCs25HLPETZpNm_4test
FN:4,_RNvXNtCs141FUTAEp3L_14liquid_staking8callbackINtNtNtCsd0DXYhglbat_13multiversx_sc13contract_base22universal_contract_obj20UniversalContractObjINtNtNtNtCs2614o7AVePg_22multiversx_sc_scenario3api7impl_vh12vm_hooks_api10VMHooksApiNtNtB2l_9debug_api15DebugApiBackendEENtB2_14CallbackModule9callbacksCsgub9DQDg2s9_15unDelegate_test
FN:50,_RNvYINtNtNtCsd0DXYhglbat_13multiversx_sc13contract_base22universal_contract_obj20UniversalContractObjINtNtNtNtCs2614o7AVePg_22multiversx_sc_scenario3api7impl_vh12vm_hooks_api10VMHooksApiNtNtB1G_9debug_api15DebugApiBackendEENtNtCs141FUTAEp3L_14liquid_staking8callback14CallbackModule22add_liquidity_callbackCsgub9DQDg2s9_15unDelegate_test
FN:90,_RNvYINtNtNtCsd0DXYhglbat_13multiversx_sc13contract_base22universal_contract_obj20UniversalContractObjINtNtNtNtCs2614o7AVePg_22multiversx_sc_scenario3api7impl_vh12vm_hooks_api10VMHooksApiNtNtB1G_9debug_api15DebugApiBackendEENtNtCs141FUTAEp3L_14liquid_staking8callback14CallbackModule22claim_rewards_callbackCsgub9DQDg2s9_15unDelegate_test
FN:73,_RNvYINtNtNtCsd0DXYhglbat_13multiversx_sc13contract_base22universal_contract_obj20UniversalContractObjINtNtNtNtCs2614o7AVePg_22multiversx_sc_scenario3api7impl_vh12vm_hooks_api10VMHooksApiNtNtB1G_9debug_api15DebugApiBackendEENtNtCs141FUTAEp3L_14liquid_staking8callback14CallbackModule24withdraw_tokens_callbackCsgub9DQDg2s9_15unDelegate_test
FN:21,_RNvYINtNtNtCsd0DXYhglbat_13multiversx_sc13contract_base22universal_contract_obj20UniversalContractObjINtNtNtNtCs2614o7AVePg_22multiversx_sc_scenario3api7impl_vh12vm_hooks_api10VMHooksApiNtNtB1G_9debug_api15DebugApiBackendEENtNtCs141FUTAEp3L_14liquid_staking8callback14CallbackModule25remove_liquidity_callbackCsgub9DQDg2s9_15unDelegate_test
FN:137,_RNvYINtNtNtCsd0DXYhglbat_13multiversx_sc13contract_base22universal_contract_obj20UniversalContractObjINtNtNtNtCs2614o7AVePg_22multiversx_sc_scenario3api7impl_vh12vm_hooks_api10VMHooksApiNtNtB1G_9debug_api15DebugApiBackendEENtNtCs141FUTAEp3L_14liquid_staking8callback14CallbackModule36instant_delegation_contract_callbackCsgub9DQDg2s9_15unDelegate_test
FN:117,_RNvYINtNtNtCsd0DXYhglbat_13multiversx_sc13contract_base22universal_contract_obj20UniversalContractObjINtNtNtNtCs2614o7AVePg_22multiversx_sc_scenario3api7impl_vh12vm_hooks_api10VMHooksApiNtNtB1G_9debug_api15DebugApiBackendEENtNtCs141FUTAEp3L_14liquid_staking8callback14CallbackModule38whitelist_delegation_contract_callbackCsgub9DQDg2s9_15unDelegate_test
FN:4,_RNvYINtNtNtCsd0DXYhglbat_13multiversx_sc13contract_base22universal_contract_obj20UniversalContractObjINtNtNtNtCs2614o7AVePg_22multiversx_sc_scenario3api7impl_vh12vm_hooks_api10VMHooksApiNtNtB1G_9debug_api15DebugApiBackendEENtNtCs141FUTAEp3L_14liquid_staking8callback16EndpointWrappers17callback_selectorCsgub9DQDg2s9_15unDelegate_test
FN:4,_RNvYINtNtNtCsd0DXYhglbat_13multiversx_sc13contract_base22universal_contract_obj20UniversalContractObjINtNtNtNtCs2614o7AVePg_22multiversx_sc_scenario3api7impl_vh12vm_hooks_api10VMHooksApiNtNtB1G_9debug_api15DebugApiBackendEENtNtCs141FUTAEp3L_14liquid_staking8callback16EndpointWrappers27call_add_liquidity_callbackCsgub9DQDg2s9_15unDelegate_test
FN:4,_RNvYINtNtNtCsd0DXYhglbat_13multiversx_sc13contract_base22universal_contract_obj20UniversalContractObjINtNtNtNtCs2614o7AVePg_22multiversx_sc_scenario3api7impl_vh12vm_hooks_api10VMHooksApiNtNtB1G_9debug_api15DebugApiBackendEENtNtCs141FUTAEp3L_14liquid_staking8callback16EndpointWrappers27call_claim_rewards_callbackCsgub9DQDg2s9_15unDelegate_test
FN:4,_RNvYINtNtNtCsd0DXYhglbat_13multiversx_sc13contract_base22universal_contract_obj20UniversalContractObjINtNtNtNtCs2614o7AVePg_22multiversx_sc_scenario3api7impl_vh12vm_hooks_api10VMHooksApiNtNtB1G_9debug_api15DebugApiBackendEENtNtCs141FUTAEp3L_14liquid_staking8callback16EndpointWrappers29call_withdraw_tokens_callbackCsgub9DQDg2s9_15unDelegate_test
FN:4,_RNvYINtNtNtCsd0DXYhglbat_13multiversx_sc13contract_base22universal_contract_obj20UniversalContractObjINtNtNtNtCs2614o7AVePg_22multiversx_sc_scenario3api7impl_vh12vm_hooks_api10VMHooksApiNtNtB1G_9debug_api15DebugApiBackendEENtNtCs141FUTAEp3L_14liquid_staking8callback16EndpointWrappers30call_remove_liquidity_callbackCsgub9DQDg2s9_15unDelegate_test
FN:4,_RNvYINtNtNtCsd0DXYhglbat_13multiversx_sc13contract_base22universal_contract_obj20UniversalContractObjINtNtNtNtCs2614o7AVePg_22multiversx_sc_scenario3api7impl_vh12vm_hooks_api10VMHooksApiNtNtB1G_9debug_api15DebugApiBackendEENtNtCs141FUTAEp3L_14liquid_staking8callback16EndpointWrappers41call_instant_delegation_contract_callbackCsgub9DQDg2s9_15unDelegate_test
FN:4,_RNvYINtNtNtCsd0DXYhglbat_13multiversx_sc13contract_base22universal_contract_obj20UniversalContractObjINtNtNtNtCs2614o7AVePg_22multiversx_sc_scenario3api7impl_vh12vm_hooks_api10VMHooksApiNtNtB1G_9debug_api15DebugApiBackendEENtNtCs141FUTAEp3L_14liquid_staking8callback16EndpointWrappers43call_whitelist_delegation_contract_callbackCsgub9DQDg2s9_15unDelegate_test
FN:4,_RNvYINtNtNtCsd0DXYhglbat_13multiversx_sc13contract_base22universal_contract_obj20UniversalContractObjINtNtNtNtCs2614o7AVePg_22multiversx_sc_scenario3api7impl_vh12vm_hooks_api10VMHooksApiNtNtB1G_9debug_api15DebugApiBackendEENtNtCs141FUTAEp3L_14liquid_staking8callback16EndpointWrappers4callCsgub9DQDg2s9_15unDelegate_test
FN:4,_RNvYINtNtNtCsd0DXYhglbat_13multiversx_sc13contract_base22universal_contract_obj20UniversalContractObjINtNtNtNtCs2614o7AVePg_22multiversx_sc_scenario3api7impl_vh12vm_hooks_api10VMHooksApiNtNtB1G_9debug_api15DebugApiBackendEENtNtCs141FUTAEp3L_14liquid_staking8callback16EndpointWrappers8callbackCsgub9DQDg2s9_15unDelegate_test
FN:55,_RNCNvYINtNtNtCsd0DXYhglbat_13multiversx_sc13contract_base22universal_contract_obj20UniversalContractObjINtNtNtNtCs2614o7AVePg_22multiversx_sc_scenario3api7impl_vh12vm_hooks_api10VMHooksApiNtNtB1I_9debug_api15DebugApiBackendEENtNtCs141FUTAEp3L_14liquid_staking8callback14CallbackModule22add_liquidity_callback0Csgub9DQDg2s9_15unDelegate_test
FN:63,_RNCNvYINtNtNtCsd0DXYhglbat_13multiversx_sc13contract_base22universal_contract_obj20UniversalContractObjINtNtNtNtCs2614o7AVePg_22multiversx_sc_scenario3api7impl_vh12vm_hooks_api10VMHooksApiNtNtB1I_9debug_api15DebugApiBackendEENtNtCs141FUTAEp3L_14liquid_staking8callback14CallbackModule22add_liquidity_callbacks_0Csgub9DQDg2s9_15unDelegate_test
FN:82,_RNCNvYINtNtNtCsd0DXYhglbat_13multiversx_sc13contract_base22universal_contract_obj20UniversalContractObjINtNtNtNtCs2614o7AVePg_22multiversx_sc_scenario3api7impl_vh12vm_hooks_api10VMHooksApiNtNtB1I_9debug_api15DebugApiBackendEENtNtCs141FUTAEp3L_14liquid_staking8callback14CallbackModule24withdraw_tokens_callback0Csgub9DQDg2s9_15unDelegate_test
FN:27,_RNCNvYINtNtNtCsd0DXYhglbat_13multiversx_sc13contract_base22universal_contract_obj20UniversalContractObjINtNtNtNtCs2614o7AVePg_22multiversx_sc_scenario3api7impl_vh12vm_hooks_api10VMHooksApiNtNtB1I_9debug_api15DebugApiBackendEENtNtCs141FUTAEp3L_14liquid_staking8callback14CallbackModule25remove_liquidity_callback0Csgub9DQDg2s9_15unDelegate_test
FN:36,_RNCNvYINtNtNtCsd0DXYhglbat_13multiversx_sc13contract_base22universal_contract_obj20UniversalContractObjINtNtNtNtCs2614o7AVePg_22multiversx_sc_scenario3api7impl_vh12vm_hooks_api10VMHooksApiNtNtB1I_9debug_api15DebugApiBackendEENtNtCs141FUTAEp3L_14liquid_staking8callback14CallbackModule25remove_liquidity_callbacks_0Csgub9DQDg2s9_15unDelegate_test
FN:142,_RNCNvYINtNtNtCsd0DXYhglbat_13multiversx_sc13contract_base22universal_contract_obj20UniversalContractObjINtNtNtNtCs2614o7AVePg_22multiversx_sc_scenario3api7impl_vh12vm_hooks_api10VMHooksApiNtNtB1I_9debug_api15DebugApiBackendEENtNtCs141FUTAEp3L_14liquid_staking8callback14CallbackModule36instant_delegation_contract_callback0Csgub9DQDg2s9_15unDelegate_test
FN:4,_RNvXsn_NtCs141FUTAEp3L_14liquid_staking8callbackINtB5_16CallbackProxyObjINtNtNtNtCs2614o7AVePg_22multiversx_sc_scenario3api7impl_vh12vm_hooks_api10VMHooksApiNtNtB1d_9debug_api15DebugApiBackendEENtNtNtCsd0DXYhglbat_13multiversx_sc13contract_base23proxy_obj_callback_base20CallbackProxyObjBase16new_cb_proxy_objCsgub9DQDg2s9_15unDelegate_test
FN:4,_RNvYINtNtCs141FUTAEp3L_14liquid_staking8callback16CallbackProxyObjINtNtNtNtCs2614o7AVePg_22multiversx_sc_scenario3api7impl_vh12vm_hooks_api10VMHooksApiNtNtB17_9debug_api15DebugApiBackendEENtB5_13CallbackProxy22add_liquidity_callbackCsgub9DQDg2s9_15unDelegate_test
FN:4,_RNvYINtNtCs141FUTAEp3L_14liquid_staking8callback16CallbackProxyObjINtNtNtNtCs2614o7AVePg_22multiversx_sc_scenario3api7impl_vh12vm_hooks_api10VMHooksApiNtNtB17_9debug_api15DebugApiBackendEENtB5_13CallbackProxy22claim_rewards_callbackCsgub9DQDg2s9_15unDelegate_test
FN:4,_RNvYINtNtCs141FUTAEp3L_14liquid_staking8callback16CallbackProxyObjINtNtNtNtCs2614o7AVePg_22multiversx_sc_scenario3api7impl_vh12vm_hooks_api10VMHooksApiNtNtB17_9debug_api15DebugApiBackendEENtB5_13CallbackProxy24withdraw_tokens_callbackCsgub9DQDg2s9_15unDelegate_test
FN:4,_RNvYINtNtCs141FUTAEp3L_14liquid_staking8callback16CallbackProxyObjINtNtNtNtCs2614o7AVePg_22multiversx_sc_scenario3api7impl_vh12vm_hooks_api10VMHooksApiNtNtB17_9debug_api15DebugApiBackendEENtB5_13CallbackProxy25remove_liquidity_callbackCsgub9DQDg2s9_15unDelegate_test
FN:4,_RNvYINtNtCs141FUTAEp3L_14liquid_staking8callback16CallbackProxyObjINtNtNtNtCs2614o7AVePg_22multiversx_sc_scenario3api7impl_vh12vm_hooks_api10VMHooksApiNtNtB17_9debug_api15DebugApiBackendEENtB5_13CallbackProxy36instant_delegation_contract_callbackCsgub9DQDg2s9_15unDelegate_test
FN:4,_RNvYINtNtCs141FUTAEp3L_14liquid_staking8callback16CallbackProxyObjINtNtNtNtCs2614o7AVePg_22multiversx_sc_scenario3api7impl_vh12vm_hooks_api10VMHooksApiNtNtB17_9debug_api15DebugApiBackendEENtB5_13CallbackProxy38whitelist_delegation_contract_callbackCsgub9DQDg2s9_15unDelegate_test
FN:4,_RNvXNtCs141FUTAEp3L_14liquid_staking8callbackINtNtNtCsd0DXYhglbat_13multiversx_sc13contract_base22universal_contract_obj20UniversalContractObjINtNtNtNtCs2614o7AVePg_22multiversx_sc_scenario3api7impl_vh12vm_hooks_api10VMHooksApiNtNtB2l_9debug_api15DebugApiBackendEENtB2_14CallbackModule9callbacksCscNyXpV1vtNq_11unbond_test
FN:50,_RNvYINtNtNtCsd0DXYhglbat_13multiversx_sc13contract_base22universal_contract_obj20UniversalContractObjINtNtNtNtCs2614o7AVePg_22multiversx_sc_scenario3api7impl_vh12vm_hooks_api10VMHooksApiNtNtB1G_9debug_api15DebugApiBackendEENtNtCs141FUTAEp3L_14liquid_staking8callback14CallbackModule22add_liquidity_callbackCscNyXpV1vtNq_11unbond_test
FN:90,_RNvYINtNtNtCsd0DXYhglbat_13multiversx_sc13contract_base22universal_contract_obj20UniversalContractObjINtNtNtNtCs2614o7AVePg_22multiversx_sc_scenario3api7impl_vh12vm_hooks_api10VMHooksApiNtNtB1G_9debug_api15DebugApiBackendEENtNtCs141FUTAEp3L_14liquid_staking8callback14CallbackModule22claim_rewards_callbackCscNyXpV1vtNq_11unbond_test
FN:73,_RNvYINtNtNtCsd0DXYhglbat_13multiversx_sc13contract_base22universal_contract_obj20UniversalContractObjINtNtNtNtCs2614o7AVePg_22multiversx_sc_scenario3api7impl_vh12vm_hooks_api10VMHooksApiNtNtB1G_9debug_api15DebugApiBackendEENtNtCs141FUTAEp3L_14liquid_staking8callback14CallbackModule24withdraw_tokens_callbackCscNyXpV1vtNq_11unbond_test
FN:21,_RNvYINtNtNtCsd0DXYhglbat_13multiversx_sc13contract_base22universal_contract_obj20UniversalContractObjINtNtNtNtCs2614o7AVePg_22multiversx_sc_scenario3api7impl_vh12vm_hooks_api10VMHooksApiNtNtB1G_9debug_api15DebugApiBackendEENtNtCs141FUTAEp3L_14liquid_staking8callback14CallbackModule25remove_liquidity_callbackCscNyXpV1vtNq_11unbond_test
FN:137,_RNvYINtNtNtCsd0DXYhglbat_13multiversx_sc13contract_base22universal_contract_obj20UniversalContractObjINtNtNtNtCs2614o7AVePg_22multiversx_sc_scenario3api7impl_vh12vm_hooks_api10VMHooksApiNtNtB1G_9debug_api15DebugApiBackendEENtNtCs141FUTAEp3L_14liquid_staking8callback14CallbackModule36instant_delegation_contract_callbackCscNyXpV1vtNq_11unbond_test
FN:117,_RNvYINtNtNtCsd0DXYhglbat_13multiversx_sc13contract_base22universal_contract_obj20UniversalContractObjINtNtNtNtCs2614o7AVePg_22multiversx_sc_scenario3api7impl_vh12vm_hooks_api10VMHooksApiNtNtB1G_9debug_api15DebugApiBackendEENtNtCs141FUTAEp3L_14liquid_staking8callback14CallbackModule38whitelist_delegation_contract_callbackCscNyXpV1vtNq_11unbond_test
FN:4,_RNvYINtNtNtCsd0DXYhglbat_13multiversx_sc13contract_base22universal_contract_obj20UniversalContractObjINtNtNtNtCs2614o7AVePg_22multiversx_sc_scenario3api7impl_vh12vm_hooks_api10VMHooksApiNtNtB1G_9debug_api15DebugApiBackendEENtNtCs141FUTAEp3L_14liquid_staking8callback16EndpointWrappers17callback_selectorCscNyXpV1vtNq_11unbond_test
FN:4,_RNvYINtNtNtCsd0DXYhglbat_13multiversx_sc13contract_base22universal_contract_obj20UniversalContractObjINtNtNtNtCs2614o7AVePg_22multiversx_sc_scenario3api7impl_vh12vm_hooks_api10VMHooksApiNtNtB1G_9debug_api15DebugApiBackendEENtNtCs141FUTAEp3L_14liquid_staking8callback16EndpointWrappers27call_add_liquidity_callbackCscNyXpV1vtNq_11unbond_test
FN:4,_RNvYINtNtNtCsd0DXYhglbat_13multiversx_sc13contract_base22universal_contract_obj20UniversalContractObjINtNtNtNtCs2614o7AVePg_22multiversx_sc_scenario3api7impl_vh12vm_hooks_api10VMHooksApiNtNtB1G_9debug_api15DebugApiBackendEENtNtCs141FUTAEp3L_14liquid_staking8callback16EndpointWrappers27call_claim_rewards_callbackCscNyXpV1vtNq_11unbond_test
FN:4,_RNvYINtNtNtCsd0DXYhglbat_13multiversx_sc13contract_base22universal_contract_obj20UniversalContractObjINtNtNtNtCs2614o7AVePg_22multiversx_sc_scenario3api7impl_vh12vm_hooks_api10VMHooksApiNtNtB1G_9debug_api15DebugApiBackendEENtNtCs141FUTAEp3L_14liquid_staking8callback16EndpointWrappers29call_withdraw_tokens_callbackCscNyXpV1vtNq_11unbond_test
FN:4,_RNvYINtNtNtCsd0DXYhglbat_13multiversx_sc13contract_base22universal_contract_obj20UniversalContractObjINtNtNtNtCs2614o7AVePg_22multiversx_sc_scenario3api7impl_vh12vm_hooks_api10VMHooksApiNtNtB1G_9debug_api15DebugApiBackendEENtNtCs141FUTAEp3L_14liquid_staking8callback16EndpointWrappers30call_remove_liquidity_callbackCscNyXpV1vtNq_11unbond_test
FN:4,_RNvYINtNtNtCsd0DXYhglbat_13multiversx_sc13contract_base22universal_contract_obj20UniversalContractObjINtNtNtNtCs2614o7AVePg_22multiversx_sc_scenario3api7impl_vh12vm_hooks_api10VMHooksApiNtNtB1G_9debug_api15DebugApiBackendEENtNtCs141FUTAEp3L_14liquid_staking8callback16EndpointWrappers41call_instant_delegation_contract_callbackCscNyXpV1vtNq_11unbond_test
FN:4,_RNvYINtNtNtCsd0DXYhglbat_13multiversx_sc13contract_base22universal_contract_obj20UniversalContractObjINtNtNtNtCs2614o7AVePg_22multiversx_sc_scenario3api7impl_vh12vm_hooks_api10VMHooksApiNtNtB1G_9debug_api15DebugApiBackendEENtNtCs141FUTAEp3L_14liquid_staking8callback16EndpointWrappers43call_whitelist_delegation_contract_callbackCscNyXpV1vtNq_11unbond_test
FN:4,_RNvYINtNtNtCsd0DXYhglbat_13multiversx_sc13contract_base22universal_contract_obj20UniversalContractObjINtNtNtNtCs2614o7AVePg_22multiversx_sc_scenario3api7impl_vh12vm_hooks_api10VMHooksApiNtNtB1G_9debug_api15DebugApiBackendEENtNtCs141FUTAEp3L_14liquid_staking8callback16EndpointWrappers4callCscNyXpV1vtNq_11unbond_test
FN:4,_RNvYINtNtNtCsd0DXYhglbat_13multiversx_sc13contract_base22universal_contract_obj20UniversalContractObjINtNtNtNtCs2614o7AVePg_22multiversx_sc_scenario3api7impl_vh12vm_hooks_api10VMHooksApiNtNtB1G_9debug_api15DebugApiBackendEENtNtCs141FUTAEp3L_14liquid_staking8callback16EndpointWrappers8callbackCscNyXpV1vtNq_11unbond_test
FN:55,_RNCNvYINtNtNtCsd0DXYhglbat_13multiversx_sc13contract_base22universal_contract_obj20UniversalContractObjINtNtNtNtCs2614o7AVePg_22multiversx_sc_scenario3api7impl_vh12vm_hooks_api10VMHooksApiNtNtB1I_9debug_api15DebugApiBackendEENtNtCs141FUTAEp3L_14liquid_staking8callback14CallbackModule22add_liquidity_callback0CscNyXpV1vtNq_11unbond_test
FN:63,_RNCNvYINtNtNtCsd0DXYhglbat_13multiversx_sc13contract_base22universal_contract_obj20UniversalContractObjINtNtNtNtCs2614o7AVePg_22multiversx_sc_scenario3api7impl_vh12vm_hooks_api10VMHooksApiNtNtB1I_9debug_api15DebugApiBackendEENtNtCs141FUTAEp3L_14liquid_staking8callback14CallbackModule22add_liquidity_callbacks_0CscNyXpV1vtNq_11unbond_test
FN:82,_RNCNvYINtNtNtCsd0DXYhglbat_13multiversx_sc13contract_base22universal_contract_obj20UniversalContractObjINtNtNtNtCs2614o7AVePg_22multiversx_sc_scenario3api7impl_vh12vm_hooks_api10VMHooksApiNtNtB1I_9debug_api15DebugApiBackendEENtNtCs141FUTAEp3L_14liquid_staking8callback14CallbackModule24withdraw_tokens_callback0CscNyXpV1vtNq_11unbond_test
FN:27,_RNCNvYINtNtNtCsd0DXYhglbat_13multiversx_sc13contract_base22universal_contract_obj20UniversalContractObjINtNtNtNtCs2614o7AVePg_22multiversx_sc_scenario3api7impl_vh12vm_hooks_api10VMHooksApiNtNtB1I_9debug_api15DebugApiBackendEENtNtCs141FUTAEp3L_14liquid_staking8callback14CallbackModule25remove_liquidity_callback0CscNyXpV1vtNq_11unbond_test
FN:36,_RNCNvYINtNtNtCsd0DXYhglbat_13multiversx_sc13contract_base22universal_contract_obj20UniversalContractObjINtNtNtNtCs2614o7AVePg_22multiversx_sc_scenario3api7impl_vh12vm_hooks_api10VMHooksApiNtNtB1I_9debug_api15DebugApiBackendEENtNtCs141FUTAEp3L_14liquid_staking8callback14CallbackModule25remove_liquidity_callbacks_0CscNyXpV1vtNq_11unbond_test
FN:142,_RNCNvYINtNtNtCsd0DXYhglbat_13multiversx_sc13contract_base22universal_contract_obj20UniversalContractObjINtNtNtNtCs2614o7AVePg_22multiversx_sc_scenario3api7impl_vh12vm_hooks_api10VMHooksApiNtNtB1I_9debug_api15DebugApiBackendEENtNtCs141FUTAEp3L_14liquid_staking8callback14CallbackModule36instant_delegation_contract_callback0CscNyXpV1vtNq_11unbond_test
FN:4,_RNvXsn_NtCs141FUTAEp3L_14liquid_staking8callbackINtB5_16CallbackProxyObjINtNtNtNtCs2614o7AVePg_22multiversx_sc_scenario3api7impl_vh12vm_hooks_api10VMHooksApiNtNtB1d_9debug_api15DebugApiBackendEENtNtNtCsd0DXYhglbat_13multiversx_sc13contract_base23proxy_obj_callback_base20CallbackProxyObjBase16new_cb_proxy_objCscNyXpV1vtNq_11unbond_test
FN:4,_RNvYINtNtCs141FUTAEp3L_14liquid_staking8callback16CallbackProxyObjINtNtNtNtCs2614o7AVePg_22multiversx_sc_scenario3api7impl_vh12vm_hooks_api10VMHooksApiNtNtB17_9debug_api15DebugApiBackendEENtB5_13CallbackProxy22add_liquidity_callbackCscNyXpV1vtNq_11unbond_test
FN:4,_RNvYINtNtCs141FUTAEp3L_14liquid_staking8callback16CallbackProxyObjINtNtNtNtCs2614o7AVePg_22multiversx_sc_scenario3api7impl_vh12vm_hooks_api10VMHooksApiNtNtB17_9debug_api15DebugApiBackendEENtB5_13CallbackProxy22claim_rewards_callbackCscNyXpV1vtNq_11unbond_test
FN:4,_RNvYINtNtCs141FUTAEp3L_14liquid_staking8callback16CallbackProxyObjINtNtNtNtCs2614o7AVePg_22multiversx_sc_scenario3api7impl_vh12vm_hooks_api10VMHooksApiNtNtB17_9debug_api15DebugApiBackendEENtB5_13CallbackProxy24withdraw_tokens_callbackCscNyXpV1vtNq_11unbond_test
FN:4,_RNvYINtNtCs141FUTAEp3L_14liquid_staking8callback16CallbackProxyObjINtNtNtNtCs2614o7AVePg_22multiversx_sc_scenario3api7impl_vh12vm_hooks_api10VMHooksApiNtNtB17_9debug_api15DebugApiBackendEENtB5_13CallbackProxy25remove_liquidity_callbackCscNyXpV1vtNq_11unbond_test
FN:4,_RNvYINtNtCs141FUTAEp3L_14liquid_staking8callback16CallbackProxyObjINtNtNtNtCs2614o7AVePg_22multiversx_sc_scenario3api7impl_vh12vm_hooks_api10VMHooksApiNtNtB17_9debug_api15DebugApiBackendEENtB5_13CallbackProxy36instant_delegation_contract_callbackCscNyXpV1vtNq_11unbond_test
FN:4,_RNvYINtNtCs141FUTAEp3L_14liquid_staking8callback16CallbackProxyObjINtNtNtNtCs2614o7AVePg_22multiversx_sc_scenario3api7impl_vh12vm_hooks_api10VMHooksApiNtNtB17_9debug_api15DebugApiBackendEENtB5_13CallbackProxy38whitelist_delegation_contract_callbackCscNyXpV1vtNq_11unbond_test
FNDA:7,_RNCNvYINtNtNtCsd0DXYhglbat_13multiversx_sc13contract_base22universal_contract_obj20UniversalContractObjINtNtNtNtCs2614o7AVePg_22multiversx_sc_scenario3api7impl_vh12vm_hooks_api10VMHooksApiNtNtB1I_9debug_api15DebugApiBackendEENtNtCs141FUTAEp3L_14liquid_staking8callback14CallbackModule22add_liquidity_callback0Csbv7vZMOU1ip_13delegate_test
FNDA:0,_RNCNvYINtNtNtCsd0DXYhglbat_13multiversx_sc13contract_base22universal_contract_obj20UniversalContractObjINtNtNtNtCs2614o7AVePg_22multiversx_sc_scenario3api7impl_vh12vm_hooks_api10VMHooksApiNtNtB1I_9debug_api15DebugApiBackendEENtNtCs141FUTAEp3L_14liquid_staking8callback14CallbackModule22add_liquidity_callbacks_0Csbv7vZMOU1ip_13delegate_test
FNDA:0,_RNCNvYINtNtNtCsd0DXYhglbat_13multiversx_sc13contract_base22universal_contract_obj20UniversalContractObjINtNtNtNtCs2614o7AVePg_22multiversx_sc_scenario3api7impl_vh12vm_hooks_api10VMHooksApiNtNtB1I_9debug_api15DebugApiBackendEENtNtCs141FUTAEp3L_14liquid_staking8callback14CallbackModule24withdraw_tokens_callback0Csbv7vZMOU1ip_13delegate_test
FNDA:0,_RNCNvYINtNtNtCsd0DXYhglbat_13multiversx_sc13contract_base22universal_contract_obj20UniversalContractObjINtNtNtNtCs2614o7AVePg_22multiversx_sc_scenario3api7impl_vh12vm_hooks_api10VMHooksApiNtNtB1I_9debug_api15DebugApiBackendEENtNtCs141FUTAEp3L_14liquid_staking8callback14CallbackModule25remove_liquidity_callback0Csbv7vZMOU1ip_13delegate_test
FNDA:0,_RNCNvYINtNtNtCsd0DXYhglbat_13multiversx_sc13contract_base22universal_contract_obj20UniversalContractObjINtNtNtNtCs2614o7AVePg_22multiversx_sc_scenario3api7impl_vh12vm_hooks_api10VMHooksApiNtNtB1I_9debug_api15DebugApiBackendEENtNtCs141FUTAEp3L_14liquid_staking8callback14CallbackModule25remove_liquidity_callbacks_0Csbv7vZMOU1ip_13delegate_test
FNDA:1,_RNCNvYINtNtNtCsd0DXYhglbat_13multiversx_sc13contract_base22universal_contract_obj20UniversalContractObjINtNtNtNtCs2614o7AVePg_22multiversx_sc_scenario3api7impl_vh12vm_hooks_api10VMHooksApiNtNtB1I_9debug_api15DebugApiBackendEENtNtCs141FUTAEp3L_14liquid_staking8callback14CallbackModule36instant_delegation_contract_callback0Csbv7vZMOU1ip_13delegate_test
FNDA:24,_RNvXsn_NtCs141FUTAEp3L_14liquid_staking8callbackINtB5_16CallbackProxyObjINtNtNtNtCs2614o7AVePg_22multiversx_sc_scenario3api7impl_vh12vm_hooks_api10VMHooksApiNtNtB1d_9debug_api15DebugApiBackendEENtNtNtCsd0DXYhglbat_13multiversx_sc13contract_base23proxy_obj_callback_base20CallbackProxyObjBase16new_cb_proxy_objCsbv7vZMOU1ip_13delegate_test
FNDA:7,_RNvYINtNtCs141FUTAEp3L_14liquid_staking8callback16CallbackProxyObjINtNtNtNtCs2614o7AVePg_22multiversx_sc_scenario3api7impl_vh12vm_hooks_api10VMHooksApiNtNtB17_9debug_api15DebugApiBackendEENtB5_13CallbackProxy22add_liquidity_callbackCsbv7vZMOU1ip_13delegate_test
FNDA:0,_RNvYINtNtCs141FUTAEp3L_14liquid_staking8callback16CallbackProxyObjINtNtNtNtCs2614o7AVePg_22multiversx_sc_scenario3api7impl_vh12vm_hooks_api10VMHooksApiNtNtB17_9debug_api15DebugApiBackendEENtB5_13CallbackProxy22claim_rewards_callbackCsbv7vZMOU1ip_13delegate_test
FNDA:0,_RNvYINtNtCs141FUTAEp3L_14liquid_staking8callback16CallbackProxyObjINtNtNtNtCs2614o7AVePg_22multiversx_sc_scenario3api7impl_vh12vm_hooks_api10VMHooksApiNtNtB17_9debug_api15DebugApiBackendEENtB5_13CallbackProxy24withdraw_tokens_callbackCsbv7vZMOU1ip_13delegate_test
FNDA:0,_RNvYINtNtCs141FUTAEp3L_14liquid_staking8callback16CallbackProxyObjINtNtNtNtCs2614o7AVePg_22multiversx_sc_scenario3api7impl_vh12vm_hooks_api10VMHooksApiNtNtB17_9debug_api15DebugApiBackendEENtB5_13CallbackProxy25remove_liquidity_callbackCsbv7vZMOU1ip_13delegate_test
FNDA:1,_RNvYINtNtCs141FUTAEp3L_14liquid_staking8callback16CallbackProxyObjINtNtNtNtCs2614o7AVePg_22multiversx_sc_scenario3api7impl_vh12vm_hooks_api10VMHooksApiNtNtB17_9debug_api15DebugApiBackendEENtB5_13CallbackProxy36instant_delegation_contract_callbackCsbv7vZMOU1ip_13delegate_test
FNDA:16,_RNvYINtNtCs141FUTAEp3L_14liquid_staking8callback16CallbackProxyObjINtNtNtNtCs2614o7AVePg_22multiversx_sc_scenario3api7impl_vh12vm_hooks_api10VMHooksApiNtNtB17_9debug_api15DebugApiBackendEENtB5_13CallbackProxy38whitelist_delegation_contract_callbackCsbv7vZMOU1ip_13delegate_test
FNDA:24,_RNvXNtCs141FUTAEp3L_14liquid_staking8callbackINtNtNtCsd0DXYhglbat_13multiversx_sc13contract_base22universal_contract_obj20UniversalContractObjINtNtNtNtCs2614o7AVePg_22multiversx_sc_scenario3api7impl_vh12vm_hooks_api10VMHooksApiNtNtB2l_9debug_api15DebugApiBackendEENtB2_14CallbackModule9callbacksCsbv7vZMOU1ip_13delegate_test
FNDA:7,_RNvYINtNtNtCsd0DXYhglbat_13multiversx_sc13contract_base22universal_contract_obj20UniversalContractObjINtNtNtNtCs2614o7AVePg_22multiversx_sc_scenario3api7impl_vh12vm_hooks_api10VMHooksApiNtNtB1G_9debug_api15DebugApiBackendEENtNtCs141FUTAEp3L_14liquid_staking8callback14CallbackModule22add_liquidity_callbackCsbv7vZMOU1ip_13delegate_test
FNDA:0,_RNvYINtNtNtCsd0DXYhglbat_13multiversx_sc13contract_base22universal_contract_obj20UniversalContractObjINtNtNtNtCs2614o7AVePg_22multiversx_sc_scenario3api7impl_vh12vm_hooks_api10VMHooksApiNtNtB1G_9debug_api15DebugApiBackendEENtNtCs141FUTAEp3L_14liquid_staking8callback14CallbackModule22claim_rewards_callbackCsbv7vZMOU1ip_13delegate_test
FNDA:0,_RNvYINtNtNtCsd0DXYhglbat_13multiversx_sc13contract_base22universal_contract_obj20UniversalContractObjINtNtNtNtCs2614o7AVePg_22multiversx_sc_scenario3api7impl_vh12vm_hooks_api10VMHooksApiNtNtB1G_9debug_api15DebugApiBackendEENtNtCs141FUTAEp3L_14liquid_staking8callback14CallbackModule24withdraw_tokens_callbackCsbv7vZMOU1ip_13delegate_test
FNDA:0,_RNvYINtNtNtCsd0DXYhglbat_13multiversx_sc13contract_base22universal_contract_obj20UniversalContractObjINtNtNtNtCs2614o7AVePg_22multiversx_sc_scenario3api7impl_vh12vm_hooks_api10VMHooksApiNtNtB1G_9debug_api15DebugApiBackendEENtNtCs141FUTAEp3L_14liquid_staking8callback14CallbackModule25remove_liquidity_callbackCsbv7vZMOU1ip_13delegate_test
FNDA:1,_RNvYINtNtNtCsd0DXYhglbat_13multiversx_sc13contract_base22universal_contract_obj20UniversalContractObjINtNtNtNtCs2614o7AVePg_22multiversx_sc_scenario3api7impl_vh12vm_hooks_api10VMHooksApiNtNtB1G_9debug_api15DebugApiBackendEENtNtCs141FUTAEp3L_14liquid_staking8callback14CallbackModule36instant_delegation_contract_callbackCsbv7vZMOU1ip_13delegate_test
FNDA:16,_RNvYINtNtNtCsd0DXYhglbat_13multiversx_sc13contract_base22universal_contract_obj20UniversalContractObjINtNtNtNtCs2614o7AVePg_22multiversx_sc_scenario3api7impl_vh12vm_hooks_api10VMHooksApiNtNtB1G_9debug_api15DebugApiBackendEENtNtCs141FUTAEp3L_14liquid_staking8callback14CallbackModule38whitelist_delegation_contract_callbackCsbv7vZMOU1ip_13delegate_test
FNDA:0,_RNvYINtNtNtCsd0DXYhglbat_13multiversx_sc13contract_base22universal_contract_obj20UniversalContractObjINtNtNtNtCs2614o7AVePg_22multiversx_sc_scenario3api7impl_vh12vm_hooks_api10VMHooksApiNtNtB1G_9debug_api15DebugApiBackendEENtNtCs141FUTAEp3L_14liquid_staking8callback16EndpointWrappers17callback_selectorCsbv7vZMOU1ip_13delegate_test
FNDA:7,_RNvYINtNtNtCsd0DXYhglbat_13multiversx_sc13contract_base22universal_contract_obj20UniversalContractObjINtNtNtNtCs2614o7AVePg_22multiversx_sc_scenario3api7impl_vh12vm_hooks_api10VMHooksApiNtNtB1G_9debug_api15DebugApiBackendEENtNtCs141FUTAEp3L_14liquid_staking8callback16EndpointWrappers27call_add_liquidity_callbackCsbv7vZMOU1ip_13delegate_test
FNDA:0,_RNvYINtNtNtCsd0DXYhglbat_13multiversx_sc13contract_base22universal_contract_obj20UniversalContractObjINtNtNtNtCs2614o7AVePg_22multiversx_sc_scenario3api7impl_vh12vm_hooks_api10VMHooksApiNtNtB1G_9debug_api15DebugApiBackendEENtNtCs141FUTAEp3L_14liquid_staking8callback16EndpointWrappers27call_claim_rewards_callbackCsbv7vZMOU1ip_13delegate_test
FNDA:0,_RNvYINtNtNtCsd0DXYhglbat_13multiversx_sc13contract_base22universal_contract_obj20UniversalContractObjINtNtNtNtCs2614o7AVePg_22multiversx_sc_scenario3api7impl_vh12vm_hooks_api10VMHooksApiNtNtB1G_9debug_api15DebugApiBackendEENtNtCs141FUTAEp3L_14liquid_staking8callback16EndpointWrappers29call_withdraw_tokens_callbackCsbv7vZMOU1ip_13delegate_test
FNDA:0,_RNvYINtNtNtCsd0DXYhglbat_13multiversx_sc13contract_base22universal_contract_obj20UniversalContractObjINtNtNtNtCs2614o7AVePg_22multiversx_sc_scenario3api7impl_vh12vm_hooks_api10VMHooksApiNtNtB1G_9debug_api15DebugApiBackendEENtNtCs141FUTAEp3L_14liquid_staking8callback16EndpointWrappers30call_remove_liquidity_callbackCsbv7vZMOU1ip_13delegate_test
FNDA:1,_RNvYINtNtNtCsd0DXYhglbat_13multiversx_sc13contract_base22universal_contract_obj20UniversalContractObjINtNtNtNtCs2614o7AVePg_22multiversx_sc_scenario3api7impl_vh12vm_hooks_api10VMHooksApiNtNtB1G_9debug_api15DebugApiBackendEENtNtCs141FUTAEp3L_14liquid_staking8callback16EndpointWrappers41call_instant_delegation_contract_callbackCsbv7vZMOU1ip_13delegate_test
FNDA:16,_RNvYINtNtNtCsd0DXYhglbat_13multiversx_sc13contract_base22universal_contract_obj20UniversalContractObjINtNtNtNtCs2614o7AVePg_22multiversx_sc_scenario3api7impl_vh12vm_hooks_api10VMHooksApiNtNtB1G_9debug_api15DebugApiBackendEENtNtCs141FUTAEp3L_14liquid_staking8callback16EndpointWrappers43call_whitelist_delegation_contract_callbackCsbv7vZMOU1ip_13delegate_test
FNDA:40,_RNvYINtNtNtCsd0DXYhglbat_13multiversx_sc13contract_base22universal_contract_obj20UniversalContractObjINtNtNtNtCs2614o7AVePg_22multiversx_sc_scenario3api7impl_vh12vm_hooks_api10VMHooksApiNtNtB1G_9debug_api15DebugApiBackendEENtNtCs141FUTAEp3L_14liquid_staking8callback16EndpointWrappers4callCsbv7vZMOU1ip_13delegate_test
FNDA:0,_RNvYINtNtNtCsd0DXYhglbat_13multiversx_sc13contract_base22universal_contract_obj20UniversalContractObjINtNtNtNtCs2614o7AVePg_22multiversx_sc_scenario3api7impl_vh12vm_hooks_api10VMHooksApiNtNtB1G_9debug_api15DebugApiBackendEENtNtCs141FUTAEp3L_14liquid_staking8callback16EndpointWrappers8callbackCsbv7vZMOU1ip_13delegate_test
FNDA:0,_RNvYpNtNtCs2edAa8LGkSL_14liquid_staking8callback14CallbackModule25remove_liquidity_callbackB7_
FNDA:0,_RNCNvYpNtNtCs2edAa8LGkSL_14liquid_staking8callback14CallbackModule25remove_liquidity_callback0B9_
FNDA:0,_RNCNvYpNtNtCs2edAa8LGkSL_14liquid_staking8callback14CallbackModule25remove_liquidity_callbacks_0B9_
FNDA:0,_RNvYpNtNtCs2edAa8LGkSL_14liquid_staking8callback14CallbackModule22add_liquidity_callbackB7_
FNDA:0,_RNCNvYpNtNtCs2edAa8LGkSL_14liquid_staking8callback14CallbackModule22add_liquidity_callback0B9_
FNDA:0,_RNCNvYpNtNtCs2edAa8LGkSL_14liquid_staking8callback14CallbackModule22add_liquidity_callbacks_0B9_
FNDA:0,_RNvYpNtNtCs2edAa8LGkSL_14liquid_staking8callback14CallbackModule24withdraw_tokens_callbackB7_
FNDA:0,_RNCNvYpNtNtCs2edAa8LGkSL_14liquid_staking8callback14CallbackModule24withdraw_tokens_callback0B9_
FNDA:0,_RNvYpNtNtCs2edAa8LGkSL_14liquid_staking8callback14CallbackModule22claim_rewards_callbackB7_
FNDA:0,_RNvYpNtNtCs2edAa8LGkSL_14liquid_staking8callback14CallbackModule38whitelist_delegation_contract_callbackB7_
FNDA:0,_RNvYpNtNtCs2edAa8LGkSL_14liquid_staking8callback14CallbackModule36instant_delegation_contract_callbackB7_
FNDA:0,_RNCNvYpNtNtCs2edAa8LGkSL_14liquid_staking8callback14CallbackModule36instant_delegation_contract_callback0B9_
FNDA:0,_RNvXININtCs2edAa8LGkSL_14liquid_staking8callback0pEpNtB5_14CallbackModule9callbacksB7_
FNDA:0,_RNvYpNtNtCs2edAa8LGkSL_14liquid_staking8callback16EndpointWrappers30call_remove_liquidity_callbackB7_
FNDA:0,_RNvYpNtNtCs2edAa8LGkSL_14liquid_staking8callback16EndpointWrappers27call_add_liquidity_callbackB7_
FNDA:0,_RNvYpNtNtCs2edAa8LGkSL_14liquid_staking8callback16EndpointWrappers29call_withdraw_tokens_callbackB7_
FNDA:0,_RNvYpNtNtCs2edAa8LGkSL_14liquid_staking8callback16EndpointWrappers27call_claim_rewards_callbackB7_
FNDA:0,_RNvYpNtNtCs2edAa8LGkSL_14liquid_staking8callback16EndpointWrappers43call_whitelist_delegation_contract_callbackB7_
FNDA:0,_RNvYpNtNtCs2edAa8LGkSL_14liquid_staking8callback16EndpointWrappers41call_instant_delegation_contract_callbackB7_
FNDA:0,_RNvYpNtNtCs2edAa8LGkSL_14liquid_staking8callback16EndpointWrappers4callB7_
FNDA:0,_RNvYpNtNtCs2edAa8LGkSL_14liquid_staking8callback16EndpointWrappers17callback_selectorB7_
FNDA:0,_RNvYpNtNtCs2edAa8LGkSL_14liquid_staking8callback16EndpointWrappers8callbackB7_
FNDA:0,_RNvXs1_NtCs2edAa8LGkSL_14liquid_staking8callbackNtB5_11AbiProviderNtNtNtCsd0DXYhglbat_13multiversx_sc13contract_base21contract_abi_provider19ContractAbiProvider3abi
FNDA:0,_RNvXININtCs2edAa8LGkSL_14liquid_staking8callbacksl_0pEINtB5_11ContractObjpENtNtNtCsd0DXYhglbat_13multiversx_sc13contract_base17callable_contract16CallableContract4callB7_
FNDA:0,_RINvNtCs2edAa8LGkSL_14liquid_staking8callback12contract_objpEB4_
FNDA:0,_RINvXsm_NtCs2edAa8LGkSL_14liquid_staking8callbackNtB6_15ContractBuilderNtNtNtCsd0DXYhglbat_13multiversx_sc13contract_base17callable_contract23CallableContractBuilder16new_contract_objpEB8_
FNDA:0,_RINvNtNtCs2edAa8LGkSL_14liquid_staking8callback19___wasm__endpoints__25remove_liquidity_callbackpEB6_
FNDA:0,_RINvNtNtCs2edAa8LGkSL_14liquid_staking8callback19___wasm__endpoints__22add_liquidity_callbackpEB6_
FNDA:0,_RINvNtNtCs2edAa8LGkSL_14liquid_staking8callback19___wasm__endpoints__24withdraw_tokens_callbackpEB6_
FNDA:0,_RINvNtNtCs2edAa8LGkSL_14liquid_staking8callback19___wasm__endpoints__22claim_rewards_callbackpEB6_
FNDA:0,_RINvNtNtCs2edAa8LGkSL_14liquid_staking8callback19___wasm__endpoints__38whitelist_delegation_contract_callbackpEB6_
FNDA:0,_RINvNtNtCs2edAa8LGkSL_14liquid_staking8callback19___wasm__endpoints__36instant_delegation_contract_callbackpEB6_
FNDA:0,_RNvXININtCs2edAa8LGkSL_14liquid_staking8callbacksn_0pEINtB5_16CallbackProxyObjpENtNtNtCsd0DXYhglbat_13multiversx_sc13contract_base23proxy_obj_callback_base20CallbackProxyObjBase16new_cb_proxy_objB7_
FNDA:0,_RNvYpNtNtCs2edAa8LGkSL_14liquid_staking8callback13CallbackProxy25remove_liquidity_callbackB7_
FNDA:0,_RNvYpNtNtCs2edAa8LGkSL_14liquid_staking8callback13CallbackProxy22add_liquidity_callbackB7_
FNDA:0,_RNvYpNtNtCs2edAa8LGkSL_14liquid_staking8callback13CallbackProxy24withdraw_tokens_callbackB7_
FNDA:0,_RNvYpNtNtCs2edAa8LGkSL_14liquid_staking8callback13CallbackProxy22claim_rewards_callbackB7_
FNDA:0,_RNvYpNtNtCs2edAa8LGkSL_14liquid_staking8callback13CallbackProxy38whitelist_delegation_contract_callbackB7_
FNDA:0,_RNvYpNtNtCs2edAa8LGkSL_14liquid_staking8callback13CallbackProxy36instant_delegation_contract_callbackB7_
FNDA:31,_RNvXNtCs141FUTAEp3L_14liquid_staking8callbackINtNtNtCsd0DXYhglbat_13multiversx_sc13contract_base22universal_contract_obj20UniversalContractObjINtNtNtNtCs2614o7AVePg_22multiversx_sc_scenario3api7impl_vh12vm_hooks_api10VMHooksApiNtNtB2l_9debug_api15DebugApiBackendEENtB2_14CallbackModule9callbacksCs25HLPETZpNm_4test
FNDA:18,_RNvYINtNtNtCsd0DXYhglbat_13multiversx_sc13contract_base22universal_contract_obj20UniversalContractObjINtNtNtNtCs2614o7AVePg_22multiversx_sc_scenario3api7impl_vh12vm_hooks_api10VMHooksApiNtNtB1G_9debug_api15DebugApiBackendEENtNtCs141FUTAEp3L_14liquid_staking8callback14CallbackModule22add_liquidity_callbackCs25HLPETZpNm_4test
FNDA:0,_RNvYINtNtNtCsd0DXYhglbat_13multiversx_sc13contract_base22universal_contract_obj20UniversalContractObjINtNtNtNtCs2614o7AVePg_22multiversx_sc_scenario3api7impl_vh12vm_hooks_api10VMHooksApiNtNtB1G_9debug_api15DebugApiBackendEENtNtCs141FUTAEp3L_14liquid_staking8callback14CallbackModule22claim_rewards_callbackCs25HLPETZpNm_4test
FNDA:2,_RNvYINtNtNtCsd0DXYhglbat_13multiversx_sc13contract_base22universal_contract_obj20UniversalContractObjINtNtNtNtCs2614o7AVePg_22multiversx_sc_scenario3api7impl_vh12vm_hooks_api10VMHooksApiNtNtB1G_9debug_api15DebugApiBackendEENtNtCs141FUTAEp3L_14liquid_staking8callback14CallbackModule24withdraw_tokens_callbackCs25HLPETZpNm_4test
FNDA:2,_RNvYINtNtNtCsd0DXYhglbat_13multiversx_sc13contract_base22universal_contract_obj20UniversalContractObjINtNtNtNtCs2614o7AVePg_22multiversx_sc_scenario3api7impl_vh12vm_hooks_api10VMHooksApiNtNtB1G_9debug_api15DebugApiBackendEENtNtCs141FUTAEp3L_14liquid_staking8callback14CallbackModule25remove_liquidity_callbackCs25HLPETZpNm_4test
FNDA:0,_RNvYINtNtNtCsd0DXYhglbat_13multiversx_sc13contract_base22universal_contract_obj20UniversalContractObjINtNtNtNtCs2614o7AVePg_22multiversx_sc_scenario3api7impl_vh12vm_hooks_api10VMHooksApiNtNtB1G_9debug_api15DebugApiBackendEENtNtCs141FUTAEp3L_14liquid_staking8callback14CallbackModule36instant_delegation_contract_callbackCs25HLPETZpNm_4test
FNDA:7,_RNvYINtNtNtCsd0DXYhglbat_13multiversx_sc13contract_base22universal_contract_obj20UniversalContractObjINtNtNtNtCs2614o7AVePg_22multiversx_sc_scenario3api7impl_vh12vm_hooks_api10VMHooksApiNtNtB1G_9debug_api15DebugApiBackendEENtNtCs141FUTAEp3L_14liquid_staking8callback14CallbackModule38whitelist_delegation_contract_callbackCs25HLPETZpNm_4test
FNDA:0,_RNvYINtNtNtCsd0DXYhglbat_13multiversx_sc13contract_base22universal_contract_obj20UniversalContractObjINtNtNtNtCs2614o7AVePg_22multiversx_sc_scenario3api7impl_vh12vm_hooks_api10VMHooksApiNtNtB1G_9debug_api15DebugApiBackendEENtNtCs141FUTAEp3L_14liquid_staking8callback16EndpointWrappers17callback_selectorCs25HLPETZpNm_4test
FNDA:18,_RNvYINtNtNtCsd0DXYhglbat_13multiversx_sc13contract_base22universal_contract_obj20UniversalContractObjINtNtNtNtCs2614o7AVePg_22multiversx_sc_scenario3api7impl_vh12vm_hooks_api10VMHooksApiNtNtB1G_9debug_api15DebugApiBackendEENtNtCs141FUTAEp3L_14liquid_staking8callback16EndpointWrappers27call_add_liquidity_callbackCs25HLPETZpNm_4test
FNDA:0,_RNvYINtNtNtCsd0DXYhglbat_13multiversx_sc13contract_base22universal_contract_obj20UniversalContractObjINtNtNtNtCs2614o7AVePg_22multiversx_sc_scenario3api7impl_vh12vm_hooks_api10VMHooksApiNtNtB1G_9debug_api15DebugApiBackendEENtNtCs141FUTAEp3L_14liquid_staking8callback16EndpointWrappers27call_claim_rewards_callbackCs25HLPETZpNm_4test
FNDA:2,_RNvYINtNtNtCsd0DXYhglbat_13multiversx_sc13contract_base22universal_contract_obj20UniversalContractObjINtNtNtNtCs2614o7AVePg_22multiversx_sc_scenario3api7impl_vh12vm_hooks_api10VMHooksApiNtNtB1G_9debug_api15DebugApiBackendEENtNtCs141FUTAEp3L_14liquid_staking8callback16EndpointWrappers29call_withdraw_tokens_callbackCs25HLPETZpNm_4test
FNDA:2,_RNvYINtNtNtCsd0DXYhglbat_13multiversx_sc13contract_base22universal_contract_obj20UniversalContractObjINtNtNtNtCs2614o7AVePg_22multiversx_sc_scenario3api7impl_vh12vm_hooks_api10VMHooksApiNtNtB1G_9debug_api15DebugApiBackendEENtNtCs141FUTAEp3L_14liquid_staking8callback16EndpointWrappers30call_remove_liquidity_callbackCs25HLPETZpNm_4test
FNDA:0,_RNvYINtNtNtCsd0DXYhglbat_13multiversx_sc13contract_base22universal_contract_obj20UniversalContractObjINtNtNtNtCs2614o7AVePg_22multiversx_sc_scenario3api7impl_vh12vm_hooks_api10VMHooksApiNtNtB1G_9debug_api15DebugApiBackendEENtNtCs141FUTAEp3L_14liquid_staking8callback16EndpointWrappers41call_instant_delegation_contract_callbackCs25HLPETZpNm_4test
FNDA:7,_RNvYINtNtNtCsd0DXYhglbat_13multiversx_sc13contract_base22universal_contract_obj20UniversalContractObjINtNtNtNtCs2614o7AVePg_22multiversx_sc_scenario3api7impl_vh12vm_hooks_api10VMHooksApiNtNtB1G_9debug_api15DebugApiBackendEENtNtCs141FUTAEp3L_14liquid_staking8callback16EndpointWrappers43call_whitelist_delegation_contract_callbackCs25HLPETZpNm_4test
FNDA:40,_RNvYINtNtNtCsd0DXYhglbat_13multiversx_sc13contract_base22universal_contract_obj20UniversalContractObjINtNtNtNtCs2614o7AVePg_22multiversx_sc_scenario3api7impl_vh12vm_hooks_api10VMHooksApiNtNtB1G_9debug_api15DebugApiBackendEENtNtCs141FUTAEp3L_14liquid_staking8callback16EndpointWrappers4callCs25HLPETZpNm_4test
FNDA:0,_RNvYINtNtNtCsd0DXYhglbat_13multiversx_sc13contract_base22universal_contract_obj20UniversalContractObjINtNtNtNtCs2614o7AVePg_22multiversx_sc_scenario3api7impl_vh12vm_hooks_api10VMHooksApiNtNtB1G_9debug_api15DebugApiBackendEENtNtCs141FUTAEp3L_14liquid_staking8callback16EndpointWrappers8callbackCs25HLPETZpNm_4test
FNDA:18,_RNCNvYINtNtNtCsd0DXYhglbat_13multiversx_sc13contract_base22universal_contract_obj20UniversalContractObjINtNtNtNtCs2614o7AVePg_22multiversx_sc_scenario3api7impl_vh12vm_hooks_api10VMHooksApiNtNtB1I_9debug_api15DebugApiBackendEENtNtCs141FUTAEp3L_14liquid_staking8callback14CallbackModule22add_liquidity_callback0Cs25HLPETZpNm_4test
FNDA:0,_RNCNvYINtNtNtCsd0DXYhglbat_13multiversx_sc13contract_base22universal_contract_obj20UniversalContractObjINtNtNtNtCs2614o7AVePg_22multiversx_sc_scenario3api7impl_vh12vm_hooks_api10VMHooksApiNtNtB1I_9debug_api15DebugApiBackendEENtNtCs141FUTAEp3L_14liquid_staking8callback14CallbackModule22add_liquidity_callbacks_0Cs25HLPETZpNm_4test
FNDA:2,_RNCNvYINtNtNtCsd0DXYhglbat_13multiversx_sc13contract_base22universal_contract_obj20UniversalContractObjINtNtNtNtCs2614o7AVePg_22multiversx_sc_scenario3api7impl_vh12vm_hooks_api10VMHooksApiNtNtB1I_9debug_api15DebugApiBackendEENtNtCs141FUTAEp3L_14liquid_staking8callback14CallbackModule24withdraw_tokens_callback0Cs25HLPETZpNm_4test
FNDA:2,_RNCNvYINtNtNtCsd0DXYhglbat_13multiversx_sc13contract_base22universal_contract_obj20UniversalContractObjINtNtNtNtCs2614o7AVePg_22multiversx_sc_scenario3api7impl_vh12vm_hooks_api10VMHooksApiNtNtB1I_9debug_api15DebugApiBackendEENtNtCs141FUTAEp3L_14liquid_staking8callback14CallbackModule25remove_liquidity_callback0Cs25HLPETZpNm_4test
FNDA:0,_RNCNvYINtNtNtCsd0DXYhglbat_13multiversx_sc13contract_base22universal_contract_obj20UniversalContractObjINtNtNtNtCs2614o7AVePg_22multiversx_sc_scenario3api7impl_vh12vm_hooks_api10VMHooksApiNtNtB1I_9debug_api15DebugApiBackendEENtNtCs141FUTAEp3L_14liquid_staking8callback14CallbackModule25remove_liquidity_callbacks_0Cs25HLPETZpNm_4test
FNDA:0,_RNCNvYINtNtNtCsd0DXYhglbat_13multiversx_sc13contract_base22universal_contract_obj20UniversalContractObjINtNtNtNtCs2614o7AVePg_22multiversx_sc_scenario3api7impl_vh12vm_hooks_api10VMHooksApiNtNtB1I_9debug_api15DebugApiBackendEENtNtCs141FUTAEp3L_14liquid_staking8callback14CallbackModule36instant_delegation_contract_callback0Cs25HLPETZpNm_4test
FNDA:31,_RNvXsn_NtCs141FUTAEp3L_14liquid_staking8callbackINtB5_16CallbackProxyObjINtNtNtNtCs2614o7AVePg_22multiversx_sc_scenario3api7impl_vh12vm_hooks_api10VMHooksApiNtNtB1d_9debug_api15DebugApiBackendEENtNtNtCsd0DXYhglbat_13multiversx_sc13contract_base23proxy_obj_callback_base20CallbackProxyObjBase16new_cb_proxy_objCs25HLPETZpNm_4test
FNDA:18,_RNvYINtNtCs141FUTAEp3L_14liquid_staking8callback16CallbackProxyObjINtNtNtNtCs2614o7AVePg_22multiversx_sc_scenario3api7impl_vh12vm_hooks_api10VMHooksApiNtNtB17_9debug_api15DebugApiBackendEENtB5_13CallbackProxy22add_liquidity_callbackCs25HLPETZpNm_4test
FNDA:2,_RNvYINtNtCs141FUTAEp3L_14liquid_staking8callback16CallbackProxyObjINtNtNtNtCs2614o7AVePg_22multiversx_sc_scenario3api7impl_vh12vm_hooks_api10VMHooksApiNtNtB17_9debug_api15DebugApiBackendEENtB5_13CallbackProxy22claim_rewards_callbackCs25HLPETZpNm_4test
FNDA:2,_RNvYINtNtCs141FUTAEp3L_14liquid_staking8callback16CallbackProxyObjINtNtNtNtCs2614o7AVePg_22multiversx_sc_scenario3api7impl_vh12vm_hooks_api10VMHooksApiNtNtB17_9debug_api15DebugApiBackendEENtB5_13CallbackProxy24withdraw_tokens_callbackCs25HLPETZpNm_4test
FNDA:2,_RNvYINtNtCs141FUTAEp3L_14liquid_staking8callback16CallbackProxyObjINtNtNtNtCs2614o7AVePg_22multiversx_sc_scenario3api7impl_vh12vm_hooks_api10VMHooksApiNtNtB17_9debug_api15DebugApiBackendEENtB5_13CallbackProxy25remove_liquidity_callbackCs25HLPETZpNm_4test
FNDA:0,_RNvYINtNtCs141FUTAEp3L_14liquid_staking8callback16CallbackProxyObjINtNtNtNtCs2614o7AVePg_22multiversx_sc_scenario3api7impl_vh12vm_hooks_api10VMHooksApiNtNtB17_9debug_api15DebugApiBackendEENtB5_13CallbackProxy36instant_delegation_contract_callbackCs25HLPETZpNm_4test
FNDA:7,_RNvYINtNtCs141FUTAEp3L_14liquid_staking8callback16CallbackProxyObjINtNtNtNtCs2614o7AVePg_22multiversx_sc_scenario3api7impl_vh12vm_hooks_api10VMHooksApiNtNtB17_9debug_api15DebugApiBackendEENtB5_13CallbackProxy38whitelist_delegation_contract_callbackCs25HLPETZpNm_4test
FNDA:819,_RNvXNtCs141FUTAEp3L_14liquid_staking8callbackINtNtNtCsd0DXYhglbat_13multiversx_sc13contract_base22universal_contract_obj20UniversalContractObjINtNtNtNtCs2614o7AVePg_22multiversx_sc_scenario3api7impl_vh12vm_hooks_api10VMHooksApiNtNtB2l_9debug_api15DebugApiBackendEENtB2_14CallbackModule9callbacksCsgub9DQDg2s9_15unDelegate_test
FNDA:341,_RNvYINtNtNtCsd0DXYhglbat_13multiversx_sc13contract_base22universal_contract_obj20UniversalContractObjINtNtNtNtCs2614o7AVePg_22multiversx_sc_scenario3api7impl_vh12vm_hooks_api10VMHooksApiNtNtB1G_9debug_api15DebugApiBackendEENtNtCs141FUTAEp3L_14liquid_staking8callback14CallbackModule22add_liquidity_callbackCsgub9DQDg2s9_15unDelegate_test
FNDA:0,_RNvYINtNtNtCsd0DXYhglbat_13multiversx_sc13contract_base22universal_contract_obj20UniversalContractObjINtNtNtNtCs2614o7AVePg_22multiversx_sc_scenario3api7impl_vh12vm_hooks_api10VMHooksApiNtNtB1G_9debug_api15DebugApiBackendEENtNtCs141FUTAEp3L_14liquid_staking8callback14CallbackModule22claim_rewards_callbackCsgub9DQDg2s9_15unDelegate_test
FNDA:0,_RNvYINtNtNtCsd0DXYhglbat_13multiversx_sc13contract_base22universal_contract_obj20UniversalContractObjINtNtNtNtCs2614o7AVePg_22multiversx_sc_scenario3api7impl_vh12vm_hooks_api10VMHooksApiNtNtB1G_9debug_api15DebugApiBackendEENtNtCs141FUTAEp3L_14liquid_staking8callback14CallbackModule24withdraw_tokens_callbackCsgub9DQDg2s9_15unDelegate_test
FNDA:89,_RNvYINtNtNtCsd0DXYhglbat_13multiversx_sc13contract_base22universal_contract_obj20UniversalContractObjINtNtNtNtCs2614o7AVePg_22multiversx_sc_scenario3api7impl_vh12vm_hooks_api10VMHooksApiNtNtB1G_9debug_api15DebugApiBackendEENtNtCs141FUTAEp3L_14liquid_staking8callback14CallbackModule25remove_liquidity_callbackCsgub9DQDg2s9_15unDelegate_test
FNDA:0,_RNvYINtNtNtCsd0DXYhglbat_13multiversx_sc13contract_base22universal_contract_obj20UniversalContractObjINtNtNtNtCs2614o7AVePg_22multiversx_sc_scenario3api7impl_vh12vm_hooks_api10VMHooksApiNtNtB1G_9debug_api15DebugApiBackendEENtNtCs141FUTAEp3L_14liquid_staking8callback14CallbackModule36instant_delegation_contract_callbackCsgub9DQDg2s9_15unDelegate_test
FNDA:389,_RNvYINtNtNtCsd0DXYhglbat_13multiversx_sc13contract_base22universal_contract_obj20UniversalContractObjINtNtNtNtCs2614o7AVePg_22multiversx_sc_scenario3api7impl_vh12vm_hooks_api10VMHooksApiNtNtB1G_9debug_api15DebugApiBackendEENtNtCs141FUTAEp3L_14liquid_staking8callback14CallbackModule38whitelist_delegation_contract_callbackCsgub9DQDg2s9_15unDelegate_test
FNDA:0,_RNvYINtNtNtCsd0DXYhglbat_13multiversx_sc13contract_base22universal_contract_obj20UniversalContractObjINtNtNtNtCs2614o7AVePg_22multiversx_sc_scenario3api7impl_vh12vm_hooks_api10VMHooksApiNtNtB1G_9debug_api15DebugApiBackendEENtNtCs141FUTAEp3L_14liquid_staking8callback16EndpointWrappers17callback_selectorCsgub9DQDg2s9_15unDelegate_test
FNDA:341,_RNvYINtNtNtCsd0DXYhglbat_13multiversx_sc13contract_base22universal_contract_obj20UniversalContractObjINtNtNtNtCs2614o7AVePg_22multiversx_sc_scenario3api7impl_vh12vm_hooks_api10VMHooksApiNtNtB1G_9debug_api15DebugApiBackendEENtNtCs141FUTAEp3L_14liquid_staking8callback16EndpointWrappers27call_add_liquidity_callbackCsgub9DQDg2s9_15unDelegate_test
FNDA:0,_RNvYINtNtNtCsd0DXYhglbat_13multiversx_sc13contract_base22universal_contract_obj20UniversalContractObjINtNtNtNtCs2614o7AVePg_22multiversx_sc_scenario3api7impl_vh12vm_hooks_api10VMHooksApiNtNtB1G_9debug_api15DebugApiBackendEENtNtCs141FUTAEp3L_14liquid_staking8callback16EndpointWrappers27call_claim_rewards_callbackCsgub9DQDg2s9_15unDelegate_test
FNDA:0,_RNvYINtNtNtCsd0DXYhglbat_13multiversx_sc13contract_base22universal_contract_obj20UniversalContractObjINtNtNtNtCs2614o7AVePg_22multiversx_sc_scenario3api7impl_vh12vm_hooks_api10VMHooksApiNtNtB1G_9debug_api15DebugApiBackendEENtNtCs141FUTAEp3L_14liquid_staking8callback16EndpointWrappers29call_withdraw_tokens_callbackCsgub9DQDg2s9_15unDelegate_test
FNDA:89,_RNvYINtNtNtCsd0DXYhglbat_13multiversx_sc13contract_base22universal_contract_obj20UniversalContractObjINtNtNtNtCs2614o7AVePg_22multiversx_sc_scenario3api7impl_vh12vm_hooks_api10VMHooksApiNtNtB1G_9debug_api15DebugApiBackendEENtNtCs141FUTAEp3L_14liquid_staking8callback16EndpointWrappers30call_remove_liquidity_callbackCsgub9DQDg2s9_15unDelegate_test
FNDA:0,_RNvYINtNtNtCsd0DXYhglbat_13multiversx_sc13contract_base22universal_contract_obj20UniversalContractObjINtNtNtNtCs2614o7AVePg_22multiversx_sc_scenario3api7impl_vh12vm_hooks_api10VMHooksApiNtNtB1G_9debug_api15DebugApiBackendEENtNtCs141FUTAEp3L_14liquid_staking8callback16EndpointWrappers41call_instant_delegation_contract_callbackCsgub9DQDg2s9_15unDelegate_test
FNDA:389,_RNvYINtNtNtCsd0DXYhglbat_13multiversx_sc13contract_base22universal_contract_obj20UniversalContractObjINtNtNtNtCs2614o7AVePg_22multiversx_sc_scenario3api7impl_vh12vm_hooks_api10VMHooksApiNtNtB1G_9debug_api15DebugApiBackendEENtNtCs141FUTAEp3L_14liquid_staking8callback16EndpointWrappers43call_whitelist_delegation_contract_callbackCsgub9DQDg2s9_15unDelegate_test
FNDA:1208,_RNvYINtNtNtCsd0DXYhglbat_13multiversx_sc13contract_base22universal_contract_obj20UniversalContractObjINtNtNtNtCs2614o7AVePg_22multiversx_sc_scenario3api7impl_vh12vm_hooks_api10VMHooksApiNtNtB1G_9debug_api15DebugApiBackendEENtNtCs141FUTAEp3L_14liquid_staking8callback16EndpointWrappers4callCsgub9DQDg2s9_15unDelegate_test
FNDA:0,_RNvYINtNtNtCsd0DXYhglbat_13multiversx_sc13contract_base22universal_contract_obj20UniversalContractObjINtNtNtNtCs2614o7AVePg_22multiversx_sc_scenario3api7impl_vh12vm_hooks_api10VMHooksApiNtNtB1G_9debug_api15DebugApiBackendEENtNtCs141FUTAEp3L_14liquid_staking8callback16EndpointWrappers8callbackCsgub9DQDg2s9_15unDelegate_test
FNDA:341,_RNCNvYINtNtNtCsd0DXYhglbat_13multiversx_sc13contract_base22universal_contract_obj20UniversalContractObjINtNtNtNtCs2614o7AVePg_22multiversx_sc_scenario3api7impl_vh12vm_hooks_api10VMHooksApiNtNtB1I_9debug_api15DebugApiBackendEENtNtCs141FUTAEp3L_14liquid_staking8callback14CallbackModule22add_liquidity_callback0Csgub9DQDg2s9_15unDelegate_test
FNDA:0,_RNCNvYINtNtNtCsd0DXYhglbat_13multiversx_sc13contract_base22universal_contract_obj20UniversalContractObjINtNtNtNtCs2614o7AVePg_22multiversx_sc_scenario3api7impl_vh12vm_hooks_api10VMHooksApiNtNtB1I_9debug_api15DebugApiBackendEENtNtCs141FUTAEp3L_14liquid_staking8callback14CallbackModule22add_liquidity_callbacks_0Csgub9DQDg2s9_15unDelegate_test
FNDA:0,_RNCNvYINtNtNtCsd0DXYhglbat_13multiversx_sc13contract_base22universal_contract_obj20UniversalContractObjINtNtNtNtCs2614o7AVePg_22multiversx_sc_scenario3api7impl_vh12vm_hooks_api10VMHooksApiNtNtB1I_9debug_api15DebugApiBackendEENtNtCs141FUTAEp3L_14liquid_staking8callback14CallbackModule24withdraw_tokens_callback0Csgub9DQDg2s9_15unDelegate_test
FNDA:89,_RNCNvYINtNtNtCsd0DXYhglbat_13multiversx_sc13contract_base22universal_contract_obj20UniversalContractObjINtNtNtNtCs2614o7AVePg_22multiversx_sc_scenario3api7impl_vh12vm_hooks_api10VMHooksApiNtNtB1I_9debug_api15DebugApiBackendEENtNtCs141FUTAEp3L_14liquid_staking8callback14CallbackModule25remove_liquidity_callback0Csgub9DQDg2s9_15unDelegate_test
FNDA:0,_RNCNvYINtNtNtCsd0DXYhglbat_13multiversx_sc13contract_base22universal_contract_obj20UniversalContractObjINtNtNtNtCs2614o7AVePg_22multiversx_sc_scenario3api7impl_vh12vm_hooks_api10VMHooksApiNtNtB1I_9debug_api15DebugApiBackendEENtNtCs141FUTAEp3L_14liquid_staking8callback14CallbackModule25remove_liquidity_callbacks_0Csgub9DQDg2s9_15unDelegate_test
FNDA:0,_RNCNvYINtNtNtCsd0DXYhglbat_13multiversx_sc13contract_base22universal_contract_obj20UniversalContractObjINtNtNtNtCs2614o7AVePg_22multiversx_sc_scenario3api7impl_vh12vm_hooks_api10VMHooksApiNtNtB1I_9debug_api15DebugApiBackendEENtNtCs141FUTAEp3L_14liquid_staking8callback14CallbackModule36instant_delegation_contract_callback0Csgub9DQDg2s9_15unDelegate_test
FNDA:819,_RNvXsn_NtCs141FUTAEp3L_14liquid_staking8callbackINtB5_16CallbackProxyObjINtNtNtNtCs2614o7AVePg_22multiversx_sc_scenario3api7impl_vh12vm_hooks_api10VMHooksApiNtNtB1d_9debug_api15DebugApiBackendEENtNtNtCsd0DXYhglbat_13multiversx_sc13contract_base23proxy_obj_callback_base20CallbackProxyObjBase16new_cb_proxy_objCsgub9DQDg2s9_15unDelegate_test
FNDA:341,_RNvYINtNtCs141FUTAEp3L_14liquid_staking8callback16CallbackProxyObjINtNtNtNtCs2614o7AVePg_22multiversx_sc_scenario3api7impl_vh12vm_hooks_api10VMHooksApiNtNtB17_9debug_api15DebugApiBackendEENtB5_13CallbackProxy22add_liquidity_callbackCsgub9DQDg2s9_15unDelegate_test
FNDA:0,_RNvYINtNtCs141FUTAEp3L_14liquid_staking8callback16CallbackProxyObjINtNtNtNtCs2614o7AVePg_22multiversx_sc_scenario3api7impl_vh12vm_hooks_api10VMHooksApiNtNtB17_9debug_api15DebugApiBackendEENtB5_13CallbackProxy22claim_rewards_callbackCsgub9DQDg2s9_15unDelegate_test
FNDA:0,_RNvYINtNtCs141FUTAEp3L_14liquid_staking8callback16CallbackProxyObjINtNtNtNtCs2614o7AVePg_22multiversx_sc_scenario3api7impl_vh12vm_hooks_api10VMHooksApiNtNtB17_9debug_api15DebugApiBackendEENtB5_13CallbackProxy24withdraw_tokens_callbackCsgub9DQDg2s9_15unDelegate_test
FNDA:89,_RNvYINtNtCs141FUTAEp3L_14liquid_staking8callback16CallbackProxyObjINtNtNtNtCs2614o7AVePg_22multiversx_sc_scenario3api7impl_vh12vm_hooks_api10VMHooksApiNtNtB17_9debug_api15DebugApiBackendEENtB5_13CallbackProxy25remove_liquidity_callbackCsgub9DQDg2s9_15unDelegate_test
FNDA:0,_RNvYINtNtCs141FUTAEp3L_14liquid_staking8callback16CallbackProxyObjINtNtNtNtCs2614o7AVePg_22multiversx_sc_scenario3api7impl_vh12vm_hooks_api10VMHooksApiNtNtB17_9debug_api15DebugApiBackendEENtB5_13CallbackProxy36instant_delegation_contract_callbackCsgub9DQDg2s9_15unDelegate_test
FNDA:389,_RNvYINtNtCs141FUTAEp3L_14liquid_staking8callback16CallbackProxyObjINtNtNtNtCs2614o7AVePg_22multiversx_sc_scenario3api7impl_vh12vm_hooks_api10VMHooksApiNtNtB17_9debug_api15DebugApiBackendEENtB5_13CallbackProxy38whitelist_delegation_contract_callbackCsgub9DQDg2s9_15unDelegate_test
FNDA:27,_RNvXNtCs141FUTAEp3L_14liquid_staking8callbackINtNtNtCsd0DXYhglbat_13multiversx_sc13contract_base22universal_contract_obj20UniversalContractObjINtNtNtNtCs2614o7AVePg_22multiversx_sc_scenario3api7impl_vh12vm_hooks_api10VMHooksApiNtNtB2l_9debug_api15DebugApiBackendEENtB2_14CallbackModule9callbacksCscNyXpV1vtNq_11unbond_test
FNDA:7,_RNvYINtNtNtCsd0DXYhglbat_13multiversx_sc13contract_base22universal_contract_obj20UniversalContractObjINtNtNtNtCs2614o7AVePg_22multiversx_sc_scenario3api7impl_vh12vm_hooks_api10VMHooksApiNtNtB1G_9debug_api15DebugApiBackendEENtNtCs141FUTAEp3L_14liquid_staking8callback14CallbackModule22add_liquidity_callbackCscNyXpV1vtNq_11unbond_test
FNDA:0,_RNvYINtNtNtCsd0DXYhglbat_13multiversx_sc13contract_base22universal_contract_obj20UniversalContractObjINtNtNtNtCs2614o7AVePg_22multiversx_sc_scenario3api7impl_vh12vm_hooks_api10VMHooksApiNtNtB1G_9debug_api15DebugApiBackendEENtNtCs141FUTAEp3L_14liquid_staking8callback14CallbackModule22claim_rewards_callbackCscNyXpV1vtNq_11unbond_test
FNDA:6,_RNvYINtNtNtCsd0DXYhglbat_13multiversx_sc13contract_base22universal_contract_obj20UniversalContractObjINtNtNtNtCs2614o7AVePg_22multiversx_sc_scenario3api7impl_vh12vm_hooks_api10VMHooksApiNtNtB1G_9debug_api15DebugApiBackendEENtNtCs141FUTAEp3L_14liquid_staking8callback14CallbackModule24withdraw_tokens_callbackCscNyXpV1vtNq_11unbond_test
FNDA:7,_RNvYINtNtNtCsd0DXYhglbat_13multiversx_sc13contract_base22universal_contract_obj20UniversalContractObjINtNtNtNtCs2614o7AVePg_22multiversx_sc_scenario3api7impl_vh12vm_hooks_api10VMHooksApiNtNtB1G_9debug_api15DebugApiBackendEENtNtCs141FUTAEp3L_14liquid_staking8callback14CallbackModule25remove_liquidity_callbackCscNyXpV1vtNq_11unbond_test
FNDA:0,_RNvYINtNtNtCsd0DXYhglbat_13multiversx_sc13contract_base22universal_contract_obj20UniversalContractObjINtNtNtNtCs2614o7AVePg_22multiversx_sc_scenario3api7impl_vh12vm_hooks_api10VMHooksApiNtNtB1G_9debug_api15DebugApiBackendEENtNtCs141FUTAEp3L_14liquid_staking8callback14CallbackModule36instant_delegation_contract_callbackCscNyXpV1vtNq_11unbond_test
FNDA:7,_RNvYINtNtNtCsd0DXYhglbat_13multiversx_sc13contract_base22universal_contract_obj20UniversalContractObjINtNtNtNtCs2614o7AVePg_22multiversx_sc_scenario3api7impl_vh12vm_hooks_api10VMHooksApiNtNtB1G_9debug_api15DebugApiBackendEENtNtCs141FUTAEp3L_14liquid_staking8callback14CallbackModule38whitelist_delegation_contract_callbackCscNyXpV1vtNq_11unbond_test
FNDA:0,_RNvYINtNtNtCsd0DXYhglbat_13multiversx_sc13contract_base22universal_contract_obj20UniversalContractObjINtNtNtNtCs2614o7AVePg_22multiversx_sc_scenario3api7impl_vh12vm_hooks_api10VMHooksApiNtNtB1G_9debug_api15DebugApiBackendEENtNtCs141FUTAEp3L_14liquid_staking8callback16EndpointWrappers17callback_selectorCscNyXpV1vtNq_11unbond_test
FNDA:7,_RNvYINtNtNtCsd0DXYhglbat_13multiversx_sc13contract_base22universal_contract_obj20UniversalContractObjINtNtNtNtCs2614o7AVePg_22multiversx_sc_scenario3api7impl_vh12vm_hooks_api10VMHooksApiNtNtB1G_9debug_api15DebugApiBackendEENtNtCs141FUTAEp3L_14liquid_staking8callback16EndpointWrappers27call_add_liquidity_callbackCscNyXpV1vtNq_11unbond_test
FNDA:0,_RNvYINtNtNtCsd0DXYhglbat_13multiversx_sc13contract_base22universal_contract_obj20UniversalContractObjINtNtNtNtCs2614o7AVePg_22multiversx_sc_scenario3api7impl_vh12vm_hooks_api10VMHooksApiNtNtB1G_9debug_api15DebugApiBackendEENtNtCs141FUTAEp3L_14liquid_staking8callback16EndpointWrappers27call_claim_rewards_callbackCscNyXpV1vtNq_11unbond_test
FNDA:6,_RNvYINtNtNtCsd0DXYhglbat_13multiversx_sc13contract_base22universal_contract_obj20UniversalContractObjINtNtNtNtCs2614o7AVePg_22multiversx_sc_scenario3api7impl_vh12vm_hooks_api10VMHooksApiNtNtB1G_9debug_api15DebugApiBackendEENtNtCs141FUTAEp3L_14liquid_staking8callback16EndpointWrappers29call_withdraw_tokens_callbackCscNyXpV1vtNq_11unbond_test
FNDA:7,_RNvYINtNtNtCsd0DXYhglbat_13multiversx_sc13contract_base22universal_contract_obj20UniversalContractObjINtNtNtNtCs2614o7AVePg_22multiversx_sc_scenario3api7impl_vh12vm_hooks_api10VMHooksApiNtNtB1G_9debug_api15DebugApiBackendEENtNtCs141FUTAEp3L_14liquid_staking8callback16EndpointWrappers30call_remove_liquidity_callbackCscNyXpV1vtNq_11unbond_test
FNDA:0,_RNvYINtNtNtCsd0DXYhglbat_13multiversx_sc13contract_base22universal_contract_obj20UniversalContractObjINtNtNtNtCs2614o7AVePg_22multiversx_sc_scenario3api7impl_vh12vm_hooks_api10VMHooksApiNtNtB1G_9debug_api15DebugApiBackendEENtNtCs141FUTAEp3L_14liquid_staking8callback16EndpointWrappers41call_instant_delegation_contract_callbackCscNyXpV1vtNq_11unbond_test
FNDA:7,_RNvYINtNtNtCsd0DXYhglbat_13multiversx_sc13contract_base22universal_contract_obj20UniversalContractObjINtNtNtNtCs2614o7AVePg_22multiversx_sc_scenario3api7impl_vh12vm_hooks_api10VMHooksApiNtNtB1G_9debug_api15DebugApiBackendEENtNtCs141FUTAEp3L_14liquid_staking8callback16EndpointWrappers43call_whitelist_delegation_contract_callbackCscNyXpV1vtNq_11unbond_test
FNDA:34,_RNvYINtNtNtCsd0DXYhglbat_13multiversx_sc13contract_base22universal_contract_obj20UniversalContractObjINtNtNtNtCs2614o7AVePg_22multiversx_sc_scenario3api7impl_vh12vm_hooks_api10VMHooksApiNtNtB1G_9debug_api15DebugApiBackendEENtNtCs141FUTAEp3L_14liquid_staking8callback16EndpointWrappers4callCscNyXpV1vtNq_11unbond_test
FNDA:0,_RNvYINtNtNtCsd0DXYhglbat_13multiversx_sc13contract_base22universal_contract_obj20UniversalContractObjINtNtNtNtCs2614o7AVePg_22multiversx_sc_scenario3api7impl_vh12vm_hooks_api10VMHooksApiNtNtB1G_9debug_api15DebugApiBackendEENtNtCs141FUTAEp3L_14liquid_staking8callback16EndpointWrappers8callbackCscNyXpV1vtNq_11unbond_test
FNDA:7,_RNCNvYINtNtNtCsd0DXYhglbat_13multiversx_sc13contract_base22universal_contract_obj20UniversalContractObjINtNtNtNtCs2614o7AVePg_22multiversx_sc_scenario3api7impl_vh12vm_hooks_api10VMHooksApiNtNtB1I_9debug_api15DebugApiBackendEENtNtCs141FUTAEp3L_14liquid_staking8callback14CallbackModule22add_liquidity_callback0CscNyXpV1vtNq_11unbond_test
FNDA:0,_RNCNvYINtNtNtCsd0DXYhglbat_13multiversx_sc13contract_base22universal_contract_obj20UniversalContractObjINtNtNtNtCs2614o7AVePg_22multiversx_sc_scenario3api7impl_vh12vm_hooks_api10VMHooksApiNtNtB1I_9debug_api15DebugApiBackendEENtNtCs141FUTAEp3L_14liquid_staking8callback14CallbackModule22add_liquidity_callbacks_0CscNyXpV1vtNq_11unbond_test
FNDA:5,_RNCNvYINtNtNtCsd0DXYhglbat_13multiversx_sc13contract_base22universal_contract_obj20UniversalContractObjINtNtNtNtCs2614o7AVePg_22multiversx_sc_scenario3api7impl_vh12vm_hooks_api10VMHooksApiNtNtB1I_9debug_api15DebugApiBackendEENtNtCs141FUTAEp3L_14liquid_staking8callback14CallbackModule24withdraw_tokens_callback0CscNyXpV1vtNq_11unbond_test
FNDA:7,_RNCNvYINtNtNtCsd0DXYhglbat_13multiversx_sc13contract_base22universal_contract_obj20UniversalContractObjINtNtNtNtCs2614o7AVePg_22multiversx_sc_scenario3api7impl_vh12vm_hooks_api10VMHooksApiNtNtB1I_9debug_api15DebugApiBackendEENtNtCs141FUTAEp3L_14liquid_staking8callback14CallbackModule25remove_liquidity_callback0CscNyXpV1vtNq_11unbond_test
FNDA:0,_RNCNvYINtNtNtCsd0DXYhglbat_13multiversx_sc13contract_base22universal_contract_obj20UniversalContractObjINtNtNtNtCs2614o7AVePg_22multiversx_sc_scenario3api7impl_vh12vm_hooks_api10VMHooksApiNtNtB1I_9debug_api15DebugApiBackendEENtNtCs141FUTAEp3L_14liquid_staking8callback14CallbackModule25remove_liquidity_callbacks_0CscNyXpV1vtNq_11unbond_test
FNDA:0,_RNCNvYINtNtNtCsd0DXYhglbat_13multiversx_sc13contract_base22universal_contract_obj20UniversalContractObjINtNtNtNtCs2614o7AVePg_22multiversx_sc_scenario3api7impl_vh12vm_hooks_api10VMHooksApiNtNtB1I_9debug_api15DebugApiBackendEENtNtCs141FUTAEp3L_14liquid_staking8callback14CallbackModule36instant_delegation_contract_callback0CscNyXpV1vtNq_11unbond_test
FNDA:27,_RNvXsn_NtCs141FUTAEp3L_14liquid_staking8callbackINtB5_16CallbackProxyObjINtNtNtNtCs2614o7AVePg_22multiversx_sc_scenario3api7impl_vh12vm_hooks_api10VMHooksApiNtNtB1d_9debug_api15DebugApiBackendEENtNtNtCsd0DXYhglbat_13multiversx_sc13contract_base23proxy_obj_callback_base20CallbackProxyObjBase16new_cb_proxy_objCscNyXpV1vtNq_11unbond_test
FNDA:7,_RNvYINtNtCs141FUTAEp3L_14liquid_staking8callback16CallbackProxyObjINtNtNtNtCs2614o7AVePg_22multiversx_sc_scenario3api7impl_vh12vm_hooks_api10VMHooksApiNtNtB17_9debug_api15DebugApiBackendEENtB5_13CallbackProxy22add_liquidity_callbackCscNyXpV1vtNq_11unbond_test
FNDA:0,_RNvYINtNtCs141FUTAEp3L_14liquid_staking8callback16CallbackProxyObjINtNtNtNtCs2614o7AVePg_22multiversx_sc_scenario3api7impl_vh12vm_hooks_api10VMHooksApiNtNtB17_9debug_api15DebugApiBackendEENtB5_13CallbackProxy22claim_rewards_callbackCscNyXpV1vtNq_11unbond_test
FNDA:6,_RNvYINtNtCs141FUTAEp3L_14liquid_staking8callback16CallbackProxyObjINtNtNtNtCs2614o7AVePg_22multiversx_sc_scenario3api7impl_vh12vm_hooks_api10VMHooksApiNtNtB17_9debug_api15DebugApiBackendEENtB5_13CallbackProxy24withdraw_tokens_callbackCscNyXpV1vtNq_11unbond_test
FNDA:7,_RNvYINtNtCs141FUTAEp3L_14liquid_staking8callback16CallbackProxyObjINtNtNtNtCs2614o7AVePg_22multiversx_sc_scenario3api7impl_vh12vm_hooks_api10VMHooksApiNtNtB17_9debug_api15DebugApiBackendEENtB5_13CallbackProxy25remove_liquidity_callbackCscNyXpV1vtNq_11unbond_test
FNDA:0,_RNvYINtNtCs141FUTAEp3L_14liquid_staking8callback16CallbackProxyObjINtNtNtNtCs2614o7AVePg_22multiversx_sc_scenario3api7impl_vh12vm_hooks_api10VMHooksApiNtNtB17_9debug_api15DebugApiBackendEENtB5_13CallbackProxy36instant_delegation_contract_callbackCscNyXpV1vtNq_11unbond_test
FNDA:7,_RNvYINtNtCs141FUTAEp3L_14liquid_staking8callback16CallbackProxyObjINtNtNtNtCs2614o7AVePg_22multiversx_sc_scenario3api7impl_vh12vm_hooks_api10VMHooksApiNtNtB17_9debug_api15DebugApiBackendEENtB5_13CallbackProxy38whitelist_delegation_contract_callbackCscNyXpV1vtNq_11unbond_test
FNF:13
FNH:10
DA:4,1322
DA:21,98
DA:22,98
DA:23,98
DA:24,98
DA:25,98
DA:26,98
DA:27,98
DA:28,98
DA:29,98
DA:30,98
DA:31,98
DA:32,98
DA:33,0
DA:34,0
DA:35,0
DA:36,0
DA:37,0
DA:38,0
DA:39,0
DA:41,98
DA:50,373
DA:51,373
DA:52,373
DA:53,373
DA:54,373
DA:55,373
DA:56,373
DA:57,373
DA:58,373
DA:59,373
DA:60,0
DA:61,0
DA:62,0
DA:63,0
DA:64,0
DA:65,0
DA:66,0
DA:67,0
DA:68,0
DA:73,8
DA:74,8
DA:75,8
DA:76,7
DA:77,7
DA:78,7
DA:79,7
DA:80,7
DA:81,7
DA:82,7
DA:83,7
DA:84,7
DA:85,7
DA:86,7
DA:90,0
DA:91,0
DA:92,0
DA:93,0
DA:94,0
DA:95,0
DA:96,0
DA:97,0
DA:98,0
DA:99,0
DA:100,0
DA:101,0
DA:102,0
DA:103,0
DA:104,0
DA:106,0
DA:117,419
DA:118,419
DA:119,419
DA:120,419
DA:121,419
DA:122,419
DA:123,0
DA:124,0
DA:125,0
DA:126,0
DA:137,1
DA:138,1
DA:139,1
DA:140,1
DA:141,1
DA:142,1
DA:143,1
DA:144,1
DA:145,1
DA:146,1
DA:147,1
DA:148,1
DA:149,1
DA:150,1
DA:151,1
DA:152,0
DA:153,0
DA:154,0
BRF:0
BRH:0
LF:110
LH:67
end_of_record
SF:/Users/mihaieremia/GitHub/rs-egld-liquid-staking/liquid-staking/src/config.rs
FN:131,_RNvYINtNtNtCsd0DXYhglbat_13multiversx_sc13contract_base22universal_contract_obj20UniversalContractObjINtNtNtNtCs2614o7AVePg_22multiversx_sc_scenario3api7impl_vh12vm_hooks_api10VMHooksApiNtNtB1G_9debug_api15DebugApiBackendEENtNtCs141FUTAEp3L_14liquid_staking6config12ConfigModule10is_managerCsbv7vZMOU1ip_13delegate_test
FN:99,_RNvYINtNtNtCsd0DXYhglbat_13multiversx_sc13contract_base22universal_contract_obj20UniversalContractObjINtNtNtNtCs2614o7AVePg_22multiversx_sc_scenario3api7impl_vh12vm_hooks_api10VMHooksApiNtNtB1G_9debug_api15DebugApiBackendEENtNtCs141FUTAEp3L_14liquid_staking6config12ConfigModule12set_managersCsbv7vZMOU1ip_13delegate_test
FN:105,_RNvYINtNtNtCsd0DXYhglbat_13multiversx_sc13contract_base22universal_contract_obj20UniversalContractObjINtNtNtNtCs2614o7AVePg_22multiversx_sc_scenario3api7impl_vh12vm_hooks_api10VMHooksApiNtNtB1G_9debug_api15DebugApiBackendEENtNtCs141FUTAEp3L_14liquid_staking6config12ConfigModule14remove_managerCsbv7vZMOU1ip_13delegate_test
FN:51,_RNvYINtNtNtCsd0DXYhglbat_13multiversx_sc13contract_base22universal_contract_obj20UniversalContractObjINtNtNtNtCs2614o7AVePg_22multiversx_sc_scenario3api7impl_vh12vm_hooks_api10VMHooksApiNtNtB1G_9debug_api15DebugApiBackendEENtNtCs141FUTAEp3L_14liquid_staking6config12ConfigModule16set_state_activeCsbv7vZMOU1ip_13delegate_test
FN:18,_RNvYINtNtNtCsd0DXYhglbat_13multiversx_sc13contract_base22universal_contract_obj20UniversalContractObjINtNtNtNtCs2614o7AVePg_22multiversx_sc_scenario3api7impl_vh12vm_hooks_api10VMHooksApiNtNtB1G_9debug_api15DebugApiBackendEENtNtCs141FUTAEp3L_14liquid_staking6config12ConfigModule17register_ls_tokenCsbv7vZMOU1ip_13delegate_test
FN:75,_RNvYINtNtNtCsd0DXYhglbat_13multiversx_sc13contract_base22universal_contract_obj20UniversalContractObjINtNtNtNtCs2614o7AVePg_22multiversx_sc_scenario3api7impl_vh12vm_hooks_api10VMHooksApiNtNtB1G_9debug_api15DebugApiBackendEENtNtCs141FUTAEp3L_14liquid_staking6config12ConfigModule17set_max_addressesCsbv7vZMOU1ip_13delegate_test
FN:93,_RNvYINtNtNtCsd0DXYhglbat_13multiversx_sc13contract_base22universal_contract_obj20UniversalContractObjINtNtNtNtCs2614o7AVePg_22multiversx_sc_scenario3api7impl_vh12vm_hooks_api10VMHooksApiNtNtB1G_9debug_api15DebugApiBackendEENtNtCs141FUTAEp3L_14liquid_staking6config12ConfigModule17set_unbond_periodCsbv7vZMOU1ip_13delegate_test
FN:122,_RNvYINtNtNtCsd0DXYhglbat_13multiversx_sc13contract_base22universal_contract_obj20UniversalContractObjINtNtNtNtCs2614o7AVePg_22multiversx_sc_scenario3api7impl_vh12vm_hooks_api10VMHooksApiNtNtB1G_9debug_api15DebugApiBackendEENtNtCs141FUTAEp3L_14liquid_staking6config12ConfigModule18set_scoring_configCsbv7vZMOU1ip_13delegate_test
FN:57,_RNvYINtNtNtCsd0DXYhglbat_13multiversx_sc13contract_base22universal_contract_obj20UniversalContractObjINtNtNtNtCs2614o7AVePg_22multiversx_sc_scenario3api7impl_vh12vm_hooks_api10VMHooksApiNtNtB1G_9debug_api15DebugApiBackendEENtNtCs141FUTAEp3L_14liquid_staking6config12ConfigModule18set_state_inactiveCsbv7vZMOU1ip_13delegate_test
FN:111,_RNvYINtNtNtCsd0DXYhglbat_13multiversx_sc13contract_base22universal_contract_obj20UniversalContractObjINtNtNtNtCs2614o7AVePg_22multiversx_sc_scenario3api7impl_vh12vm_hooks_api10VMHooksApiNtNtB1G_9debug_api15DebugApiBackendEENtNtCs141FUTAEp3L_14liquid_staking6config12ConfigModule22add_liquidity_providerCsbv7vZMOU1ip_13delegate_test
FN:37,_RNvYINtNtNtCsd0DXYhglbat_13multiversx_sc13contract_base22universal_contract_obj20UniversalContractObjINtNtNtNtCs2614o7AVePg_22multiversx_sc_scenario3api7impl_vh12vm_hooks_api10VMHooksApiNtNtB1G_9debug_api15DebugApiBackendEENtNtCs141FUTAEp3L_14liquid_staking6config12ConfigModule22register_unstake_tokenCsbv7vZMOU1ip_13delegate_test
FN:63,_RNvYINtNtNtCsd0DXYhglbat_13multiversx_sc13contract_base22universal_contract_obj20UniversalContractObjINtNtNtNtCs2614o7AVePg_22multiversx_sc_scenario3api7impl_vh12vm_hooks_api10VMHooksApiNtNtB1G_9debug_api15DebugApiBackendEENtNtCs141FUTAEp3L_14liquid_staking6config12ConfigModule24set_accumulator_contractCsbv7vZMOU1ip_13delegate_test
FN:117,_RNvYINtNtNtCsd0DXYhglbat_13multiversx_sc13contract_base22universal_contract_obj20UniversalContractObjINtNtNtNtCs2614o7AVePg_22multiversx_sc_scenario3api7impl_vh12vm_hooks_api10VMHooksApiNtNtB1G_9debug_api15DebugApiBackendEENtNtCs141FUTAEp3L_14liquid_staking6config12ConfigModule25remove_liquidity_providerCsbv7vZMOU1ip_13delegate_test
FN:82,_RNvYINtNtNtCsd0DXYhglbat_13multiversx_sc13contract_base22universal_contract_obj20UniversalContractObjINtNtNtNtCs2614o7AVePg_22multiversx_sc_scenario3api7impl_vh12vm_hooks_api10VMHooksApiNtNtB1G_9debug_api15DebugApiBackendEENtNtCs141FUTAEp3L_14liquid_staking6config12ConfigModule26set_max_selected_providersCsbv7vZMOU1ip_13delegate_test
FN:69,_RNvYINtNtNtCsd0DXYhglbat_13multiversx_sc13contract_base22universal_contract_obj20UniversalContractObjINtNtNtNtCs2614o7AVePg_22multiversx_sc_scenario3api7impl_vh12vm_hooks_api10VMHooksApiNtNtB1G_9debug_api15DebugApiBackendEENtNtCs141FUTAEp3L_14liquid_staking6config12ConfigModule8set_feesCsbv7vZMOU1ip_13delegate_test
FN:8,_RNvYINtNtNtCsd0DXYhglbat_13multiversx_sc13contract_base22universal_contract_obj20UniversalContractObjINtNtNtNtCs2614o7AVePg_22multiversx_sc_scenario3api7impl_vh12vm_hooks_api10VMHooksApiNtNtB1G_9debug_api15DebugApiBackendEENtNtCs141FUTAEp3L_14liquid_staking6config16EndpointWrappers13call_set_feesCsbv7vZMOU1ip_13delegate_test
FN:8,_RNvYINtNtNtCsd0DXYhglbat_13multiversx_sc13contract_base22universal_contract_obj20UniversalContractObjINtNtNtNtCs2614o7AVePg_22multiversx_sc_scenario3api7impl_vh12vm_hooks_api10VMHooksApiNtNtB1G_9debug_api15DebugApiBackendEENtNtCs141FUTAEp3L_14liquid_staking6config16EndpointWrappers17call_set_managersCsbv7vZMOU1ip_13delegate_test
FN:8,_RNvYINtNtNtCsd0DXYhglbat_13multiversx_sc13contract_base22universal_contract_obj20UniversalContractObjINtNtNtNtCs2614o7AVePg_22multiversx_sc_scenario3api7impl_vh12vm_hooks_api10VMHooksApiNtNtB1G_9debug_api15DebugApiBackendEENtNtCs141FUTAEp3L_14liquid_staking6config16EndpointWrappers17callback_selectorCsbv7vZMOU1ip_13delegate_test
FN:8,_RNvYINtNtNtCsd0DXYhglbat_13multiversx_sc13contract_base22universal_contract_obj20UniversalContractObjINtNtNtNtCs2614o7AVePg_22multiversx_sc_scenario3api7impl_vh12vm_hooks_api10VMHooksApiNtNtB1G_9debug_api15DebugApiBackendEENtNtCs141FUTAEp3L_14liquid_staking6config16EndpointWrappers19call_remove_managerCsbv7vZMOU1ip_13delegate_test
FN:8,_RNvYINtNtNtCsd0DXYhglbat_13multiversx_sc13contract_base22universal_contract_obj20UniversalContractObjINtNtNtNtCs2614o7AVePg_22multiversx_sc_scenario3api7impl_vh12vm_hooks_api10VMHooksApiNtNtB1G_9debug_api15DebugApiBackendEENtNtCs141FUTAEp3L_14liquid_staking6config16EndpointWrappers21call_set_state_activeCsbv7vZMOU1ip_13delegate_test
FN:8,_RNvYINtNtNtCsd0DXYhglbat_13multiversx_sc13contract_base22universal_contract_obj20UniversalContractObjINtNtNtNtCs2614o7AVePg_22multiversx_sc_scenario3api7impl_vh12vm_hooks_api10VMHooksApiNtNtB1G_9debug_api15DebugApiBackendEENtNtCs141FUTAEp3L_14liquid_staking6config16EndpointWrappers22call_register_ls_tokenCsbv7vZMOU1ip_13delegate_test
FN:8,_RNvYINtNtNtCsd0DXYhglbat_13multiversx_sc13contract_base22universal_contract_obj20UniversalContractObjINtNtNtNtCs2614o7AVePg_22multiversx_sc_scenario3api7impl_vh12vm_hooks_api10VMHooksApiNtNtB1G_9debug_api15DebugApiBackendEENtNtCs141FUTAEp3L_14liquid_staking6config16EndpointWrappers22call_set_max_addressesCsbv7vZMOU1ip_13delegate_test
FN:8,_RNvYINtNtNtCsd0DXYhglbat_13multiversx_sc13contract_base22universal_contract_obj20UniversalContractObjINtNtNtNtCs2614o7AVePg_22multiversx_sc_scenario3api7impl_vh12vm_hooks_api10VMHooksApiNtNtB1G_9debug_api15DebugApiBackendEENtNtCs141FUTAEp3L_14liquid_staking6config16EndpointWrappers22call_set_unbond_periodCsbv7vZMOU1ip_13delegate_test
FN:8,_RNvYINtNtNtCsd0DXYhglbat_13multiversx_sc13contract_base22universal_contract_obj20UniversalContractObjINtNtNtNtCs2614o7AVePg_22multiversx_sc_scenario3api7impl_vh12vm_hooks_api10VMHooksApiNtNtB1G_9debug_api15DebugApiBackendEENtNtCs141FUTAEp3L_14liquid_staking6config16EndpointWrappers23call_set_scoring_configCsbv7vZMOU1ip_13delegate_test
FN:8,_RNvYINtNtNtCsd0DXYhglbat_13multiversx_sc13contract_base22universal_contract_obj20UniversalContractObjINtNtNtNtCs2614o7AVePg_22multiversx_sc_scenario3api7impl_vh12vm_hooks_api10VMHooksApiNtNtB1G_9debug_api15DebugApiBackendEENtNtCs141FUTAEp3L_14liquid_staking6config16EndpointWrappers23call_set_state_inactiveCsbv7vZMOU1ip_13delegate_test
FN:8,_RNvYINtNtNtCsd0DXYhglbat_13multiversx_sc13contract_base22universal_contract_obj20UniversalContractObjINtNtNtNtCs2614o7AVePg_22multiversx_sc_scenario3api7impl_vh12vm_hooks_api10VMHooksApiNtNtB1G_9debug_api15DebugApiBackendEENtNtCs141FUTAEp3L_14liquid_staking6config16EndpointWrappers27call_add_liquidity_providerCsbv7vZMOU1ip_13delegate_test
FN:8,_RNvYINtNtNtCsd0DXYhglbat_13multiversx_sc13contract_base22universal_contract_obj20UniversalContractObjINtNtNtNtCs2614o7AVePg_22multiversx_sc_scenario3api7impl_vh12vm_hooks_api10VMHooksApiNtNtB1G_9debug_api15DebugApiBackendEENtNtCs141FUTAEp3L_14liquid_staking6config16EndpointWrappers27call_register_unstake_tokenCsbv7vZMOU1ip_13delegate_test
FN:8,_RNvYINtNtNtCsd0DXYhglbat_13multiversx_sc13contract_base22universal_contract_obj20UniversalContractObjINtNtNtNtCs2614o7AVePg_22multiversx_sc_scenario3api7impl_vh12vm_hooks_api10VMHooksApiNtNtB1G_9debug_api15DebugApiBackendEENtNtCs141FUTAEp3L_14liquid_staking6config16EndpointWrappers29call_set_accumulator_contractCsbv7vZMOU1ip_13delegate_test
FN:8,_RNvYINtNtNtCsd0DXYhglbat_13multiversx_sc13contract_base22universal_contract_obj20UniversalContractObjINtNtNtNtCs2614o7AVePg_22multiversx_sc_scenario3api7impl_vh12vm_hooks_api10VMHooksApiNtNtB1G_9debug_api15DebugApiBackendEENtNtCs141FUTAEp3L_14liquid_staking6config16EndpointWrappers30call_remove_liquidity_providerCsbv7vZMOU1ip_13delegate_test
FN:8,_RNvYINtNtNtCsd0DXYhglbat_13multiversx_sc13contract_base22universal_contract_obj20UniversalContractObjINtNtNtNtCs2614o7AVePg_22multiversx_sc_scenario3api7impl_vh12vm_hooks_api10VMHooksApiNtNtB1G_9debug_api15DebugApiBackendEENtNtCs141FUTAEp3L_14liquid_staking6config16EndpointWrappers31call_set_max_selected_providersCsbv7vZMOU1ip_13delegate_test
FN:8,_RNvYINtNtNtCsd0DXYhglbat_13multiversx_sc13contract_base22universal_contract_obj20UniversalContractObjINtNtNtNtCs2614o7AVePg_22multiversx_sc_scenario3api7impl_vh12vm_hooks_api10VMHooksApiNtNtB1G_9debug_api15DebugApiBackendEENtNtCs141FUTAEp3L_14liquid_staking6config16EndpointWrappers4callCsbv7vZMOU1ip_13delegate_test
FN:8,_RNvYINtNtNtCsd0DXYhglbat_13multiversx_sc13contract_base22universal_contract_obj20UniversalContractObjINtNtNtNtCs2614o7AVePg_22multiversx_sc_scenario3api7impl_vh12vm_hooks_api10VMHooksApiNtNtB1G_9debug_api15DebugApiBackendEENtNtCs141FUTAEp3L_14liquid_staking6config16EndpointWrappers8callbackCsbv7vZMOU1ip_13delegate_test
FN:131,_RNvYINtCs141FUTAEp3L_14liquid_staking11ContractObjINtNtNtNtCs2614o7AVePg_22multiversx_sc_scenario3api7impl_vh12vm_hooks_api10VMHooksApiNtNtBR_9debug_api15DebugApiBackendEENtNtB5_6config12ConfigModule10is_managerCsbv7vZMOU1ip_13delegate_test
FN:51,_RNvYINtCs141FUTAEp3L_14liquid_staking11ContractObjINtNtNtNtCs2614o7AVePg_22multiversx_sc_scenario3api7impl_vh12vm_hooks_api10VMHooksApiNtNtBR_9debug_api15DebugApiBackendEENtNtB5_6config12ConfigModule16set_state_activeCsbv7vZMOU1ip_13delegate_test
FN:122,_RNvYINtCs141FUTAEp3L_14liquid_staking11ContractObjINtNtNtNtCs2614o7AVePg_22multiversx_sc_scenario3api7impl_vh12vm_hooks_api10VMHooksApiNtNtBR_9debug_api15DebugApiBackendEENtNtB5_6config12ConfigModule18set_scoring_configCsbv7vZMOU1ip_13delegate_test
FN:18,_RNvYpNtNtCs2edAa8LGkSL_14liquid_staking6config12ConfigModule17register_ls_tokenB7_
FN:37,_RNvYpNtNtCs2edAa8LGkSL_14liquid_staking6config12ConfigModule22register_unstake_tokenB7_
FN:51,_RNvYpNtNtCs2edAa8LGkSL_14liquid_staking6config12ConfigModule16set_state_activeB7_
FN:57,_RNvYpNtNtCs2edAa8LGkSL_14liquid_staking6config12ConfigModule18set_state_inactiveB7_
FN:63,_RNvYpNtNtCs2edAa8LGkSL_14liquid_staking6config12ConfigModule24set_accumulator_contractB7_
FN:69,_RNvYpNtNtCs2edAa8LGkSL_14liquid_staking6config12ConfigModule8set_feesB7_
FN:75,_RNvYpNtNtCs2edAa8LGkSL_14liquid_staking6config12ConfigModule17set_max_addressesB7_
FN:82,_RNvYpNtNtCs2edAa8LGkSL_14liquid_staking6config12ConfigModule26set_max_selected_providersB7_
FN:93,_RNvYpNtNtCs2edAa8LGkSL_14liquid_staking6config12ConfigModule17set_unbond_periodB7_
FN:99,_RNvYpNtNtCs2edAa8LGkSL_14liquid_staking6config12ConfigModule12set_managersB7_
FN:105,_RNvYpNtNtCs2edAa8LGkSL_14liquid_staking6config12ConfigModule14remove_managerB7_
FN:111,_RNvYpNtNtCs2edAa8LGkSL_14liquid_staking6config12ConfigModule22add_liquidity_providerB7_
FN:117,_RNvYpNtNtCs2edAa8LGkSL_14liquid_staking6config12ConfigModule25remove_liquidity_providerB7_
FN:122,_RNvYpNtNtCs2edAa8LGkSL_14liquid_staking6config12ConfigModule18set_scoring_configB7_
FN:131,_RNvYpNtNtCs2edAa8LGkSL_14liquid_staking6config12ConfigModule10is_managerB7_
FN:8,_RNvYpNtNtCs2edAa8LGkSL_14liquid_staking6config16EndpointWrappers22call_register_ls_tokenB7_
FN:8,_RNvYpNtNtCs2edAa8LGkSL_14liquid_staking6config16EndpointWrappers27call_register_unstake_tokenB7_
FN:8,_RNvYpNtNtCs2edAa8LGkSL_14liquid_staking6config16EndpointWrappers21call_set_state_activeB7_
FN:8,_RNvYpNtNtCs2edAa8LGkSL_14liquid_staking6config16EndpointWrappers23call_set_state_inactiveB7_
FN:8,_RNvYpNtNtCs2edAa8LGkSL_14liquid_staking6config16EndpointWrappers29call_set_accumulator_contractB7_
FN:8,_RNvYpNtNtCs2edAa8LGkSL_14liquid_staking6config16EndpointWrappers13call_set_feesB7_
FN:8,_RNvYpNtNtCs2edAa8LGkSL_14liquid_staking6config16EndpointWrappers22call_set_max_addressesB7_
FN:8,_RNvYpNtNtCs2edAa8LGkSL_14liquid_staking6config16EndpointWrappers31call_set_max_selected_providersB7_
FN:8,_RNvYpNtNtCs2edAa8LGkSL_14liquid_staking6config16EndpointWrappers22call_set_unbond_periodB7_
FN:8,_RNvYpNtNtCs2edAa8LGkSL_14liquid_staking6config16EndpointWrappers17call_set_managersB7_
FN:8,_RNvYpNtNtCs2edAa8LGkSL_14liquid_staking6config16EndpointWrappers19call_remove_managerB7_
FN:8,_RNvYpNtNtCs2edAa8LGkSL_14liquid_staking6config16EndpointWrappers27call_add_liquidity_providerB7_
FN:8,_RNvYpNtNtCs2edAa8LGkSL_14liquid_staking6config16EndpointWrappers30call_remove_liquidity_providerB7_
FN:8,_RNvYpNtNtCs2edAa8LGkSL_14liquid_staking6config16EndpointWrappers23call_set_scoring_configB7_
FN:8,_RNvYpNtNtCs2edAa8LGkSL_14liquid_staking6config16EndpointWrappers4callB7_
FN:8,_RNvYpNtNtCs2edAa8LGkSL_14liquid_staking6config16EndpointWrappers17callback_selectorB7_
FN:8,_RNvYpNtNtCs2edAa8LGkSL_14liquid_staking6config16EndpointWrappers8callbackB7_
FN:8,_RNvXs1_NtCs2edAa8LGkSL_14liquid_staking6configNtB5_11AbiProviderNtNtNtCsd0DXYhglbat_13multiversx_sc13contract_base21contract_abi_provider19ContractAbiProvider3abi
FN:8,_RNvXININtCs2edAa8LGkSL_14liquid_staking6configs7_0pEINtB5_11ContractObjpENtNtNtCsd0DXYhglbat_13multiversx_sc13contract_base17callable_contract16CallableContract4callB7_
FN:8,_RINvNtCs2edAa8LGkSL_14liquid_staking6config12contract_objpEB4_
FN:8,_RINvXs8_NtCs2edAa8LGkSL_14liquid_staking6configNtB6_15ContractBuilderNtNtNtCsd0DXYhglbat_13multiversx_sc13contract_base17callable_contract23CallableContractBuilder16new_contract_objpEB8_
FN:8,_RINvNtNtCs2edAa8LGkSL_14liquid_staking6config19___wasm__endpoints__17register_ls_tokenpEB6_
FN:8,_RINvNtNtCs2edAa8LGkSL_14liquid_staking6config19___wasm__endpoints__22register_unstake_tokenpEB6_
FN:8,_RINvNtNtCs2edAa8LGkSL_14liquid_staking6config19___wasm__endpoints__16set_state_activepEB6_
FN:8,_RINvNtNtCs2edAa8LGkSL_14liquid_staking6config19___wasm__endpoints__18set_state_inactivepEB6_
FN:8,_RINvNtNtCs2edAa8LGkSL_14liquid_staking6config19___wasm__endpoints__24set_accumulator_contractpEB6_
FN:8,_RINvNtNtCs2edAa8LGkSL_14liquid_staking6config19___wasm__endpoints__8set_feespEB6_
FN:8,_RINvNtNtCs2edAa8LGkSL_14liquid_staking6config19___wasm__endpoints__17set_max_addressespEB6_
FN:8,_RINvNtNtCs2edAa8LGkSL_14liquid_staking6config19___wasm__endpoints__26set_max_selected_providerspEB6_
FN:8,_RINvNtNtCs2edAa8LGkSL_14liquid_staking6config19___wasm__endpoints__17set_unbond_periodpEB6_
FN:8,_RINvNtNtCs2edAa8LGkSL_14liquid_staking6config19___wasm__endpoints__12set_managerspEB6_
FN:8,_RINvNtNtCs2edAa8LGkSL_14liquid_staking6config19___wasm__endpoints__14remove_managerpEB6_
FN:8,_RINvNtNtCs2edAa8LGkSL_14liquid_staking6config19___wasm__endpoints__22add_liquidity_providerpEB6_
FN:8,_RINvNtNtCs2edAa8LGkSL_14liquid_staking6config19___wasm__endpoints__25remove_liquidity_providerpEB6_
FN:8,_RINvNtNtCs2edAa8LGkSL_14liquid_staking6config19___wasm__endpoints__18set_scoring_configpEB6_
FN:8,_RINvYpNtNtCs2edAa8LGkSL_14liquid_staking6config10ProxyTrait17register_ls_tokenpppEB8_
FN:8,_RINvYpNtNtCs2edAa8LGkSL_14liquid_staking6config10ProxyTrait22register_unstake_tokenpppEB8_
FN:8,_RNvYpNtNtCs2edAa8LGkSL_14liquid_staking6config10ProxyTrait16set_state_activeB7_
FN:8,_RNvYpNtNtCs2edAa8LGkSL_14liquid_staking6config10ProxyTrait18set_state_inactiveB7_
FN:8,_RINvYpNtNtCs2edAa8LGkSL_14liquid_staking6config10ProxyTrait24set_accumulator_contractpEB8_
FN:8,_RINvYpNtNtCs2edAa8LGkSL_14liquid_staking6config10ProxyTrait8set_feespEB8_
FN:8,_RINvYpNtNtCs2edAa8LGkSL_14liquid_staking6config10ProxyTrait17set_max_addressespEB8_
FN:8,_RINvYpNtNtCs2edAa8LGkSL_14liquid_staking6config10ProxyTrait26set_max_selected_providerspEB8_
FN:8,_RINvYpNtNtCs2edAa8LGkSL_14liquid_staking6config10ProxyTrait17set_unbond_periodpEB8_
FN:8,_RINvYpNtNtCs2edAa8LGkSL_14liquid_staking6config10ProxyTrait12set_managerspEB8_
FN:8,_RINvYpNtNtCs2edAa8LGkSL_14liquid_staking6config10ProxyTrait14remove_managerpEB8_
FN:8,_RINvYpNtNtCs2edAa8LGkSL_14liquid_staking6config10ProxyTrait22add_liquidity_providerpEB8_
FN:8,_RINvYpNtNtCs2edAa8LGkSL_14liquid_staking6config10ProxyTrait25remove_liquidity_providerpEB8_
FN:8,_RINvYpNtNtCs2edAa8LGkSL_14liquid_staking6config10ProxyTrait18set_scoring_configpEB8_
FN:131,_RNvYINtNtNtCsd0DXYhglbat_13multiversx_sc13contract_base22universal_contract_obj20UniversalContractObjINtNtNtNtCs2614o7AVePg_22multiversx_sc_scenario3api7impl_vh12vm_hooks_api10VMHooksApiNtNtB1G_9debug_api15DebugApiBackendEENtNtCs141FUTAEp3L_14liquid_staking6config12ConfigModule10is_managerCs25HLPETZpNm_4test
FN:99,_RNvYINtNtNtCsd0DXYhglbat_13multiversx_sc13contract_base22universal_contract_obj20UniversalContractObjINtNtNtNtCs2614o7AVePg_22multiversx_sc_scenario3api7impl_vh12vm_hooks_api10VMHooksApiNtNtB1G_9debug_api15DebugApiBackendEENtNtCs141FUTAEp3L_14liquid_staking6config12ConfigModule12set_managersCs25HLPETZpNm_4test
FN:105,_RNvYINtNtNtCsd0DXYhglbat_13multiversx_sc13contract_base22universal_contract_obj20UniversalContractObjINtNtNtNtCs2614o7AVePg_22multiversx_sc_scenario3api7impl_vh12vm_hooks_api10VMHooksApiNtNtB1G_9debug_api15DebugApiBackendEENtNtCs141FUTAEp3L_14liquid_staking6config12ConfigModule14remove_managerCs25HLPETZpNm_4test
FN:51,_RNvYINtNtNtCsd0DXYhglbat_13multiversx_sc13contract_base22universal_contract_obj20UniversalContractObjINtNtNtNtCs2614o7AVePg_22multiversx_sc_scenario3api7impl_vh12vm_hooks_api10VMHooksApiNtNtB1G_9debug_api15DebugApiBackendEENtNtCs141FUTAEp3L_14liquid_staking6config12ConfigModule16set_state_activeCs25HLPETZpNm_4test
FN:18,_RNvYINtNtNtCsd0DXYhglbat_13multiversx_sc13contract_base22universal_contract_obj20UniversalContractObjINtNtNtNtCs2614o7AVePg_22multiversx_sc_scenario3api7impl_vh12vm_hooks_api10VMHooksApiNtNtB1G_9debug_api15DebugApiBackendEENtNtCs141FUTAEp3L_14liquid_staking6config12ConfigModule17register_ls_tokenCs25HLPETZpNm_4test
FN:75,_RNvYINtNtNtCsd0DXYhglbat_13multiversx_sc13contract_base22universal_contract_obj20UniversalContractObjINtNtNtNtCs2614o7AVePg_22multiversx_sc_scenario3api7impl_vh12vm_hooks_api10VMHooksApiNtNtB1G_9debug_api15DebugApiBackendEENtNtCs141FUTAEp3L_14liquid_staking6config12ConfigModule17set_max_addressesCs25HLPETZpNm_4test
FN:93,_RNvYINtNtNtCsd0DXYhglbat_13multiversx_sc13contract_base22universal_contract_obj20UniversalContractObjINtNtNtNtCs2614o7AVePg_22multiversx_sc_scenario3api7impl_vh12vm_hooks_api10VMHooksApiNtNtB1G_9debug_api15DebugApiBackendEENtNtCs141FUTAEp3L_14liquid_staking6config12ConfigModule17set_unbond_periodCs25HLPETZpNm_4test
FN:122,_RNvYINtNtNtCsd0DXYhglbat_13multiversx_sc13contract_base22universal_contract_obj20UniversalContractObjINtNtNtNtCs2614o7AVePg_22multiversx_sc_scenario3api7impl_vh12vm_hooks_api10VMHooksApiNtNtB1G_9debug_api15DebugApiBackendEENtNtCs141FUTAEp3L_14liquid_staking6config12ConfigModule18set_scoring_configCs25HLPETZpNm_4test
FN:57,_RNvYINtNtNtCsd0DXYhglbat_13multiversx_sc13contract_base22universal_contract_obj20UniversalContractObjINtNtNtNtCs2614o7AVePg_22multiversx_sc_scenario3api7impl_vh12vm_hooks_api10VMHooksApiNtNtB1G_9debug_api15DebugApiBackendEENtNtCs141FUTAEp3L_14liquid_staking6config12ConfigModule18set_state_inactiveCs25HLPETZpNm_4test
FN:111,_RNvYINtNtNtCsd0DXYhglbat_13multiversx_sc13contract_base22universal_contract_obj20UniversalContractObjINtNtNtNtCs2614o7AVePg_22multiversx_sc_scenario3api7impl_vh12vm_hooks_api10VMHooksApiNtNtB1G_9debug_api15DebugApiBackendEENtNtCs141FUTAEp3L_14liquid_staking6config12ConfigModule22add_liquidity_providerCs25HLPETZpNm_4test
FN:37,_RNvYINtNtNtCsd0DXYhglbat_13multiversx_sc13contract_base22universal_contract_obj20UniversalContractObjINtNtNtNtCs2614o7AVePg_22multiversx_sc_scenario3api7impl_vh12vm_hooks_api10VMHooksApiNtNtB1G_9debug_api15DebugApiBackendEENtNtCs141FUTAEp3L_14liquid_staking6config12ConfigModule22register_unstake_tokenCs25HLPETZpNm_4test
FN:63,_RNvYINtNtNtCsd0DXYhglbat_13multiversx_sc13contract_base22universal_contract_obj20UniversalContractObjINtNtNtNtCs2614o7AVePg_22multiversx_sc_scenario3api7impl_vh12vm_hooks_api10VMHooksApiNtNtB1G_9debug_api15DebugApiBackendEENtNtCs141FUTAEp3L_14liquid_staking6config12ConfigModule24set_accumulator_contractCs25HLPETZpNm_4test
FN:117,_RNvYINtNtNtCsd0DXYhglbat_13multiversx_sc13contract_base22universal_contract_obj20UniversalContractObjINtNtNtNtCs2614o7AVePg_22multiversx_sc_scenario3api7impl_vh12vm_hooks_api10VMHooksApiNtNtB1G_9debug_api15DebugApiBackendEENtNtCs141FUTAEp3L_14liquid_staking6config12ConfigModule25remove_liquidity_providerCs25HLPETZpNm_4test
FN:82,_RNvYINtNtNtCsd0DXYhglbat_13multiversx_sc13contract_base22universal_contract_obj20UniversalContractObjINtNtNtNtCs2614o7AVePg_22multiversx_sc_scenario3api7impl_vh12vm_hooks_api10VMHooksApiNtNtB1G_9debug_api15DebugApiBackendEENtNtCs141FUTAEp3L_14liquid_staking6config12ConfigModule26set_max_selected_providersCs25HLPETZpNm_4test
FN:69,_RNvYINtNtNtCsd0DXYhglbat_13multiversx_sc13contract_base22universal_contract_obj20UniversalContractObjINtNtNtNtCs2614o7AVePg_22multiversx_sc_scenario3api7impl_vh12vm_hooks_api10VMHooksApiNtNtB1G_9debug_api15DebugApiBackendEENtNtCs141FUTAEp3L_14liquid_staking6config12ConfigModule8set_feesCs25HLPETZpNm_4test
FN:8,_RNvYINtNtNtCsd0DXYhglbat_13multiversx_sc13contract_base22universal_contract_obj20UniversalContractObjINtNtNtNtCs2614o7AVePg_22multiversx_sc_scenario3api7impl_vh12vm_hooks_api10VMHooksApiNtNtB1G_9debug_api15DebugApiBackendEENtNtCs141FUTAEp3L_14liquid_staking6config16EndpointWrappers13call_set_feesCs25HLPETZpNm_4test
FN:8,_RNvYINtNtNtCsd0DXYhglbat_13multiversx_sc13contract_base22universal_contract_obj20UniversalContractObjINtNtNtNtCs2614o7AVePg_22multiversx_sc_scenario3api7impl_vh12vm_hooks_api10VMHooksApiNtNtB1G_9debug_api15DebugApiBackendEENtNtCs141FUTAEp3L_14liquid_staking6config16EndpointWrappers17call_set_managersCs25HLPETZpNm_4test
FN:8,_RNvYINtNtNtCsd0DXYhglbat_13multiversx_sc13contract_base22universal_contract_obj20UniversalContractObjINtNtNtNtCs2614o7AVePg_22multiversx_sc_scenario3api7impl_vh12vm_hooks_api10VMHooksApiNtNtB1G_9debug_api15DebugApiBackendEENtNtCs141FUTAEp3L_14liquid_staking6config16EndpointWrappers17callback_selectorCs25HLPETZpNm_4test
FN:8,_RNvYINtNtNtCsd0DXYhglbat_13multiversx_sc13contract_base22universal_contract_obj20UniversalContractObjINtNtNtNtCs2614o7AVePg_22multiversx_sc_scenario3api7impl_vh12vm_hooks_api10VMHooksApiNtNtB1G_9debug_api15DebugApiBackendEENtNtCs141FUTAEp3L_14liquid_staking6config16EndpointWrappers19call_remove_managerCs25HLPETZpNm_4test
FN:8,_RNvYINtNtNtCsd0DXYhglbat_13multiversx_sc13contract_base22universal_contract_obj20UniversalContractObjINtNtNtNtCs2614o7AVePg_22multiversx_sc_scenario3api7impl_vh12vm_hooks_api10VMHooksApiNtNtB1G_9debug_api15DebugApiBackendEENtNtCs141FUTAEp3L_14liquid_staking6config16EndpointWrappers21call_set_state_activeCs25HLPETZpNm_4test
FN:8,_RNvYINtNtNtCsd0DXYhglbat_13multiversx_sc13contract_base22universal_contract_obj20UniversalContractObjINtNtNtNtCs2614o7AVePg_22multiversx_sc_scenario3api7impl_vh12vm_hooks_api10VMHooksApiNtNtB1G_9debug_api15DebugApiBackendEENtNtCs141FUTAEp3L_14liquid_staking6config16EndpointWrappers22call_register_ls_tokenCs25HLPETZpNm_4test
FN:8,_RNvYINtNtNtCsd0DXYhglbat_13multiversx_sc13contract_base22universal_contract_obj20UniversalContractObjINtNtNtNtCs2614o7AVePg_22multiversx_sc_scenario3api7impl_vh12vm_hooks_api10VMHooksApiNtNtB1G_9debug_api15DebugApiBackendEENtNtCs141FUTAEp3L_14liquid_staking6config16EndpointWrappers22call_set_max_addressesCs25HLPETZpNm_4test
FN:8,_RNvYINtNtNtCsd0DXYhglbat_13multiversx_sc13contract_base22universal_contract_obj20UniversalContractObjINtNtNtNtCs2614o7AVePg_22multiversx_sc_scenario3api7impl_vh12vm_hooks_api10VMHooksApiNtNtB1G_9debug_api15DebugApiBackendEENtNtCs141FUTAEp3L_14liquid_staking6config16EndpointWrappers22call_set_unbond_periodCs25HLPETZpNm_4test
FN:8,_RNvYINtNtNtCsd0DXYhglbat_13multiversx_sc13contract_base22universal_contract_obj20UniversalContractObjINtNtNtNtCs2614o7AVePg_22multiversx_sc_scenario3api7impl_vh12vm_hooks_api10VMHooksApiNtNtB1G_9debug_api15DebugApiBackendEENtNtCs141FUTAEp3L_14liquid_staking6config16EndpointWrappers23call_set_scoring_configCs25HLPETZpNm_4test
FN:8,_RNvYINtNtNtCsd0DXYhglbat_13multiversx_sc13contract_base22universal_contract_obj20UniversalContractObjINtNtNtNtCs2614o7AVePg_22multiversx_sc_scenario3api7impl_vh12vm_hooks_api10VMHooksApiNtNtB1G_9debug_api15DebugApiBackendEENtNtCs141FUTAEp3L_14liquid_staking6config16EndpointWrappers23call_set_state_inactiveCs25HLPETZpNm_4test
FN:8,_RNvYINtNtNtCsd0DXYhglbat_13multiversx_sc13contract_base22universal_contract_obj20UniversalContractObjINtNtNtNtCs2614o7AVePg_22multiversx_sc_scenario3api7impl_vh12vm_hooks_api10VMHooksApiNtNtB1G_9debug_api15DebugApiBackendEENtNtCs141FUTAEp3L_14liquid_staking6config16EndpointWrappers27call_add_liquidity_providerCs25HLPETZpNm_4test
FN:8,_RNvYINtNtNtCsd0DXYhglbat_13multiversx_sc13contract_base22universal_contract_obj20UniversalContractObjINtNtNtNtCs2614o7AVePg_22multiversx_sc_scenario3api7impl_vh12vm_hooks_api10VMHooksApiNtNtB1G_9debug_api15DebugApiBackendEENtNtCs141FUTAEp3L_14liquid_staking6config16EndpointWrappers27call_register_unstake_tokenCs25HLPETZpNm_4test
FN:8,_RNvYINtNtNtCsd0DXYhglbat_13multiversx_sc13contract_base22universal_contract_obj20UniversalContractObjINtNtNtNtCs2614o7AVePg_22multiversx_sc_scenario3api7impl_vh12vm_hooks_api10VMHooksApiNtNtB1G_9debug_api15DebugApiBackendEENtNtCs141FUTAEp3L_14liquid_staking6config16EndpointWrappers29call_set_accumulator_contractCs25HLPETZpNm_4test
FN:8,_RNvYINtNtNtCsd0DXYhglbat_13multiversx_sc13contract_base22universal_contract_obj20UniversalContractObjINtNtNtNtCs2614o7AVePg_22multiversx_sc_scenario3api7impl_vh12vm_hooks_api10VMHooksApiNtNtB1G_9debug_api15DebugApiBackendEENtNtCs141FUTAEp3L_14liquid_staking6config16EndpointWrappers30call_remove_liquidity_providerCs25HLPETZpNm_4test
FN:8,_RNvYINtNtNtCsd0DXYhglbat_13multiversx_sc13contract_base22universal_contract_obj20UniversalContractObjINtNtNtNtCs2614o7AVePg_22multiversx_sc_scenario3api7impl_vh12vm_hooks_api10VMHooksApiNtNtB1G_9debug_api15DebugApiBackendEENtNtCs141FUTAEp3L_14liquid_staking6config16EndpointWrappers31call_set_max_selected_providersCs25HLPETZpNm_4test
FN:8,_RNvYINtNtNtCsd0DXYhglbat_13multiversx_sc13contract_base22universal_contract_obj20UniversalContractObjINtNtNtNtCs2614o7AVePg_22multiversx_sc_scenario3api7impl_vh12vm_hooks_api10VMHooksApiNtNtB1G_9debug_api15DebugApiBackendEENtNtCs141FUTAEp3L_14liquid_staking6config16EndpointWrappers4callCs25HLPETZpNm_4test
FN:8,_RNvYINtNtNtCsd0DXYhglbat_13multiversx_sc13contract_base22universal_contract_obj20UniversalContractObjINtNtNtNtCs2614o7AVePg_22multiversx_sc_scenario3api7impl_vh12vm_hooks_api10VMHooksApiNtNtB1G_9debug_api15DebugApiBackendEENtNtCs141FUTAEp3L_14liquid_staking6config16EndpointWrappers8callbackCs25HLPETZpNm_4test
FN:131,_RNvYINtCs141FUTAEp3L_14liquid_staking11ContractObjINtNtNtNtCs2614o7AVePg_22multiversx_sc_scenario3api7impl_vh12vm_hooks_api10VMHooksApiNtNtBR_9debug_api15DebugApiBackendEENtNtB5_6config12ConfigModule10is_managerCs25HLPETZpNm_4test
FN:51,_RNvYINtCs141FUTAEp3L_14liquid_staking11ContractObjINtNtNtNtCs2614o7AVePg_22multiversx_sc_scenario3api7impl_vh12vm_hooks_api10VMHooksApiNtNtBR_9debug_api15DebugApiBackendEENtNtB5_6config12ConfigModule16set_state_activeCs25HLPETZpNm_4test
FN:122,_RNvYINtCs141FUTAEp3L_14liquid_staking11ContractObjINtNtNtNtCs2614o7AVePg_22multiversx_sc_scenario3api7impl_vh12vm_hooks_api10VMHooksApiNtNtBR_9debug_api15DebugApiBackendEENtNtB5_6config12ConfigModule18set_scoring_configCs25HLPETZpNm_4test
FN:131,_RNvYINtCs141FUTAEp3L_14liquid_staking11ContractObjINtNtNtNtCs2614o7AVePg_22multiversx_sc_scenario3api7impl_vh12vm_hooks_api10VMHooksApiNtNtBR_9debug_api15DebugApiBackendEENtNtB5_6config12ConfigModule10is_managerCsgub9DQDg2s9_15unDelegate_test
FN:51,_RNvYINtCs141FUTAEp3L_14liquid_staking11ContractObjINtNtNtNtCs2614o7AVePg_22multiversx_sc_scenario3api7impl_vh12vm_hooks_api10VMHooksApiNtNtBR_9debug_api15DebugApiBackendEENtNtB5_6config12ConfigModule16set_state_activeCsgub9DQDg2s9_15unDelegate_test
FN:122,_RNvYINtCs141FUTAEp3L_14liquid_staking11ContractObjINtNtNtNtCs2614o7AVePg_22multiversx_sc_scenario3api7impl_vh12vm_hooks_api10VMHooksApiNtNtBR_9debug_api15DebugApiBackendEENtNtB5_6config12ConfigModule18set_scoring_configCsgub9DQDg2s9_15unDelegate_test
FN:131,_RNvYINtNtNtCsd0DXYhglbat_13multiversx_sc13contract_base22universal_contract_obj20UniversalContractObjINtNtNtNtCs2614o7AVePg_22multiversx_sc_scenario3api7impl_vh12vm_hooks_api10VMHooksApiNtNtB1G_9debug_api15DebugApiBackendEENtNtCs141FUTAEp3L_14liquid_staking6config12ConfigModule10is_managerCsgub9DQDg2s9_15unDelegate_test
FN:99,_RNvYINtNtNtCsd0DXYhglbat_13multiversx_sc13contract_base22universal_contract_obj20UniversalContractObjINtNtNtNtCs2614o7AVePg_22multiversx_sc_scenario3api7impl_vh12vm_hooks_api10VMHooksApiNtNtB1G_9debug_api15DebugApiBackendEENtNtCs141FUTAEp3L_14liquid_staking6config12ConfigModule12set_managersCsgub9DQDg2s9_15unDelegate_test
FN:105,_RNvYINtNtNtCsd0DXYhglbat_13multiversx_sc13contract_base22universal_contract_obj20UniversalContractObjINtNtNtNtCs2614o7AVePg_22multiversx_sc_scenario3api7impl_vh12vm_hooks_api10VMHooksApiNtNtB1G_9debug_api15DebugApiBackendEENtNtCs141FUTAEp3L_14liquid_staking6config12ConfigModule14remove_managerCsgub9DQDg2s9_15unDelegate_test
FN:51,_RNvYINtNtNtCsd0DXYhglbat_13multiversx_sc13contract_base22universal_contract_obj20UniversalContractObjINtNtNtNtCs2614o7AVePg_22multiversx_sc_scenario3api7impl_vh12vm_hooks_api10VMHooksApiNtNtB1G_9debug_api15DebugApiBackendEENtNtCs141FUTAEp3L_14liquid_staking6config12ConfigModule16set_state_activeCsgub9DQDg2s9_15unDelegate_test
FN:18,_RNvYINtNtNtCsd0DXYhglbat_13multiversx_sc13contract_base22universal_contract_obj20UniversalContractObjINtNtNtNtCs2614o7AVePg_22multiversx_sc_scenario3api7impl_vh12vm_hooks_api10VMHooksApiNtNtB1G_9debug_api15DebugApiBackendEENtNtCs141FUTAEp3L_14liquid_staking6config12ConfigModule17register_ls_tokenCsgub9DQDg2s9_15unDelegate_test
FN:75,_RNvYINtNtNtCsd0DXYhglbat_13multiversx_sc13contract_base22universal_contract_obj20UniversalContractObjINtNtNtNtCs2614o7AVePg_22multiversx_sc_scenario3api7impl_vh12vm_hooks_api10VMHooksApiNtNtB1G_9debug_api15DebugApiBackendEENtNtCs141FUTAEp3L_14liquid_staking6config12ConfigModule17set_max_addressesCsgub9DQDg2s9_15unDelegate_test
FN:93,_RNvYINtNtNtCsd0DXYhglbat_13multiversx_sc13contract_base22universal_contract_obj20UniversalContractObjINtNtNtNtCs2614o7AVePg_22multiversx_sc_scenario3api7impl_vh12vm_hooks_api10VMHooksApiNtNtB1G_9debug_api15DebugApiBackendEENtNtCs141FUTAEp3L_14liquid_staking6config12ConfigModule17set_unbond_periodCsgub9DQDg2s9_15unDelegate_test
FN:122,_RNvYINtNtNtCsd0DXYhglbat_13multiversx_sc13contract_base22universal_contract_obj20UniversalContractObjINtNtNtNtCs2614o7AVePg_22multiversx_sc_scenario3api7impl_vh12vm_hooks_api10VMHooksApiNtNtB1G_9debug_api15DebugApiBackendEENtNtCs141FUTAEp3L_14liquid_staking6config12ConfigModule18set_scoring_configCsgub9DQDg2s9_15unDelegate_test
FN:57,_RNvYINtNtNtCsd0DXYhglbat_13multiversx_sc13contract_base22universal_contract_obj20UniversalContractObjINtNtNtNtCs2614o7AVePg_22multiversx_sc_scenario3api7impl_vh12vm_hooks_api10VMHooksApiNtNtB1G_9debug_api15DebugApiBackendEENtNtCs141FUTAEp3L_14liquid_staking6config12ConfigModule18set_state_inactiveCsgub9DQDg2s9_15unDelegate_test
FN:111,_RNvYINtNtNtCsd0DXYhglbat_13multiversx_sc13contract_base22universal_contract_obj20UniversalContractObjINtNtNtNtCs2614o7AVePg_22multiversx_sc_scenario3api7impl_vh12vm_hooks_api10VMHooksApiNtNtB1G_9debug_api15DebugApiBackendEENtNtCs141FUTAEp3L_14liquid_staking6config12ConfigModule22add_liquidity_providerCsgub9DQDg2s9_15unDelegate_test
FN:37,_RNvYINtNtNtCsd0DXYhglbat_13multiversx_sc13contract_base22universal_contract_obj20UniversalContractObjINtNtNtNtCs2614o7AVePg_22multiversx_sc_scenario3api7impl_vh12vm_hooks_api10VMHooksApiNtNtB1G_9debug_api15DebugApiBackendEENtNtCs141FUTAEp3L_14liquid_staking6config12ConfigModule22register_unstake_tokenCsgub9DQDg2s9_15unDelegate_test
FN:63,_RNvYINtNtNtCsd0DXYhglbat_13multiversx_sc13contract_base22universal_contract_obj20UniversalContractObjINtNtNtNtCs2614o7AVePg_22multiversx_sc_scenario3api7impl_vh12vm_hooks_api10VMHooksApiNtNtB1G_9debug_api15DebugApiBackendEENtNtCs141FUTAEp3L_14liquid_staking6config12ConfigModule24set_accumulator_contractCsgub9DQDg2s9_15unDelegate_test
FN:117,_RNvYINtNtNtCsd0DXYhglbat_13multiversx_sc13contract_base22universal_contract_obj20UniversalContractObjINtNtNtNtCs2614o7AVePg_22multiversx_sc_scenario3api7impl_vh12vm_hooks_api10VMHooksApiNtNtB1G_9debug_api15DebugApiBackendEENtNtCs141FUTAEp3L_14liquid_staking6config12ConfigModule25remove_liquidity_providerCsgub9DQDg2s9_15unDelegate_test
FN:82,_RNvYINtNtNtCsd0DXYhglbat_13multiversx_sc13contract_base22universal_contract_obj20UniversalContractObjINtNtNtNtCs2614o7AVePg_22multiversx_sc_scenario3api7impl_vh12vm_hooks_api10VMHooksApiNtNtB1G_9debug_api15DebugApiBackendEENtNtCs141FUTAEp3L_14liquid_staking6config12ConfigModule26set_max_selected_providersCsgub9DQDg2s9_15unDelegate_test
FN:69,_RNvYINtNtNtCsd0DXYhglbat_13multiversx_sc13contract_base22universal_contract_obj20UniversalContractObjINtNtNtNtCs2614o7AVePg_22multiversx_sc_scenario3api7impl_vh12vm_hooks_api10VMHooksApiNtNtB1G_9debug_api15DebugApiBackendEENtNtCs141FUTAEp3L_14liquid_staking6config12ConfigModule8set_feesCsgub9DQDg2s9_15unDelegate_test
FN:8,_RNvYINtNtNtCsd0DXYhglbat_13multiversx_sc13contract_base22universal_contract_obj20UniversalContractObjINtNtNtNtCs2614o7AVePg_22multiversx_sc_scenario3api7impl_vh12vm_hooks_api10VMHooksApiNtNtB1G_9debug_api15DebugApiBackendEENtNtCs141FUTAEp3L_14liquid_staking6config16EndpointWrappers13call_set_feesCsgub9DQDg2s9_15unDelegate_test
FN:8,_RNvYINtNtNtCsd0DXYhglbat_13multiversx_sc13contract_base22universal_contract_obj20UniversalContractObjINtNtNtNtCs2614o7AVePg_22multiversx_sc_scenario3api7impl_vh12vm_hooks_api10VMHooksApiNtNtB1G_9debug_api15DebugApiBackendEENtNtCs141FUTAEp3L_14liquid_staking6config16EndpointWrappers17call_set_managersCsgub9DQDg2s9_15unDelegate_test
FN:8,_RNvYINtNtNtCsd0DXYhglbat_13multiversx_sc13contract_base22universal_contract_obj20UniversalContractObjINtNtNtNtCs2614o7AVePg_22multiversx_sc_scenario3api7impl_vh12vm_hooks_api10VMHooksApiNtNtB1G_9debug_api15DebugApiBackendEENtNtCs141FUTAEp3L_14liquid_staking6config16EndpointWrappers17callback_selectorCsgub9DQDg2s9_15unDelegate_test
FN:8,_RNvYINtNtNtCsd0DXYhglbat_13multiversx_sc13contract_base22universal_contract_obj20UniversalContractObjINtNtNtNtCs2614o7AVePg_22multiversx_sc_scenario3api7impl_vh12vm_hooks_api10VMHooksApiNtNtB1G_9debug_api15DebugApiBackendEENtNtCs141FUTAEp3L_14liquid_staking6config16EndpointWrappers19call_remove_managerCsgub9DQDg2s9_15unDelegate_test
FN:8,_RNvYINtNtNtCsd0DXYhglbat_13multiversx_sc13contract_base22universal_contract_obj20UniversalContractObjINtNtNtNtCs2614o7AVePg_22multiversx_sc_scenario3api7impl_vh12vm_hooks_api10VMHooksApiNtNtB1G_9debug_api15DebugApiBackendEENtNtCs141FUTAEp3L_14liquid_staking6config16EndpointWrappers21call_set_state_activeCsgub9DQDg2s9_15unDelegate_test
FN:8,_RNvYINtNtNtCsd0DXYhglbat_13multiversx_sc13contract_base22universal_contract_obj20UniversalContractObjINtNtNtNtCs2614o7AVePg_22multiversx_sc_scenario3api7impl_vh12vm_hooks_api10VMHooksApiNtNtB1G_9debug_api15DebugApiBackendEENtNtCs141FUTAEp3L_14liquid_staking6config16EndpointWrappers22call_register_ls_tokenCsgub9DQDg2s9_15unDelegate_test
FN:8,_RNvYINtNtNtCsd0DXYhglbat_13multiversx_sc13contract_base22universal_contract_obj20UniversalContractObjINtNtNtNtCs2614o7AVePg_22multiversx_sc_scenario3api7impl_vh12vm_hooks_api10VMHooksApiNtNtB1G_9debug_api15DebugApiBackendEENtNtCs141FUTAEp3L_14liquid_staking6config16EndpointWrappers22call_set_max_addressesCsgub9DQDg2s9_15unDelegate_test
FN:8,_RNvYINtNtNtCsd0DXYhglbat_13multiversx_sc13contract_base22universal_contract_obj20UniversalContractObjINtNtNtNtCs2614o7AVePg_22multiversx_sc_scenario3api7impl_vh12vm_hooks_api10VMHooksApiNtNtB1G_9debug_api15DebugApiBackendEENtNtCs141FUTAEp3L_14liquid_staking6config16EndpointWrappers22call_set_unbond_periodCsgub9DQDg2s9_15unDelegate_test
FN:8,_RNvYINtNtNtCsd0DXYhglbat_13multiversx_sc13contract_base22universal_contract_obj20UniversalContractObjINtNtNtNtCs2614o7AVePg_22multiversx_sc_scenario3api7impl_vh12vm_hooks_api10VMHooksApiNtNtB1G_9debug_api15DebugApiBackendEENtNtCs141FUTAEp3L_14liquid_staking6config16EndpointWrappers23call_set_scoring_configCsgub9DQDg2s9_15unDelegate_test
FN:8,_RNvYINtNtNtCsd0DXYhglbat_13multiversx_sc13contract_base22universal_contract_obj20UniversalContractObjINtNtNtNtCs2614o7AVePg_22multiversx_sc_scenario3api7impl_vh12vm_hooks_api10VMHooksApiNtNtB1G_9debug_api15DebugApiBackendEENtNtCs141FUTAEp3L_14liquid_staking6config16EndpointWrappers23call_set_state_inactiveCsgub9DQDg2s9_15unDelegate_test
FN:8,_RNvYINtNtNtCsd0DXYhglbat_13multiversx_sc13contract_base22universal_contract_obj20UniversalContractObjINtNtNtNtCs2614o7AVePg_22multiversx_sc_scenario3api7impl_vh12vm_hooks_api10VMHooksApiNtNtB1G_9debug_api15DebugApiBackendEENtNtCs141FUTAEp3L_14liquid_staking6config16EndpointWrappers27call_add_liquidity_providerCsgub9DQDg2s9_15unDelegate_test
FN:8,_RNvYINtNtNtCsd0DXYhglbat_13multiversx_sc13contract_base22universal_contract_obj20UniversalContractObjINtNtNtNtCs2614o7AVePg_22multiversx_sc_scenario3api7impl_vh12vm_hooks_api10VMHooksApiNtNtB1G_9debug_api15DebugApiBackendEENtNtCs141FUTAEp3L_14liquid_staking6config16EndpointWrappers27call_register_unstake_tokenCsgub9DQDg2s9_15unDelegate_test
FN:8,_RNvYINtNtNtCsd0DXYhglbat_13multiversx_sc13contract_base22universal_contract_obj20UniversalContractObjINtNtNtNtCs2614o7AVePg_22multiversx_sc_scenario3api7impl_vh12vm_hooks_api10VMHooksApiNtNtB1G_9debug_api15DebugApiBackendEENtNtCs141FUTAEp3L_14liquid_staking6config16EndpointWrappers29call_set_accumulator_contractCsgub9DQDg2s9_15unDelegate_test
FN:8,_RNvYINtNtNtCsd0DXYhglbat_13multiversx_sc13contract_base22universal_contract_obj20UniversalContractObjINtNtNtNtCs2614o7AVePg_22multiversx_sc_scenario3api7impl_vh12vm_hooks_api10VMHooksApiNtNtB1G_9debug_api15DebugApiBackendEENtNtCs141FUTAEp3L_14liquid_staking6config16EndpointWrappers30call_remove_liquidity_providerCsgub9DQDg2s9_15unDelegate_test
FN:8,_RNvYINtNtNtCsd0DXYhglbat_13multiversx_sc13contract_base22universal_contract_obj20UniversalContractObjINtNtNtNtCs2614o7AVePg_22multiversx_sc_scenario3api7impl_vh12vm_hooks_api10VMHooksApiNtNtB1G_9debug_api15DebugApiBackendEENtNtCs141FUTAEp3L_14liquid_staking6config16EndpointWrappers31call_set_max_selected_providersCsgub9DQDg2s9_15unDelegate_test
FN:8,_RNvYINtNtNtCsd0DXYhglbat_13multiversx_sc13contract_base22universal_contract_obj20UniversalContractObjINtNtNtNtCs2614o7AVePg_22multiversx_sc_scenario3api7impl_vh12vm_hooks_api10VMHooksApiNtNtB1G_9debug_api15DebugApiBackendEENtNtCs141FUTAEp3L_14liquid_staking6config16EndpointWrappers4callCsgub9DQDg2s9_15unDelegate_test
FN:8,_RNvYINtNtNtCsd0DXYhglbat_13multiversx_sc13contract_base22universal_contract_obj20UniversalContractObjINtNtNtNtCs2614o7AVePg_22multiversx_sc_scenario3api7impl_vh12vm_hooks_api10VMHooksApiNtNtB1G_9debug_api15DebugApiBackendEENtNtCs141FUTAEp3L_14liquid_staking6config16EndpointWrappers8callbackCsgub9DQDg2s9_15unDelegate_test
FN:131,_RNvYINtNtNtCsd0DXYhglbat_13multiversx_sc13contract_base22universal_contract_obj20UniversalContractObjINtNtNtNtCs2614o7AVePg_22multiversx_sc_scenario3api7impl_vh12vm_hooks_api10VMHooksApiNtNtB1G_9debug_api15DebugApiBackendEENtNtCs141FUTAEp3L_14liquid_staking6config12ConfigModule10is_managerCscNyXpV1vtNq_11unbond_test
FN:99,_RNvYINtNtNtCsd0DXYhglbat_13multiversx_sc13contract_base22universal_contract_obj20UniversalContractObjINtNtNtNtCs2614o7AVePg_22multiversx_sc_scenario3api7impl_vh12vm_hooks_api10VMHooksApiNtNtB1G_9debug_api15DebugApiBackendEENtNtCs141FUTAEp3L_14liquid_staking6config12ConfigModule12set_managersCscNyXpV1vtNq_11unbond_test
FN:105,_RNvYINtNtNtCsd0DXYhglbat_13multiversx_sc13contract_base22universal_contract_obj20UniversalContractObjINtNtNtNtCs2614o7AVePg_22multiversx_sc_scenario3api7impl_vh12vm_hooks_api10VMHooksApiNtNtB1G_9debug_api15DebugApiBackendEENtNtCs141FUTAEp3L_14liquid_staking6config12ConfigModule14remove_managerCscNyXpV1vtNq_11unbond_test
FN:51,_RNvYINtNtNtCsd0DXYhglbat_13multiversx_sc13contract_base22universal_contract_obj20UniversalContractObjINtNtNtNtCs2614o7AVePg_22multiversx_sc_scenario3api7impl_vh12vm_hooks_api10VMHooksApiNtNtB1G_9debug_api15DebugApiBackendEENtNtCs141FUTAEp3L_14liquid_staking6config12ConfigModule16set_state_activeCscNyXpV1vtNq_11unbond_test
FN:18,_RNvYINtNtNtCsd0DXYhglbat_13multiversx_sc13contract_base22universal_contract_obj20UniversalContractObjINtNtNtNtCs2614o7AVePg_22multiversx_sc_scenario3api7impl_vh12vm_hooks_api10VMHooksApiNtNtB1G_9debug_api15DebugApiBackendEENtNtCs141FUTAEp3L_14liquid_staking6config12ConfigModule17register_ls_tokenCscNyXpV1vtNq_11unbond_test
FN:75,_RNvYINtNtNtCsd0DXYhglbat_13multiversx_sc13contract_base22universal_contract_obj20UniversalContractObjINtNtNtNtCs2614o7AVePg_22multiversx_sc_scenario3api7impl_vh12vm_hooks_api10VMHooksApiNtNtB1G_9debug_api15DebugApiBackendEENtNtCs141FUTAEp3L_14liquid_staking6config12ConfigModule17set_max_addressesCscNyXpV1vtNq_11unbond_test
FN:93,_RNvYINtNtNtCsd0DXYhglbat_13multiversx_sc13contract_base22universal_contract_obj20UniversalContractObjINtNtNtNtCs2614o7AVePg_22multiversx_sc_scenario3api7impl_vh12vm_hooks_api10VMHooksApiNtNtB1G_9debug_api15DebugApiBackendEENtNtCs141FUTAEp3L_14liquid_staking6config12ConfigModule17set_unbond_periodCscNyXpV1vtNq_11unbond_test
FN:122,_RNvYINtNtNtCsd0DXYhglbat_13multiversx_sc13contract_base22universal_contract_obj20UniversalContractObjINtNtNtNtCs2614o7AVePg_22multiversx_sc_scenario3api7impl_vh12vm_hooks_api10VMHooksApiNtNtB1G_9debug_api15DebugApiBackendEENtNtCs141FUTAEp3L_14liquid_staking6config12ConfigModule18set_scoring_configCscNyXpV1vtNq_11unbond_test
FN:57,_RNvYINtNtNtCsd0DXYhglbat_13multiversx_sc13contract_base22universal_contract_obj20UniversalContractObjINtNtNtNtCs2614o7AVePg_22multiversx_sc_scenario3api7impl_vh12vm_hooks_api10VMHooksApiNtNtB1G_9debug_api15DebugApiBackendEENtNtCs141FUTAEp3L_14liquid_staking6config12ConfigModule18set_state_inactiveCscNyXpV1vtNq_11unbond_test
FN:111,_RNvYINtNtNtCsd0DXYhglbat_13multiversx_sc13contract_base22universal_contract_obj20UniversalContractObjINtNtNtNtCs2614o7AVePg_22multiversx_sc_scenario3api7impl_vh12vm_hooks_api10VMHooksApiNtNtB1G_9debug_api15DebugApiBackendEENtNtCs141FUTAEp3L_14liquid_staking6config12ConfigModule22add_liquidity_providerCscNyXpV1vtNq_11unbond_test
FN:37,_RNvYINtNtNtCsd0DXYhglbat_13multiversx_sc13contract_base22universal_contract_obj20UniversalContractObjINtNtNtNtCs2614o7AVePg_22multiversx_sc_scenario3api7impl_vh12vm_hooks_api10VMHooksApiNtNtB1G_9debug_api15DebugApiBackendEENtNtCs141FUTAEp3L_14liquid_staking6config12ConfigModule22register_unstake_tokenCscNyXpV1vtNq_11unbond_test
FN:63,_RNvYINtNtNtCsd0DXYhglbat_13multiversx_sc13contract_base22universal_contract_obj20UniversalContractObjINtNtNtNtCs2614o7AVePg_22multiversx_sc_scenario3api7impl_vh12vm_hooks_api10VMHooksApiNtNtB1G_9debug_api15DebugApiBackendEENtNtCs141FUTAEp3L_14liquid_staking6config12ConfigModule24set_accumulator_contractCscNyXpV1vtNq_11unbond_test
FN:117,_RNvYINtNtNtCsd0DXYhglbat_13multiversx_sc13contract_base22universal_contract_obj20UniversalContractObjINtNtNtNtCs2614o7AVePg_22multiversx_sc_scenario3api7impl_vh12vm_hooks_api10VMHooksApiNtNtB1G_9debug_api15DebugApiBackendEENtNtCs141FUTAEp3L_14liquid_staking6config12ConfigModule25remove_liquidity_providerCscNyXpV1vtNq_11unbond_test
FN:82,_RNvYINtNtNtCsd0DXYhglbat_13multiversx_sc13contract_base22universal_contract_obj20UniversalContractObjINtNtNtNtCs2614o7AVePg_22multiversx_sc_scenario3api7impl_vh12vm_hooks_api10VMHooksApiNtNtB1G_9debug_api15DebugApiBackendEENtNtCs141FUTAEp3L_14liquid_staking6config12ConfigModule26set_max_selected_providersCscNyXpV1vtNq_11unbond_test
FN:69,_RNvYINtNtNtCsd0DXYhglbat_13multiversx_sc13contract_base22universal_contract_obj20UniversalContractObjINtNtNtNtCs2614o7AVePg_22multiversx_sc_scenario3api7impl_vh12vm_hooks_api10VMHooksApiNtNtB1G_9debug_api15DebugApiBackendEENtNtCs141FUTAEp3L_14liquid_staking6config12ConfigModule8set_feesCscNyXpV1vtNq_11unbond_test
FN:8,_RNvYINtNtNtCsd0DXYhglbat_13multiversx_sc13contract_base22universal_contract_obj20UniversalContractObjINtNtNtNtCs2614o7AVePg_22multiversx_sc_scenario3api7impl_vh12vm_hooks_api10VMHooksApiNtNtB1G_9debug_api15DebugApiBackendEENtNtCs141FUTAEp3L_14liquid_staking6config16EndpointWrappers13call_set_feesCscNyXpV1vtNq_11unbond_test
FN:8,_RNvYINtNtNtCsd0DXYhglbat_13multiversx_sc13contract_base22universal_contract_obj20UniversalContractObjINtNtNtNtCs2614o7AVePg_22multiversx_sc_scenario3api7impl_vh12vm_hooks_api10VMHooksApiNtNtB1G_9debug_api15DebugApiBackendEENtNtCs141FUTAEp3L_14liquid_staking6config16EndpointWrappers17call_set_managersCscNyXpV1vtNq_11unbond_test
FN:8,_RNvYINtNtNtCsd0DXYhglbat_13multiversx_sc13contract_base22universal_contract_obj20UniversalContractObjINtNtNtNtCs2614o7AVePg_22multiversx_sc_scenario3api7impl_vh12vm_hooks_api10VMHooksApiNtNtB1G_9debug_api15DebugApiBackendEENtNtCs141FUTAEp3L_14liquid_staking6config16EndpointWrappers17callback_selectorCscNyXpV1vtNq_11unbond_test
FN:8,_RNvYINtNtNtCsd0DXYhglbat_13multiversx_sc13contract_base22universal_contract_obj20UniversalContractObjINtNtNtNtCs2614o7AVePg_22multiversx_sc_scenario3api7impl_vh12vm_hooks_api10VMHooksApiNtNtB1G_9debug_api15DebugApiBackendEENtNtCs141FUTAEp3L_14liquid_staking6config16EndpointWrappers19call_remove_managerCscNyXpV1vtNq_11unbond_test
FN:8,_RNvYINtNtNtCsd0DXYhglbat_13multiversx_sc13contract_base22universal_contract_obj20UniversalContractObjINtNtNtNtCs2614o7AVePg_22multiversx_sc_scenario3api7impl_vh12vm_hooks_api10VMHooksApiNtNtB1G_9debug_api15DebugApiBackendEENtNtCs141FUTAEp3L_14liquid_staking6config16EndpointWrappers21call_set_state_activeCscNyXpV1vtNq_11unbond_test
FN:8,_RNvYINtNtNtCsd0DXYhglbat_13multiversx_sc13contract_base22universal_contract_obj20UniversalContractObjINtNtNtNtCs2614o7AVePg_22multiversx_sc_scenario3api7impl_vh12vm_hooks_api10VMHooksApiNtNtB1G_9debug_api15DebugApiBackendEENtNtCs141FUTAEp3L_14liquid_staking6config16EndpointWrappers22call_register_ls_tokenCscNyXpV1vtNq_11unbond_test
FN:8,_RNvYINtNtNtCsd0DXYhglbat_13multiversx_sc13contract_base22universal_contract_obj20UniversalContractObjINtNtNtNtCs2614o7AVePg_22multiversx_sc_scenario3api7impl_vh12vm_hooks_api10VMHooksApiNtNtB1G_9debug_api15DebugApiBackendEENtNtCs141FUTAEp3L_14liquid_staking6config16EndpointWrappers22call_set_max_addressesCscNyXpV1vtNq_11unbond_test
FN:8,_RNvYINtNtNtCsd0DXYhglbat_13multiversx_sc13contract_base22universal_contract_obj20UniversalContractObjINtNtNtNtCs2614o7AVePg_22multiversx_sc_scenario3api7impl_vh12vm_hooks_api10VMHooksApiNtNtB1G_9debug_api15DebugApiBackendEENtNtCs141FUTAEp3L_14liquid_staking6config16EndpointWrappers22call_set_unbond_periodCscNyXpV1vtNq_11unbond_test
FN:8,_RNvYINtNtNtCsd0DXYhglbat_13multiversx_sc13contract_base22universal_contract_obj20UniversalContractObjINtNtNtNtCs2614o7AVePg_22multiversx_sc_scenario3api7impl_vh12vm_hooks_api10VMHooksApiNtNtB1G_9debug_api15DebugApiBackendEENtNtCs141FUTAEp3L_14liquid_staking6config16EndpointWrappers23call_set_scoring_configCscNyXpV1vtNq_11unbond_test
FN:8,_RNvYINtNtNtCsd0DXYhglbat_13multiversx_sc13contract_base22universal_contract_obj20UniversalContractObjINtNtNtNtCs2614o7AVePg_22multiversx_sc_scenario3api7impl_vh12vm_hooks_api10VMHooksApiNtNtB1G_9debug_api15DebugApiBackendEENtNtCs141FUTAEp3L_14liquid_staking6config16EndpointWrappers23call_set_state_inactiveCscNyXpV1vtNq_11unbond_test
FN:8,_RNvYINtNtNtCsd0DXYhglbat_13multiversx_sc13contract_base22universal_contract_obj20UniversalContractObjINtNtNtNtCs2614o7AVePg_22multiversx_sc_scenario3api7impl_vh12vm_hooks_api10VMHooksApiNtNtB1G_9debug_api15DebugApiBackendEENtNtCs141FUTAEp3L_14liquid_staking6config16EndpointWrappers27call_add_liquidity_providerCscNyXpV1vtNq_11unbond_test
FN:8,_RNvYINtNtNtCsd0DXYhglbat_13multiversx_sc13contract_base22universal_contract_obj20UniversalContractObjINtNtNtNtCs2614o7AVePg_22multiversx_sc_scenario3api7impl_vh12vm_hooks_api10VMHooksApiNtNtB1G_9debug_api15DebugApiBackendEENtNtCs141FUTAEp3L_14liquid_staking6config16EndpointWrappers27call_register_unstake_tokenCscNyXpV1vtNq_11unbond_test
FN:8,_RNvYINtNtNtCsd0DXYhglbat_13multiversx_sc13contract_base22universal_contract_obj20UniversalContractObjINtNtNtNtCs2614o7AVePg_22multiversx_sc_scenario3api7impl_vh12vm_hooks_api10VMHooksApiNtNtB1G_9debug_api15DebugApiBackendEENtNtCs141FUTAEp3L_14liquid_staking6config16EndpointWrappers29call_set_accumulator_contractCscNyXpV1vtNq_11unbond_test
FN:8,_RNvYINtNtNtCsd0DXYhglbat_13multiversx_sc13contract_base22universal_contract_obj20UniversalContractObjINtNtNtNtCs2614o7AVePg_22multiversx_sc_scenario3api7impl_vh12vm_hooks_api10VMHooksApiNtNtB1G_9debug_api15DebugApiBackendEENtNtCs141FUTAEp3L_14liquid_staking6config16EndpointWrappers30call_remove_liquidity_providerCscNyXpV1vtNq_11unbond_test
FN:8,_RNvYINtNtNtCsd0DXYhglbat_13multiversx_sc13contract_base22universal_contract_obj20UniversalContractObjINtNtNtNtCs2614o7AVePg_22multiversx_sc_scenario3api7impl_vh12vm_hooks_api10VMHooksApiNtNtB1G_9debug_api15DebugApiBackendEENtNtCs141FUTAEp3L_14liquid_staking6config16EndpointWrappers31call_set_max_selected_providersCscNyXpV1vtNq_11unbond_test
FN:8,_RNvYINtNtNtCsd0DXYhglbat_13multiversx_sc13contract_base22universal_contract_obj20UniversalContractObjINtNtNtNtCs2614o7AVePg_22multiversx_sc_scenario3api7impl_vh12vm_hooks_api10VMHooksApiNtNtB1G_9debug_api15DebugApiBackendEENtNtCs141FUTAEp3L_14liquid_staking6config16EndpointWrappers4callCscNyXpV1vtNq_11unbond_test
FN:8,_RNvYINtNtNtCsd0DXYhglbat_13multiversx_sc13contract_base22universal_contract_obj20UniversalContractObjINtNtNtNtCs2614o7AVePg_22multiversx_sc_scenario3api7impl_vh12vm_hooks_api10VMHooksApiNtNtB1G_9debug_api15DebugApiBackendEENtNtCs141FUTAEp3L_14liquid_staking6config16EndpointWrappers8callbackCscNyXpV1vtNq_11unbond_test
FN:131,_RNvYINtCs141FUTAEp3L_14liquid_staking11ContractObjINtNtNtNtCs2614o7AVePg_22multiversx_sc_scenario3api7impl_vh12vm_hooks_api10VMHooksApiNtNtBR_9debug_api15DebugApiBackendEENtNtB5_6config12ConfigModule10is_managerCscNyXpV1vtNq_11unbond_test
FN:51,_RNvYINtCs141FUTAEp3L_14liquid_staking11ContractObjINtNtNtNtCs2614o7AVePg_22multiversx_sc_scenario3api7impl_vh12vm_hooks_api10VMHooksApiNtNtBR_9debug_api15DebugApiBackendEENtNtB5_6config12ConfigModule16set_state_activeCscNyXpV1vtNq_11unbond_test
FN:122,_RNvYINtCs141FUTAEp3L_14liquid_staking11ContractObjINtNtNtNtCs2614o7AVePg_22multiversx_sc_scenario3api7impl_vh12vm_hooks_api10VMHooksApiNtNtBR_9debug_api15DebugApiBackendEENtNtB5_6config12ConfigModule18set_scoring_configCscNyXpV1vtNq_11unbond_test
FNDA:26,_RNvYINtNtNtCsd0DXYhglbat_13multiversx_sc13contract_base22universal_contract_obj20UniversalContractObjINtNtNtNtCs2614o7AVePg_22multiversx_sc_scenario3api7impl_vh12vm_hooks_api10VMHooksApiNtNtB1G_9debug_api15DebugApiBackendEENtNtCs141FUTAEp3L_14liquid_staking6config12ConfigModule10is_managerCsbv7vZMOU1ip_13delegate_test
FNDA:0,_RNvYINtNtNtCsd0DXYhglbat_13multiversx_sc13contract_base22universal_contract_obj20UniversalContractObjINtNtNtNtCs2614o7AVePg_22multiversx_sc_scenario3api7impl_vh12vm_hooks_api10VMHooksApiNtNtB1G_9debug_api15DebugApiBackendEENtNtCs141FUTAEp3L_14liquid_staking6config12ConfigModule12set_managersCsbv7vZMOU1ip_13delegate_test
FNDA:0,_RNvYINtNtNtCsd0DXYhglbat_13multiversx_sc13contract_base22universal_contract_obj20UniversalContractObjINtNtNtNtCs2614o7AVePg_22multiversx_sc_scenario3api7impl_vh12vm_hooks_api10VMHooksApiNtNtB1G_9debug_api15DebugApiBackendEENtNtCs141FUTAEp3L_14liquid_staking6config12ConfigModule14remove_managerCsbv7vZMOU1ip_13delegate_test
FNDA:0,_RNvYINtNtNtCsd0DXYhglbat_13multiversx_sc13contract_base22universal_contract_obj20UniversalContractObjINtNtNtNtCs2614o7AVePg_22multiversx_sc_scenario3api7impl_vh12vm_hooks_api10VMHooksApiNtNtB1G_9debug_api15DebugApiBackendEENtNtCs141FUTAEp3L_14liquid_staking6config12ConfigModule16set_state_activeCsbv7vZMOU1ip_13delegate_test
FNDA:0,_RNvYINtNtNtCsd0DXYhglbat_13multiversx_sc13contract_base22universal_contract_obj20UniversalContractObjINtNtNtNtCs2614o7AVePg_22multiversx_sc_scenario3api7impl_vh12vm_hooks_api10VMHooksApiNtNtB1G_9debug_api15DebugApiBackendEENtNtCs141FUTAEp3L_14liquid_staking6config12ConfigModule17register_ls_tokenCsbv7vZMOU1ip_13delegate_test
FNDA:0,_RNvYINtNtNtCsd0DXYhglbat_13multiversx_sc13contract_base22universal_contract_obj20UniversalContractObjINtNtNtNtCs2614o7AVePg_22multiversx_sc_scenario3api7impl_vh12vm_hooks_api10VMHooksApiNtNtB1G_9debug_api15DebugApiBackendEENtNtCs141FUTAEp3L_14liquid_staking6config12ConfigModule17set_max_addressesCsbv7vZMOU1ip_13delegate_test
FNDA:0,_RNvYINtNtNtCsd0DXYhglbat_13multiversx_sc13contract_base22universal_contract_obj20UniversalContractObjINtNtNtNtCs2614o7AVePg_22multiversx_sc_scenario3api7impl_vh12vm_hooks_api10VMHooksApiNtNtB1G_9debug_api15DebugApiBackendEENtNtCs141FUTAEp3L_14liquid_staking6config12ConfigModule17set_unbond_periodCsbv7vZMOU1ip_13delegate_test
FNDA:0,_RNvYINtNtNtCsd0DXYhglbat_13multiversx_sc13contract_base22universal_contract_obj20UniversalContractObjINtNtNtNtCs2614o7AVePg_22multiversx_sc_scenario3api7impl_vh12vm_hooks_api10VMHooksApiNtNtB1G_9debug_api15DebugApiBackendEENtNtCs141FUTAEp3L_14liquid_staking6config12ConfigModule18set_scoring_configCsbv7vZMOU1ip_13delegate_test
FNDA:1,_RNvYINtNtNtCsd0DXYhglbat_13multiversx_sc13contract_base22universal_contract_obj20UniversalContractObjINtNtNtNtCs2614o7AVePg_22multiversx_sc_scenario3api7impl_vh12vm_hooks_api10VMHooksApiNtNtB1G_9debug_api15DebugApiBackendEENtNtCs141FUTAEp3L_14liquid_staking6config12ConfigModule18set_state_inactiveCsbv7vZMOU1ip_13delegate_test
FNDA:2,_RNvYINtNtNtCsd0DXYhglbat_13multiversx_sc13contract_base22universal_contract_obj20UniversalContractObjINtNtNtNtCs2614o7AVePg_22multiversx_sc_scenario3api7impl_vh12vm_hooks_api10VMHooksApiNtNtB1G_9debug_api15DebugApiBackendEENtNtCs141FUTAEp3L_14liquid_staking6config12ConfigModule22add_liquidity_providerCsbv7vZMOU1ip_13delegate_test
FNDA:0,_RNvYINtNtNtCsd0DXYhglbat_13multiversx_sc13contract_base22universal_contract_obj20UniversalContractObjINtNtNtNtCs2614o7AVePg_22multiversx_sc_scenario3api7impl_vh12vm_hooks_api10VMHooksApiNtNtB1G_9debug_api15DebugApiBackendEENtNtCs141FUTAEp3L_14liquid_staking6config12ConfigModule22register_unstake_tokenCsbv7vZMOU1ip_13delegate_test
FNDA:0,_RNvYINtNtNtCsd0DXYhglbat_13multiversx_sc13contract_base22universal_contract_obj20UniversalContractObjINtNtNtNtCs2614o7AVePg_22multiversx_sc_scenario3api7impl_vh12vm_hooks_api10VMHooksApiNtNtB1G_9debug_api15DebugApiBackendEENtNtCs141FUTAEp3L_14liquid_staking6config12ConfigModule24set_accumulator_contractCsbv7vZMOU1ip_13delegate_test
FNDA:0,_RNvYINtNtNtCsd0DXYhglbat_13multiversx_sc13contract_base22universal_contract_obj20UniversalContractObjINtNtNtNtCs2614o7AVePg_22multiversx_sc_scenario3api7impl_vh12vm_hooks_api10VMHooksApiNtNtB1G_9debug_api15DebugApiBackendEENtNtCs141FUTAEp3L_14liquid_staking6config12ConfigModule25remove_liquidity_providerCsbv7vZMOU1ip_13delegate_test
FNDA:0,_RNvYINtNtNtCsd0DXYhglbat_13multiversx_sc13contract_base22universal_contract_obj20UniversalContractObjINtNtNtNtCs2614o7AVePg_22multiversx_sc_scenario3api7impl_vh12vm_hooks_api10VMHooksApiNtNtB1G_9debug_api15DebugApiBackendEENtNtCs141FUTAEp3L_14liquid_staking6config12ConfigModule26set_max_selected_providersCsbv7vZMOU1ip_13delegate_test
FNDA:0,_RNvYINtNtNtCsd0DXYhglbat_13multiversx_sc13contract_base22universal_contract_obj20UniversalContractObjINtNtNtNtCs2614o7AVePg_22multiversx_sc_scenario3api7impl_vh12vm_hooks_api10VMHooksApiNtNtB1G_9debug_api15DebugApiBackendEENtNtCs141FUTAEp3L_14liquid_staking6config12ConfigModule8set_feesCsbv7vZMOU1ip_13delegate_test
FNDA:0,_RNvYINtNtNtCsd0DXYhglbat_13multiversx_sc13contract_base22universal_contract_obj20UniversalContractObjINtNtNtNtCs2614o7AVePg_22multiversx_sc_scenario3api7impl_vh12vm_hooks_api10VMHooksApiNtNtB1G_9debug_api15DebugApiBackendEENtNtCs141FUTAEp3L_14liquid_staking6config16EndpointWrappers13call_set_feesCsbv7vZMOU1ip_13delegate_test
FNDA:0,_RNvYINtNtNtCsd0DXYhglbat_13multiversx_sc13contract_base22universal_contract_obj20UniversalContractObjINtNtNtNtCs2614o7AVePg_22multiversx_sc_scenario3api7impl_vh12vm_hooks_api10VMHooksApiNtNtB1G_9debug_api15DebugApiBackendEENtNtCs141FUTAEp3L_14liquid_staking6config16EndpointWrappers17call_set_managersCsbv7vZMOU1ip_13delegate_test
FNDA:0,_RNvYINtNtNtCsd0DXYhglbat_13multiversx_sc13contract_base22universal_contract_obj20UniversalContractObjINtNtNtNtCs2614o7AVePg_22multiversx_sc_scenario3api7impl_vh12vm_hooks_api10VMHooksApiNtNtB1G_9debug_api15DebugApiBackendEENtNtCs141FUTAEp3L_14liquid_staking6config16EndpointWrappers17callback_selectorCsbv7vZMOU1ip_13delegate_test
FNDA:0,_RNvYINtNtNtCsd0DXYhglbat_13multiversx_sc13contract_base22universal_contract_obj20UniversalContractObjINtNtNtNtCs2614o7AVePg_22multiversx_sc_scenario3api7impl_vh12vm_hooks_api10VMHooksApiNtNtB1G_9debug_api15DebugApiBackendEENtNtCs141FUTAEp3L_14liquid_staking6config16EndpointWrappers19call_remove_managerCsbv7vZMOU1ip_13delegate_test
FNDA:0,_RNvYINtNtNtCsd0DXYhglbat_13multiversx_sc13contract_base22universal_contract_obj20UniversalContractObjINtNtNtNtCs2614o7AVePg_22multiversx_sc_scenario3api7impl_vh12vm_hooks_api10VMHooksApiNtNtB1G_9debug_api15DebugApiBackendEENtNtCs141FUTAEp3L_14liquid_staking6config16EndpointWrappers21call_set_state_activeCsbv7vZMOU1ip_13delegate_test
FNDA:0,_RNvYINtNtNtCsd0DXYhglbat_13multiversx_sc13contract_base22universal_contract_obj20UniversalContractObjINtNtNtNtCs2614o7AVePg_22multiversx_sc_scenario3api7impl_vh12vm_hooks_api10VMHooksApiNtNtB1G_9debug_api15DebugApiBackendEENtNtCs141FUTAEp3L_14liquid_staking6config16EndpointWrappers22call_register_ls_tokenCsbv7vZMOU1ip_13delegate_test
FNDA:0,_RNvYINtNtNtCsd0DXYhglbat_13multiversx_sc13contract_base22universal_contract_obj20UniversalContractObjINtNtNtNtCs2614o7AVePg_22multiversx_sc_scenario3api7impl_vh12vm_hooks_api10VMHooksApiNtNtB1G_9debug_api15DebugApiBackendEENtNtCs141FUTAEp3L_14liquid_staking6config16EndpointWrappers22call_set_max_addressesCsbv7vZMOU1ip_13delegate_test
FNDA:0,_RNvYINtNtNtCsd0DXYhglbat_13multiversx_sc13contract_base22universal_contract_obj20UniversalContractObjINtNtNtNtCs2614o7AVePg_22multiversx_sc_scenario3api7impl_vh12vm_hooks_api10VMHooksApiNtNtB1G_9debug_api15DebugApiBackendEENtNtCs141FUTAEp3L_14liquid_staking6config16EndpointWrappers22call_set_unbond_periodCsbv7vZMOU1ip_13delegate_test
FNDA:0,_RNvYINtNtNtCsd0DXYhglbat_13multiversx_sc13contract_base22universal_contract_obj20UniversalContractObjINtNtNtNtCs2614o7AVePg_22multiversx_sc_scenario3api7impl_vh12vm_hooks_api10VMHooksApiNtNtB1G_9debug_api15DebugApiBackendEENtNtCs141FUTAEp3L_14liquid_staking6config16EndpointWrappers23call_set_scoring_configCsbv7vZMOU1ip_13delegate_test
FNDA:1,_RNvYINtNtNtCsd0DXYhglbat_13multiversx_sc13contract_base22universal_contract_obj20UniversalContractObjINtNtNtNtCs2614o7AVePg_22multiversx_sc_scenario3api7impl_vh12vm_hooks_api10VMHooksApiNtNtB1G_9debug_api15DebugApiBackendEENtNtCs141FUTAEp3L_14liquid_staking6config16EndpointWrappers23call_set_state_inactiveCsbv7vZMOU1ip_13delegate_test
FNDA:2,_RNvYINtNtNtCsd0DXYhglbat_13multiversx_sc13contract_base22universal_contract_obj20UniversalContractObjINtNtNtNtCs2614o7AVePg_22multiversx_sc_scenario3api7impl_vh12vm_hooks_api10VMHooksApiNtNtB1G_9debug_api15DebugApiBackendEENtNtCs141FUTAEp3L_14liquid_staking6config16EndpointWrappers27call_add_liquidity_providerCsbv7vZMOU1ip_13delegate_test
FNDA:0,_RNvYINtNtNtCsd0DXYhglbat_13multiversx_sc13contract_base22universal_contract_obj20UniversalContractObjINtNtNtNtCs2614o7AVePg_22multiversx_sc_scenario3api7impl_vh12vm_hooks_api10VMHooksApiNtNtB1G_9debug_api15DebugApiBackendEENtNtCs141FUTAEp3L_14liquid_staking6config16EndpointWrappers27call_register_unstake_tokenCsbv7vZMOU1ip_13delegate_test
FNDA:0,_RNvYINtNtNtCsd0DXYhglbat_13multiversx_sc13contract_base22universal_contract_obj20UniversalContractObjINtNtNtNtCs2614o7AVePg_22multiversx_sc_scenario3api7impl_vh12vm_hooks_api10VMHooksApiNtNtB1G_9debug_api15DebugApiBackendEENtNtCs141FUTAEp3L_14liquid_staking6config16EndpointWrappers29call_set_accumulator_contractCsbv7vZMOU1ip_13delegate_test
FNDA:0,_RNvYINtNtNtCsd0DXYhglbat_13multiversx_sc13contract_base22universal_contract_obj20UniversalContractObjINtNtNtNtCs2614o7AVePg_22multiversx_sc_scenario3api7impl_vh12vm_hooks_api10VMHooksApiNtNtB1G_9debug_api15DebugApiBackendEENtNtCs141FUTAEp3L_14liquid_staking6config16EndpointWrappers30call_remove_liquidity_providerCsbv7vZMOU1ip_13delegate_test
FNDA:0,_RNvYINtNtNtCsd0DXYhglbat_13multiversx_sc13contract_base22universal_contract_obj20UniversalContractObjINtNtNtNtCs2614o7AVePg_22multiversx_sc_scenario3api7impl_vh12vm_hooks_api10VMHooksApiNtNtB1G_9debug_api15DebugApiBackendEENtNtCs141FUTAEp3L_14liquid_staking6config16EndpointWrappers31call_set_max_selected_providersCsbv7vZMOU1ip_13delegate_test
FNDA:379,_RNvYINtNtNtCsd0DXYhglbat_13multiversx_sc13contract_base22universal_contract_obj20UniversalContractObjINtNtNtNtCs2614o7AVePg_22multiversx_sc_scenario3api7impl_vh12vm_hooks_api10VMHooksApiNtNtB1G_9debug_api15DebugApiBackendEENtNtCs141FUTAEp3L_14liquid_staking6config16EndpointWrappers4callCsbv7vZMOU1ip_13delegate_test
FNDA:0,_RNvYINtNtNtCsd0DXYhglbat_13multiversx_sc13contract_base22universal_contract_obj20UniversalContractObjINtNtNtNtCs2614o7AVePg_22multiversx_sc_scenario3api7impl_vh12vm_hooks_api10VMHooksApiNtNtB1G_9debug_api15DebugApiBackendEENtNtCs141FUTAEp3L_14liquid_staking6config16EndpointWrappers8callbackCsbv7vZMOU1ip_13delegate_test
FNDA:16,_RNvYINtCs141FUTAEp3L_14liquid_staking11ContractObjINtNtNtNtCs2614o7AVePg_22multiversx_sc_scenario3api7impl_vh12vm_hooks_api10VMHooksApiNtNtBR_9debug_api15DebugApiBackendEENtNtB5_6config12ConfigModule10is_managerCsbv7vZMOU1ip_13delegate_test
FNDA:16,_RNvYINtCs141FUTAEp3L_14liquid_staking11ContractObjINtNtNtNtCs2614o7AVePg_22multiversx_sc_scenario3api7impl_vh12vm_hooks_api10VMHooksApiNtNtBR_9debug_api15DebugApiBackendEENtNtB5_6config12ConfigModule16set_state_activeCsbv7vZMOU1ip_13delegate_test
FNDA:16,_RNvYINtCs141FUTAEp3L_14liquid_staking11ContractObjINtNtNtNtCs2614o7AVePg_22multiversx_sc_scenario3api7impl_vh12vm_hooks_api10VMHooksApiNtNtBR_9debug_api15DebugApiBackendEENtNtB5_6config12ConfigModule18set_scoring_configCsbv7vZMOU1ip_13delegate_test
FNDA:0,_RNvYpNtNtCs2edAa8LGkSL_14liquid_staking6config12ConfigModule17register_ls_tokenB7_
FNDA:0,_RNvYpNtNtCs2edAa8LGkSL_14liquid_staking6config12ConfigModule22register_unstake_tokenB7_
FNDA:0,_RNvYpNtNtCs2edAa8LGkSL_14liquid_staking6config12ConfigModule16set_state_activeB7_
FNDA:0,_RNvYpNtNtCs2edAa8LGkSL_14liquid_staking6config12ConfigModule18set_state_inactiveB7_
FNDA:0,_RNvYpNtNtCs2edAa8LGkSL_14liquid_staking6config12ConfigModule24set_accumulator_contractB7_
FNDA:0,_RNvYpNtNtCs2edAa8LGkSL_14liquid_staking6config12ConfigModule8set_feesB7_
FNDA:0,_RNvYpNtNtCs2edAa8LGkSL_14liquid_staking6config12ConfigModule17set_max_addressesB7_
FNDA:0,_RNvYpNtNtCs2edAa8LGkSL_14liquid_staking6config12ConfigModule26set_max_selected_providersB7_
FNDA:0,_RNvYpNtNtCs2edAa8LGkSL_14liquid_staking6config12ConfigModule17set_unbond_periodB7_
FNDA:0,_RNvYpNtNtCs2edAa8LGkSL_14liquid_staking6config12ConfigModule12set_managersB7_
FNDA:0,_RNvYpNtNtCs2edAa8LGkSL_14liquid_staking6config12ConfigModule14remove_managerB7_
FNDA:0,_RNvYpNtNtCs2edAa8LGkSL_14liquid_staking6config12ConfigModule22add_liquidity_providerB7_
FNDA:0,_RNvYpNtNtCs2edAa8LGkSL_14liquid_staking6config12ConfigModule25remove_liquidity_providerB7_
FNDA:0,_RNvYpNtNtCs2edAa8LGkSL_14liquid_staking6config12ConfigModule18set_scoring_configB7_
FNDA:0,_RNvYpNtNtCs2edAa8LGkSL_14liquid_staking6config12ConfigModule10is_managerB7_
FNDA:0,_RNvYpNtNtCs2edAa8LGkSL_14liquid_staking6config16EndpointWrappers22call_register_ls_tokenB7_
FNDA:0,_RNvYpNtNtCs2edAa8LGkSL_14liquid_staking6config16EndpointWrappers27call_register_unstake_tokenB7_
FNDA:0,_RNvYpNtNtCs2edAa8LGkSL_14liquid_staking6config16EndpointWrappers21call_set_state_activeB7_
FNDA:0,_RNvYpNtNtCs2edAa8LGkSL_14liquid_staking6config16EndpointWrappers23call_set_state_inactiveB7_
FNDA:0,_RNvYpNtNtCs2edAa8LGkSL_14liquid_staking6config16EndpointWrappers29call_set_accumulator_contractB7_
FNDA:0,_RNvYpNtNtCs2edAa8LGkSL_14liquid_staking6config16EndpointWrappers13call_set_feesB7_
FNDA:0,_RNvYpNtNtCs2edAa8LGkSL_14liquid_staking6config16EndpointWrappers22call_set_max_addressesB7_
FNDA:0,_RNvYpNtNtCs2edAa8LGkSL_14liquid_staking6config16EndpointWrappers31call_set_max_selected_providersB7_
FNDA:0,_RNvYpNtNtCs2edAa8LGkSL_14liquid_staking6config16EndpointWrappers22call_set_unbond_periodB7_
FNDA:0,_RNvYpNtNtCs2edAa8LGkSL_14liquid_staking6config16EndpointWrappers17call_set_managersB7_
FNDA:0,_RNvYpNtNtCs2edAa8LGkSL_14liquid_staking6config16EndpointWrappers19call_remove_managerB7_
FNDA:0,_RNvYpNtNtCs2edAa8LGkSL_14liquid_staking6config16EndpointWrappers27call_add_liquidity_providerB7_
FNDA:0,_RNvYpNtNtCs2edAa8LGkSL_14liquid_staking6config16EndpointWrappers30call_remove_liquidity_providerB7_
FNDA:0,_RNvYpNtNtCs2edAa8LGkSL_14liquid_staking6config16EndpointWrappers23call_set_scoring_configB7_
FNDA:0,_RNvYpNtNtCs2edAa8LGkSL_14liquid_staking6config16EndpointWrappers4callB7_
FNDA:0,_RNvYpNtNtCs2edAa8LGkSL_14liquid_staking6config16EndpointWrappers17callback_selectorB7_
FNDA:0,_RNvYpNtNtCs2edAa8LGkSL_14liquid_staking6config16EndpointWrappers8callbackB7_
FNDA:0,_RNvXs1_NtCs2edAa8LGkSL_14liquid_staking6configNtB5_11AbiProviderNtNtNtCsd0DXYhglbat_13multiversx_sc13contract_base21contract_abi_provider19ContractAbiProvider3abi
FNDA:0,_RNvXININtCs2edAa8LGkSL_14liquid_staking6configs7_0pEINtB5_11ContractObjpENtNtNtCsd0DXYhglbat_13multiversx_sc13contract_base17callable_contract16CallableContract4callB7_
FNDA:0,_RINvNtCs2edAa8LGkSL_14liquid_staking6config12contract_objpEB4_
FNDA:0,_RINvXs8_NtCs2edAa8LGkSL_14liquid_staking6configNtB6_15ContractBuilderNtNtNtCsd0DXYhglbat_13multiversx_sc13contract_base17callable_contract23CallableContractBuilder16new_contract_objpEB8_
FNDA:0,_RINvNtNtCs2edAa8LGkSL_14liquid_staking6config19___wasm__endpoints__17register_ls_tokenpEB6_
FNDA:0,_RINvNtNtCs2edAa8LGkSL_14liquid_staking6config19___wasm__endpoints__22register_unstake_tokenpEB6_
FNDA:0,_RINvNtNtCs2edAa8LGkSL_14liquid_staking6config19___wasm__endpoints__16set_state_activepEB6_
FNDA:0,_RINvNtNtCs2edAa8LGkSL_14liquid_staking6config19___wasm__endpoints__18set_state_inactivepEB6_
FNDA:0,_RINvNtNtCs2edAa8LGkSL_14liquid_staking6config19___wasm__endpoints__24set_accumulator_contractpEB6_
FNDA:0,_RINvNtNtCs2edAa8LGkSL_14liquid_staking6config19___wasm__endpoints__8set_feespEB6_
FNDA:0,_RINvNtNtCs2edAa8LGkSL_14liquid_staking6config19___wasm__endpoints__17set_max_addressespEB6_
FNDA:0,_RINvNtNtCs2edAa8LGkSL_14liquid_staking6config19___wasm__endpoints__26set_max_selected_providerspEB6_
FNDA:0,_RINvNtNtCs2edAa8LGkSL_14liquid_staking6config19___wasm__endpoints__17set_unbond_periodpEB6_
FNDA:0,_RINvNtNtCs2edAa8LGkSL_14liquid_staking6config19___wasm__endpoints__12set_managerspEB6_
FNDA:0,_RINvNtNtCs2edAa8LGkSL_14liquid_staking6config19___wasm__endpoints__14remove_managerpEB6_
FNDA:0,_RINvNtNtCs2edAa8LGkSL_14liquid_staking6config19___wasm__endpoints__22add_liquidity_providerpEB6_
FNDA:0,_RINvNtNtCs2edAa8LGkSL_14liquid_staking6config19___wasm__endpoints__25remove_liquidity_providerpEB6_
FNDA:0,_RINvNtNtCs2edAa8LGkSL_14liquid_staking6config19___wasm__endpoints__18set_scoring_configpEB6_
FNDA:0,_RINvYpNtNtCs2edAa8LGkSL_14liquid_staking6config10ProxyTrait17register_ls_tokenpppEB8_
FNDA:0,_RINvYpNtNtCs2edAa8LGkSL_14liquid_staking6config10ProxyTrait22register_unstake_tokenpppEB8_
FNDA:0,_RNvYpNtNtCs2edAa8LGkSL_14liquid_staking6config10ProxyTrait16set_state_activeB7_
FNDA:0,_RNvYpNtNtCs2edAa8LGkSL_14liquid_staking6config10ProxyTrait18set_state_inactiveB7_
FNDA:0,_RINvYpNtNtCs2edAa8LGkSL_14liquid_staking6config10ProxyTrait24set_accumulator_contractpEB8_
FNDA:0,_RINvYpNtNtCs2edAa8LGkSL_14liquid_staking6config10ProxyTrait8set_feespEB8_
FNDA:0,_RINvYpNtNtCs2edAa8LGkSL_14liquid_staking6config10ProxyTrait17set_max_addressespEB8_
FNDA:0,_RINvYpNtNtCs2edAa8LGkSL_14liquid_staking6config10ProxyTrait26set_max_selected_providerspEB8_
FNDA:0,_RINvYpNtNtCs2edAa8LGkSL_14liquid_staking6config10ProxyTrait17set_unbond_periodpEB8_
FNDA:0,_RINvYpNtNtCs2edAa8LGkSL_14liquid_staking6config10ProxyTrait12set_managerspEB8_
FNDA:0,_RINvYpNtNtCs2edAa8LGkSL_14liquid_staking6config10ProxyTrait14remove_managerpEB8_
FNDA:0,_RINvYpNtNtCs2edAa8LGkSL_14liquid_staking6config10ProxyTrait22add_liquidity_providerpEB8_
FNDA:0,_RINvYpNtNtCs2edAa8LGkSL_14liquid_staking6config10ProxyTrait25remove_liquidity_providerpEB8_
FNDA:0,_RINvYpNtNtCs2edAa8LGkSL_14liquid_staking6config10ProxyTrait18set_scoring_configpEB8_
FNDA:16,_RNvYINtNtNtCsd0DXYhglbat_13multiversx_sc13contract_base22universal_contract_obj20UniversalContractObjINtNtNtNtCs2614o7AVePg_22multiversx_sc_scenario3api7impl_vh12vm_hooks_api10VMHooksApiNtNtB1G_9debug_api15DebugApiBackendEENtNtCs141FUTAEp3L_14liquid_staking6config12ConfigModule10is_managerCs25HLPETZpNm_4test
FNDA:0,_RNvYINtNtNtCsd0DXYhglbat_13multiversx_sc13contract_base22universal_contract_obj20UniversalContractObjINtNtNtNtCs2614o7AVePg_22multiversx_sc_scenario3api7impl_vh12vm_hooks_api10VMHooksApiNtNtB1G_9debug_api15DebugApiBackendEENtNtCs141FUTAEp3L_14liquid_staking6config12ConfigModule12set_managersCs25HLPETZpNm_4test
FNDA:0,_RNvYINtNtNtCsd0DXYhglbat_13multiversx_sc13contract_base22universal_contract_obj20UniversalContractObjINtNtNtNtCs2614o7AVePg_22multiversx_sc_scenario3api7impl_vh12vm_hooks_api10VMHooksApiNtNtB1G_9debug_api15DebugApiBackendEENtNtCs141FUTAEp3L_14liquid_staking6config12ConfigModule14remove_managerCs25HLPETZpNm_4test
FNDA:0,_RNvYINtNtNtCsd0DXYhglbat_13multiversx_sc13contract_base22universal_contract_obj20UniversalContractObjINtNtNtNtCs2614o7AVePg_22multiversx_sc_scenario3api7impl_vh12vm_hooks_api10VMHooksApiNtNtB1G_9debug_api15DebugApiBackendEENtNtCs141FUTAEp3L_14liquid_staking6config12ConfigModule16set_state_activeCs25HLPETZpNm_4test
FNDA:0,_RNvYINtNtNtCsd0DXYhglbat_13multiversx_sc13contract_base22universal_contract_obj20UniversalContractObjINtNtNtNtCs2614o7AVePg_22multiversx_sc_scenario3api7impl_vh12vm_hooks_api10VMHooksApiNtNtB1G_9debug_api15DebugApiBackendEENtNtCs141FUTAEp3L_14liquid_staking6config12ConfigModule17register_ls_tokenCs25HLPETZpNm_4test
FNDA:0,_RNvYINtNtNtCsd0DXYhglbat_13multiversx_sc13contract_base22universal_contract_obj20UniversalContractObjINtNtNtNtCs2614o7AVePg_22multiversx_sc_scenario3api7impl_vh12vm_hooks_api10VMHooksApiNtNtB1G_9debug_api15DebugApiBackendEENtNtCs141FUTAEp3L_14liquid_staking6config12ConfigModule17set_max_addressesCs25HLPETZpNm_4test
FNDA:0,_RNvYINtNtNtCsd0DXYhglbat_13multiversx_sc13contract_base22universal_contract_obj20UniversalContractObjINtNtNtNtCs2614o7AVePg_22multiversx_sc_scenario3api7impl_vh12vm_hooks_api10VMHooksApiNtNtB1G_9debug_api15DebugApiBackendEENtNtCs141FUTAEp3L_14liquid_staking6config12ConfigModule17set_unbond_periodCs25HLPETZpNm_4test
FNDA:0,_RNvYINtNtNtCsd0DXYhglbat_13multiversx_sc13contract_base22universal_contract_obj20UniversalContractObjINtNtNtNtCs2614o7AVePg_22multiversx_sc_scenario3api7impl_vh12vm_hooks_api10VMHooksApiNtNtB1G_9debug_api15DebugApiBackendEENtNtCs141FUTAEp3L_14liquid_staking6config12ConfigModule18set_scoring_configCs25HLPETZpNm_4test
FNDA:0,_RNvYINtNtNtCsd0DXYhglbat_13multiversx_sc13contract_base22universal_contract_obj20UniversalContractObjINtNtNtNtCs2614o7AVePg_22multiversx_sc_scenario3api7impl_vh12vm_hooks_api10VMHooksApiNtNtB1G_9debug_api15DebugApiBackendEENtNtCs141FUTAEp3L_14liquid_staking6config12ConfigModule18set_state_inactiveCs25HLPETZpNm_4test
FNDA:0,_RNvYINtNtNtCsd0DXYhglbat_13multiversx_sc13contract_base22universal_contract_obj20UniversalContractObjINtNtNtNtCs2614o7AVePg_22multiversx_sc_scenario3api7impl_vh12vm_hooks_api10VMHooksApiNtNtB1G_9debug_api15DebugApiBackendEENtNtCs141FUTAEp3L_14liquid_staking6config12ConfigModule22add_liquidity_providerCs25HLPETZpNm_4test
FNDA:0,_RNvYINtNtNtCsd0DXYhglbat_13multiversx_sc13contract_base22universal_contract_obj20UniversalContractObjINtNtNtNtCs2614o7AVePg_22multiversx_sc_scenario3api7impl_vh12vm_hooks_api10VMHooksApiNtNtB1G_9debug_api15DebugApiBackendEENtNtCs141FUTAEp3L_14liquid_staking6config12ConfigModule22register_unstake_tokenCs25HLPETZpNm_4test
FNDA:0,_RNvYINtNtNtCsd0DXYhglbat_13multiversx_sc13contract_base22universal_contract_obj20UniversalContractObjINtNtNtNtCs2614o7AVePg_22multiversx_sc_scenario3api7impl_vh12vm_hooks_api10VMHooksApiNtNtB1G_9debug_api15DebugApiBackendEENtNtCs141FUTAEp3L_14liquid_staking6config12ConfigModule24set_accumulator_contractCs25HLPETZpNm_4test
FNDA:0,_RNvYINtNtNtCsd0DXYhglbat_13multiversx_sc13contract_base22universal_contract_obj20UniversalContractObjINtNtNtNtCs2614o7AVePg_22multiversx_sc_scenario3api7impl_vh12vm_hooks_api10VMHooksApiNtNtB1G_9debug_api15DebugApiBackendEENtNtCs141FUTAEp3L_14liquid_staking6config12ConfigModule25remove_liquidity_providerCs25HLPETZpNm_4test
FNDA:0,_RNvYINtNtNtCsd0DXYhglbat_13multiversx_sc13contract_base22universal_contract_obj20UniversalContractObjINtNtNtNtCs2614o7AVePg_22multiversx_sc_scenario3api7impl_vh12vm_hooks_api10VMHooksApiNtNtB1G_9debug_api15DebugApiBackendEENtNtCs141FUTAEp3L_14liquid_staking6config12ConfigModule26set_max_selected_providersCs25HLPETZpNm_4test
FNDA:0,_RNvYINtNtNtCsd0DXYhglbat_13multiversx_sc13contract_base22universal_contract_obj20UniversalContractObjINtNtNtNtCs2614o7AVePg_22multiversx_sc_scenario3api7impl_vh12vm_hooks_api10VMHooksApiNtNtB1G_9debug_api15DebugApiBackendEENtNtCs141FUTAEp3L_14liquid_staking6config12ConfigModule8set_feesCs25HLPETZpNm_4test
FNDA:0,_RNvYINtNtNtCsd0DXYhglbat_13multiversx_sc13contract_base22universal_contract_obj20UniversalContractObjINtNtNtNtCs2614o7AVePg_22multiversx_sc_scenario3api7impl_vh12vm_hooks_api10VMHooksApiNtNtB1G_9debug_api15DebugApiBackendEENtNtCs141FUTAEp3L_14liquid_staking6config16EndpointWrappers13call_set_feesCs25HLPETZpNm_4test
FNDA:0,_RNvYINtNtNtCsd0DXYhglbat_13multiversx_sc13contract_base22universal_contract_obj20UniversalContractObjINtNtNtNtCs2614o7AVePg_22multiversx_sc_scenario3api7impl_vh12vm_hooks_api10VMHooksApiNtNtB1G_9debug_api15DebugApiBackendEENtNtCs141FUTAEp3L_14liquid_staking6config16EndpointWrappers17call_set_managersCs25HLPETZpNm_4test
FNDA:0,_RNvYINtNtNtCsd0DXYhglbat_13multiversx_sc13contract_base22universal_contract_obj20UniversalContractObjINtNtNtNtCs2614o7AVePg_22multiversx_sc_scenario3api7impl_vh12vm_hooks_api10VMHooksApiNtNtB1G_9debug_api15DebugApiBackendEENtNtCs141FUTAEp3L_14liquid_staking6config16EndpointWrappers17callback_selectorCs25HLPETZpNm_4test
FNDA:0,_RNvYINtNtNtCsd0DXYhglbat_13multiversx_sc13contract_base22universal_contract_obj20UniversalContractObjINtNtNtNtCs2614o7AVePg_22multiversx_sc_scenario3api7impl_vh12vm_hooks_api10VMHooksApiNtNtB1G_9debug_api15DebugApiBackendEENtNtCs141FUTAEp3L_14liquid_staking6config16EndpointWrappers19call_remove_managerCs25HLPETZpNm_4test
FNDA:0,_RNvYINtNtNtCsd0DXYhglbat_13multiversx_sc13contract_base22universal_contract_obj20UniversalContractObjINtNtNtNtCs2614o7AVePg_22multiversx_sc_scenario3api7impl_vh12vm_hooks_api10VMHooksApiNtNtB1G_9debug_api15DebugApiBackendEENtNtCs141FUTAEp3L_14liquid_staking6config16EndpointWrappers21call_set_state_activeCs25HLPETZpNm_4test
FNDA:0,_RNvYINtNtNtCsd0DXYhglbat_13multiversx_sc13contract_base22universal_contract_obj20UniversalContractObjINtNtNtNtCs2614o7AVePg_22multiversx_sc_scenario3api7impl_vh12vm_hooks_api10VMHooksApiNtNtB1G_9debug_api15DebugApiBackendEENtNtCs141FUTAEp3L_14liquid_staking6config16EndpointWrappers22call_register_ls_tokenCs25HLPETZpNm_4test
FNDA:0,_RNvYINtNtNtCsd0DXYhglbat_13multiversx_sc13contract_base22universal_contract_obj20UniversalContractObjINtNtNtNtCs2614o7AVePg_22multiversx_sc_scenario3api7impl_vh12vm_hooks_api10VMHooksApiNtNtB1G_9debug_api15DebugApiBackendEENtNtCs141FUTAEp3L_14liquid_staking6config16EndpointWrappers22call_set_max_addressesCs25HLPETZpNm_4test
FNDA:0,_RNvYINtNtNtCsd0DXYhglbat_13multiversx_sc13contract_base22universal_contract_obj20UniversalContractObjINtNtNtNtCs2614o7AVePg_22multiversx_sc_scenario3api7impl_vh12vm_hooks_api10VMHooksApiNtNtB1G_9debug_api15DebugApiBackendEENtNtCs141FUTAEp3L_14liquid_staking6config16EndpointWrappers22call_set_unbond_periodCs25HLPETZpNm_4test
FNDA:0,_RNvYINtNtNtCsd0DXYhglbat_13multiversx_sc13contract_base22universal_contract_obj20UniversalContractObjINtNtNtNtCs2614o7AVePg_22multiversx_sc_scenario3api7impl_vh12vm_hooks_api10VMHooksApiNtNtB1G_9debug_api15DebugApiBackendEENtNtCs141FUTAEp3L_14liquid_staking6config16EndpointWrappers23call_set_scoring_configCs25HLPETZpNm_4test
FNDA:0,_RNvYINtNtNtCsd0DXYhglbat_13multiversx_sc13contract_base22universal_contract_obj20UniversalContractObjINtNtNtNtCs2614o7AVePg_22multiversx_sc_scenario3api7impl_vh12vm_hooks_api10VMHooksApiNtNtB1G_9debug_api15DebugApiBackendEENtNtCs141FUTAEp3L_14liquid_staking6config16EndpointWrappers23call_set_state_inactiveCs25HLPETZpNm_4test
FNDA:0,_RNvYINtNtNtCsd0DXYhglbat_13multiversx_sc13contract_base22universal_contract_obj20UniversalContractObjINtNtNtNtCs2614o7AVePg_22multiversx_sc_scenario3api7impl_vh12vm_hooks_api10VMHooksApiNtNtB1G_9debug_api15DebugApiBackendEENtNtCs141FUTAEp3L_14liquid_staking6config16EndpointWrappers27call_add_liquidity_providerCs25HLPETZpNm_4test
FNDA:0,_RNvYINtNtNtCsd0DXYhglbat_13multiversx_sc13contract_base22universal_contract_obj20UniversalContractObjINtNtNtNtCs2614o7AVePg_22multiversx_sc_scenario3api7impl_vh12vm_hooks_api10VMHooksApiNtNtB1G_9debug_api15DebugApiBackendEENtNtCs141FUTAEp3L_14liquid_staking6config16EndpointWrappers27call_register_unstake_tokenCs25HLPETZpNm_4test
FNDA:0,_RNvYINtNtNtCsd0DXYhglbat_13multiversx_sc13contract_base22universal_contract_obj20UniversalContractObjINtNtNtNtCs2614o7AVePg_22multiversx_sc_scenario3api7impl_vh12vm_hooks_api10VMHooksApiNtNtB1G_9debug_api15DebugApiBackendEENtNtCs141FUTAEp3L_14liquid_staking6config16EndpointWrappers29call_set_accumulator_contractCs25HLPETZpNm_4test
FNDA:0,_RNvYINtNtNtCsd0DXYhglbat_13multiversx_sc13contract_base22universal_contract_obj20UniversalContractObjINtNtNtNtCs2614o7AVePg_22multiversx_sc_scenario3api7impl_vh12vm_hooks_api10VMHooksApiNtNtB1G_9debug_api15DebugApiBackendEENtNtCs141FUTAEp3L_14liquid_staking6config16EndpointWrappers30call_remove_liquidity_providerCs25HLPETZpNm_4test
FNDA:0,_RNvYINtNtNtCsd0DXYhglbat_13multiversx_sc13contract_base22universal_contract_obj20UniversalContractObjINtNtNtNtCs2614o7AVePg_22multiversx_sc_scenario3api7impl_vh12vm_hooks_api10VMHooksApiNtNtB1G_9debug_api15DebugApiBackendEENtNtCs141FUTAEp3L_14liquid_staking6config16EndpointWrappers31call_set_max_selected_providersCs25HLPETZpNm_4test
FNDA:358,_RNvYINtNtNtCsd0DXYhglbat_13multiversx_sc13contract_base22universal_contract_obj20UniversalContractObjINtNtNtNtCs2614o7AVePg_22multiversx_sc_scenario3api7impl_vh12vm_hooks_api10VMHooksApiNtNtB1G_9debug_api15DebugApiBackendEENtNtCs141FUTAEp3L_14liquid_staking6config16EndpointWrappers4callCs25HLPETZpNm_4test
FNDA:0,_RNvYINtNtNtCsd0DXYhglbat_13multiversx_sc13contract_base22universal_contract_obj20UniversalContractObjINtNtNtNtCs2614o7AVePg_22multiversx_sc_scenario3api7impl_vh12vm_hooks_api10VMHooksApiNtNtB1G_9debug_api15DebugApiBackendEENtNtCs141FUTAEp3L_14liquid_staking6config16EndpointWrappers8callbackCs25HLPETZpNm_4test
FNDA:5,_RNvYINtCs141FUTAEp3L_14liquid_staking11ContractObjINtNtNtNtCs2614o7AVePg_22multiversx_sc_scenario3api7impl_vh12vm_hooks_api10VMHooksApiNtNtBR_9debug_api15DebugApiBackendEENtNtB5_6config12ConfigModule10is_managerCs25HLPETZpNm_4test
FNDA:5,_RNvYINtCs141FUTAEp3L_14liquid_staking11ContractObjINtNtNtNtCs2614o7AVePg_22multiversx_sc_scenario3api7impl_vh12vm_hooks_api10VMHooksApiNtNtBR_9debug_api15DebugApiBackendEENtNtB5_6config12ConfigModule16set_state_activeCs25HLPETZpNm_4test
FNDA:5,_RNvYINtCs141FUTAEp3L_14liquid_staking11ContractObjINtNtNtNtCs2614o7AVePg_22multiversx_sc_scenario3api7impl_vh12vm_hooks_api10VMHooksApiNtNtBR_9debug_api15DebugApiBackendEENtNtB5_6config12ConfigModule18set_scoring_configCs25HLPETZpNm_4test
FNDA:19,_RNvYINtCs141FUTAEp3L_14liquid_staking11ContractObjINtNtNtNtCs2614o7AVePg_22multiversx_sc_scenario3api7impl_vh12vm_hooks_api10VMHooksApiNtNtBR_9debug_api15DebugApiBackendEENtNtB5_6config12ConfigModule10is_managerCsgub9DQDg2s9_15unDelegate_test
FNDA:19,_RNvYINtCs141FUTAEp3L_14liquid_staking11ContractObjINtNtNtNtCs2614o7AVePg_22multiversx_sc_scenario3api7impl_vh12vm_hooks_api10VMHooksApiNtNtBR_9debug_api15DebugApiBackendEENtNtB5_6config12ConfigModule16set_state_activeCsgub9DQDg2s9_15unDelegate_test
FNDA:19,_RNvYINtCs141FUTAEp3L_14liquid_staking11ContractObjINtNtNtNtCs2614o7AVePg_22multiversx_sc_scenario3api7impl_vh12vm_hooks_api10VMHooksApiNtNtBR_9debug_api15DebugApiBackendEENtNtB5_6config12ConfigModule18set_scoring_configCsgub9DQDg2s9_15unDelegate_test
FNDA:434,_RNvYINtNtNtCsd0DXYhglbat_13multiversx_sc13contract_base22universal_contract_obj20UniversalContractObjINtNtNtNtCs2614o7AVePg_22multiversx_sc_scenario3api7impl_vh12vm_hooks_api10VMHooksApiNtNtB1G_9debug_api15DebugApiBackendEENtNtCs141FUTAEp3L_14liquid_staking6config12ConfigModule10is_managerCsgub9DQDg2s9_15unDelegate_test
FNDA:0,_RNvYINtNtNtCsd0DXYhglbat_13multiversx_sc13contract_base22universal_contract_obj20UniversalContractObjINtNtNtNtCs2614o7AVePg_22multiversx_sc_scenario3api7impl_vh12vm_hooks_api10VMHooksApiNtNtB1G_9debug_api15DebugApiBackendEENtNtCs141FUTAEp3L_14liquid_staking6config12ConfigModule12set_managersCsgub9DQDg2s9_15unDelegate_test
FNDA:0,_RNvYINtNtNtCsd0DXYhglbat_13multiversx_sc13contract_base22universal_contract_obj20UniversalContractObjINtNtNtNtCs2614o7AVePg_22multiversx_sc_scenario3api7impl_vh12vm_hooks_api10VMHooksApiNtNtB1G_9debug_api15DebugApiBackendEENtNtCs141FUTAEp3L_14liquid_staking6config12ConfigModule14remove_managerCsgub9DQDg2s9_15unDelegate_test
FNDA:0,_RNvYINtNtNtCsd0DXYhglbat_13multiversx_sc13contract_base22universal_contract_obj20UniversalContractObjINtNtNtNtCs2614o7AVePg_22multiversx_sc_scenario3api7impl_vh12vm_hooks_api10VMHooksApiNtNtB1G_9debug_api15DebugApiBackendEENtNtCs141FUTAEp3L_14liquid_staking6config12ConfigModule16set_state_activeCsgub9DQDg2s9_15unDelegate_test
FNDA:0,_RNvYINtNtNtCsd0DXYhglbat_13multiversx_sc13contract_base22universal_contract_obj20UniversalContractObjINtNtNtNtCs2614o7AVePg_22multiversx_sc_scenario3api7impl_vh12vm_hooks_api10VMHooksApiNtNtB1G_9debug_api15DebugApiBackendEENtNtCs141FUTAEp3L_14liquid_staking6config12ConfigModule17register_ls_tokenCsgub9DQDg2s9_15unDelegate_test
FNDA:0,_RNvYINtNtNtCsd0DXYhglbat_13multiversx_sc13contract_base22universal_contract_obj20UniversalContractObjINtNtNtNtCs2614o7AVePg_22multiversx_sc_scenario3api7impl_vh12vm_hooks_api10VMHooksApiNtNtB1G_9debug_api15DebugApiBackendEENtNtCs141FUTAEp3L_14liquid_staking6config12ConfigModule17set_max_addressesCsgub9DQDg2s9_15unDelegate_test
FNDA:0,_RNvYINtNtNtCsd0DXYhglbat_13multiversx_sc13contract_base22universal_contract_obj20UniversalContractObjINtNtNtNtCs2614o7AVePg_22multiversx_sc_scenario3api7impl_vh12vm_hooks_api10VMHooksApiNtNtB1G_9debug_api15DebugApiBackendEENtNtCs141FUTAEp3L_14liquid_staking6config12ConfigModule17set_unbond_periodCsgub9DQDg2s9_15unDelegate_test
FNDA:0,_RNvYINtNtNtCsd0DXYhglbat_13multiversx_sc13contract_base22universal_contract_obj20UniversalContractObjINtNtNtNtCs2614o7AVePg_22multiversx_sc_scenario3api7impl_vh12vm_hooks_api10VMHooksApiNtNtB1G_9debug_api15DebugApiBackendEENtNtCs141FUTAEp3L_14liquid_staking6config12ConfigModule18set_scoring_configCsgub9DQDg2s9_15unDelegate_test
FNDA:0,_RNvYINtNtNtCsd0DXYhglbat_13multiversx_sc13contract_base22universal_contract_obj20UniversalContractObjINtNtNtNtCs2614o7AVePg_22multiversx_sc_scenario3api7impl_vh12vm_hooks_api10VMHooksApiNtNtB1G_9debug_api15DebugApiBackendEENtNtCs141FUTAEp3L_14liquid_staking6config12ConfigModule18set_state_inactiveCsgub9DQDg2s9_15unDelegate_test
FNDA:0,_RNvYINtNtNtCsd0DXYhglbat_13multiversx_sc13contract_base22universal_contract_obj20UniversalContractObjINtNtNtNtCs2614o7AVePg_22multiversx_sc_scenario3api7impl_vh12vm_hooks_api10VMHooksApiNtNtB1G_9debug_api15DebugApiBackendEENtNtCs141FUTAEp3L_14liquid_staking6config12ConfigModule22add_liquidity_providerCsgub9DQDg2s9_15unDelegate_test
FNDA:0,_RNvYINtNtNtCsd0DXYhglbat_13multiversx_sc13contract_base22universal_contract_obj20UniversalContractObjINtNtNtNtCs2614o7AVePg_22multiversx_sc_scenario3api7impl_vh12vm_hooks_api10VMHooksApiNtNtB1G_9debug_api15DebugApiBackendEENtNtCs141FUTAEp3L_14liquid_staking6config12ConfigModule22register_unstake_tokenCsgub9DQDg2s9_15unDelegate_test
FNDA:0,_RNvYINtNtNtCsd0DXYhglbat_13multiversx_sc13contract_base22universal_contract_obj20UniversalContractObjINtNtNtNtCs2614o7AVePg_22multiversx_sc_scenario3api7impl_vh12vm_hooks_api10VMHooksApiNtNtB1G_9debug_api15DebugApiBackendEENtNtCs141FUTAEp3L_14liquid_staking6config12ConfigModule24set_accumulator_contractCsgub9DQDg2s9_15unDelegate_test
FNDA:0,_RNvYINtNtNtCsd0DXYhglbat_13multiversx_sc13contract_base22universal_contract_obj20UniversalContractObjINtNtNtNtCs2614o7AVePg_22multiversx_sc_scenario3api7impl_vh12vm_hooks_api10VMHooksApiNtNtB1G_9debug_api15DebugApiBackendEENtNtCs141FUTAEp3L_14liquid_staking6config12ConfigModule25remove_liquidity_providerCsgub9DQDg2s9_15unDelegate_test
FNDA:0,_RNvYINtNtNtCsd0DXYhglbat_13multiversx_sc13contract_base22universal_contract_obj20UniversalContractObjINtNtNtNtCs2614o7AVePg_22multiversx_sc_scenario3api7impl_vh12vm_hooks_api10VMHooksApiNtNtB1G_9debug_api15DebugApiBackendEENtNtCs141FUTAEp3L_14liquid_staking6config12ConfigModule26set_max_selected_providersCsgub9DQDg2s9_15unDelegate_test
FNDA:0,_RNvYINtNtNtCsd0DXYhglbat_13multiversx_sc13contract_base22universal_contract_obj20UniversalContractObjINtNtNtNtCs2614o7AVePg_22multiversx_sc_scenario3api7impl_vh12vm_hooks_api10VMHooksApiNtNtB1G_9debug_api15DebugApiBackendEENtNtCs141FUTAEp3L_14liquid_staking6config12ConfigModule8set_feesCsgub9DQDg2s9_15unDelegate_test
FNDA:0,_RNvYINtNtNtCsd0DXYhglbat_13multiversx_sc13contract_base22universal_contract_obj20UniversalContractObjINtNtNtNtCs2614o7AVePg_22multiversx_sc_scenario3api7impl_vh12vm_hooks_api10VMHooksApiNtNtB1G_9debug_api15DebugApiBackendEENtNtCs141FUTAEp3L_14liquid_staking6config16EndpointWrappers13call_set_feesCsgub9DQDg2s9_15unDelegate_test
FNDA:0,_RNvYINtNtNtCsd0DXYhglbat_13multiversx_sc13contract_base22universal_contract_obj20UniversalContractObjINtNtNtNtCs2614o7AVePg_22multiversx_sc_scenario3api7impl_vh12vm_hooks_api10VMHooksApiNtNtB1G_9debug_api15DebugApiBackendEENtNtCs141FUTAEp3L_14liquid_staking6config16EndpointWrappers17call_set_managersCsgub9DQDg2s9_15unDelegate_test
FNDA:0,_RNvYINtNtNtCsd0DXYhglbat_13multiversx_sc13contract_base22universal_contract_obj20UniversalContractObjINtNtNtNtCs2614o7AVePg_22multiversx_sc_scenario3api7impl_vh12vm_hooks_api10VMHooksApiNtNtB1G_9debug_api15DebugApiBackendEENtNtCs141FUTAEp3L_14liquid_staking6config16EndpointWrappers17callback_selectorCsgub9DQDg2s9_15unDelegate_test
FNDA:0,_RNvYINtNtNtCsd0DXYhglbat_13multiversx_sc13contract_base22universal_contract_obj20UniversalContractObjINtNtNtNtCs2614o7AVePg_22multiversx_sc_scenario3api7impl_vh12vm_hooks_api10VMHooksApiNtNtB1G_9debug_api15DebugApiBackendEENtNtCs141FUTAEp3L_14liquid_staking6config16EndpointWrappers19call_remove_managerCsgub9DQDg2s9_15unDelegate_test
FNDA:0,_RNvYINtNtNtCsd0DXYhglbat_13multiversx_sc13contract_base22universal_contract_obj20UniversalContractObjINtNtNtNtCs2614o7AVePg_22multiversx_sc_scenario3api7impl_vh12vm_hooks_api10VMHooksApiNtNtB1G_9debug_api15DebugApiBackendEENtNtCs141FUTAEp3L_14liquid_staking6config16EndpointWrappers21call_set_state_activeCsgub9DQDg2s9_15unDelegate_test
FNDA:0,_RNvYINtNtNtCsd0DXYhglbat_13multiversx_sc13contract_base22universal_contract_obj20UniversalContractObjINtNtNtNtCs2614o7AVePg_22multiversx_sc_scenario3api7impl_vh12vm_hooks_api10VMHooksApiNtNtB1G_9debug_api15DebugApiBackendEENtNtCs141FUTAEp3L_14liquid_staking6config16EndpointWrappers22call_register_ls_tokenCsgub9DQDg2s9_15unDelegate_test
FNDA:0,_RNvYINtNtNtCsd0DXYhglbat_13multiversx_sc13contract_base22universal_contract_obj20UniversalContractObjINtNtNtNtCs2614o7AVePg_22multiversx_sc_scenario3api7impl_vh12vm_hooks_api10VMHooksApiNtNtB1G_9debug_api15DebugApiBackendEENtNtCs141FUTAEp3L_14liquid_staking6config16EndpointWrappers22call_set_max_addressesCsgub9DQDg2s9_15unDelegate_test
FNDA:0,_RNvYINtNtNtCsd0DXYhglbat_13multiversx_sc13contract_base22universal_contract_obj20UniversalContractObjINtNtNtNtCs2614o7AVePg_22multiversx_sc_scenario3api7impl_vh12vm_hooks_api10VMHooksApiNtNtB1G_9debug_api15DebugApiBackendEENtNtCs141FUTAEp3L_14liquid_staking6config16EndpointWrappers22call_set_unbond_periodCsgub9DQDg2s9_15unDelegate_test
FNDA:0,_RNvYINtNtNtCsd0DXYhglbat_13multiversx_sc13contract_base22universal_contract_obj20UniversalContractObjINtNtNtNtCs2614o7AVePg_22multiversx_sc_scenario3api7impl_vh12vm_hooks_api10VMHooksApiNtNtB1G_9debug_api15DebugApiBackendEENtNtCs141FUTAEp3L_14liquid_staking6config16EndpointWrappers23call_set_scoring_configCsgub9DQDg2s9_15unDelegate_test
FNDA:0,_RNvYINtNtNtCsd0DXYhglbat_13multiversx_sc13contract_base22universal_contract_obj20UniversalContractObjINtNtNtNtCs2614o7AVePg_22multiversx_sc_scenario3api7impl_vh12vm_hooks_api10VMHooksApiNtNtB1G_9debug_api15DebugApiBackendEENtNtCs141FUTAEp3L_14liquid_staking6config16EndpointWrappers23call_set_state_inactiveCsgub9DQDg2s9_15unDelegate_test
FNDA:0,_RNvYINtNtNtCsd0DXYhglbat_13multiversx_sc13contract_base22universal_contract_obj20UniversalContractObjINtNtNtNtCs2614o7AVePg_22multiversx_sc_scenario3api7impl_vh12vm_hooks_api10VMHooksApiNtNtB1G_9debug_api15DebugApiBackendEENtNtCs141FUTAEp3L_14liquid_staking6config16EndpointWrappers27call_add_liquidity_providerCsgub9DQDg2s9_15unDelegate_test
FNDA:0,_RNvYINtNtNtCsd0DXYhglbat_13multiversx_sc13contract_base22universal_contract_obj20UniversalContractObjINtNtNtNtCs2614o7AVePg_22multiversx_sc_scenario3api7impl_vh12vm_hooks_api10VMHooksApiNtNtB1G_9debug_api15DebugApiBackendEENtNtCs141FUTAEp3L_14liquid_staking6config16EndpointWrappers27call_register_unstake_tokenCsgub9DQDg2s9_15unDelegate_test
FNDA:0,_RNvYINtNtNtCsd0DXYhglbat_13multiversx_sc13contract_base22universal_contract_obj20UniversalContractObjINtNtNtNtCs2614o7AVePg_22multiversx_sc_scenario3api7impl_vh12vm_hooks_api10VMHooksApiNtNtB1G_9debug_api15DebugApiBackendEENtNtCs141FUTAEp3L_14liquid_staking6config16EndpointWrappers29call_set_accumulator_contractCsgub9DQDg2s9_15unDelegate_test
FNDA:0,_RNvYINtNtNtCsd0DXYhglbat_13multiversx_sc13contract_base22universal_contract_obj20UniversalContractObjINtNtNtNtCs2614o7AVePg_22multiversx_sc_scenario3api7impl_vh12vm_hooks_api10VMHooksApiNtNtB1G_9debug_api15DebugApiBackendEENtNtCs141FUTAEp3L_14liquid_staking6config16EndpointWrappers30call_remove_liquidity_providerCsgub9DQDg2s9_15unDelegate_test
FNDA:0,_RNvYINtNtNtCsd0DXYhglbat_13multiversx_sc13contract_base22universal_contract_obj20UniversalContractObjINtNtNtNtCs2614o7AVePg_22multiversx_sc_scenario3api7impl_vh12vm_hooks_api10VMHooksApiNtNtB1G_9debug_api15DebugApiBackendEENtNtCs141FUTAEp3L_14liquid_staking6config16EndpointWrappers31call_set_max_selected_providersCsgub9DQDg2s9_15unDelegate_test
FNDA:9762,_RNvYINtNtNtCsd0DXYhglbat_13multiversx_sc13contract_base22universal_contract_obj20UniversalContractObjINtNtNtNtCs2614o7AVePg_22multiversx_sc_scenario3api7impl_vh12vm_hooks_api10VMHooksApiNtNtB1G_9debug_api15DebugApiBackendEENtNtCs141FUTAEp3L_14liquid_staking6config16EndpointWrappers4callCsgub9DQDg2s9_15unDelegate_test
FNDA:0,_RNvYINtNtNtCsd0DXYhglbat_13multiversx_sc13contract_base22universal_contract_obj20UniversalContractObjINtNtNtNtCs2614o7AVePg_22multiversx_sc_scenario3api7impl_vh12vm_hooks_api10VMHooksApiNtNtB1G_9debug_api15DebugApiBackendEENtNtCs141FUTAEp3L_14liquid_staking6config16EndpointWrappers8callbackCsgub9DQDg2s9_15unDelegate_test
FNDA:21,_RNvYINtNtNtCsd0DXYhglbat_13multiversx_sc13contract_base22universal_contract_obj20UniversalContractObjINtNtNtNtCs2614o7AVePg_22multiversx_sc_scenario3api7impl_vh12vm_hooks_api10VMHooksApiNtNtB1G_9debug_api15DebugApiBackendEENtNtCs141FUTAEp3L_14liquid_staking6config12ConfigModule10is_managerCscNyXpV1vtNq_11unbond_test
FNDA:0,_RNvYINtNtNtCsd0DXYhglbat_13multiversx_sc13contract_base22universal_contract_obj20UniversalContractObjINtNtNtNtCs2614o7AVePg_22multiversx_sc_scenario3api7impl_vh12vm_hooks_api10VMHooksApiNtNtB1G_9debug_api15DebugApiBackendEENtNtCs141FUTAEp3L_14liquid_staking6config12ConfigModule12set_managersCscNyXpV1vtNq_11unbond_test
FNDA:0,_RNvYINtNtNtCsd0DXYhglbat_13multiversx_sc13contract_base22universal_contract_obj20UniversalContractObjINtNtNtNtCs2614o7AVePg_22multiversx_sc_scenario3api7impl_vh12vm_hooks_api10VMHooksApiNtNtB1G_9debug_api15DebugApiBackendEENtNtCs141FUTAEp3L_14liquid_staking6config12ConfigModule14remove_managerCscNyXpV1vtNq_11unbond_test
FNDA:0,_RNvYINtNtNtCsd0DXYhglbat_13multiversx_sc13contract_base22universal_contract_obj20UniversalContractObjINtNtNtNtCs2614o7AVePg_22multiversx_sc_scenario3api7impl_vh12vm_hooks_api10VMHooksApiNtNtB1G_9debug_api15DebugApiBackendEENtNtCs141FUTAEp3L_14liquid_staking6config12ConfigModule16set_state_activeCscNyXpV1vtNq_11unbond_test
FNDA:0,_RNvYINtNtNtCsd0DXYhglbat_13multiversx_sc13contract_base22universal_contract_obj20UniversalContractObjINtNtNtNtCs2614o7AVePg_22multiversx_sc_scenario3api7impl_vh12vm_hooks_api10VMHooksApiNtNtB1G_9debug_api15DebugApiBackendEENtNtCs141FUTAEp3L_14liquid_staking6config12ConfigModule17register_ls_tokenCscNyXpV1vtNq_11unbond_test
FNDA:0,_RNvYINtNtNtCsd0DXYhglbat_13multiversx_sc13contract_base22universal_contract_obj20UniversalContractObjINtNtNtNtCs2614o7AVePg_22multiversx_sc_scenario3api7impl_vh12vm_hooks_api10VMHooksApiNtNtB1G_9debug_api15DebugApiBackendEENtNtCs141FUTAEp3L_14liquid_staking6config12ConfigModule17set_max_addressesCscNyXpV1vtNq_11unbond_test
FNDA:0,_RNvYINtNtNtCsd0DXYhglbat_13multiversx_sc13contract_base22universal_contract_obj20UniversalContractObjINtNtNtNtCs2614o7AVePg_22multiversx_sc_scenario3api7impl_vh12vm_hooks_api10VMHooksApiNtNtB1G_9debug_api15DebugApiBackendEENtNtCs141FUTAEp3L_14liquid_staking6config12ConfigModule17set_unbond_periodCscNyXpV1vtNq_11unbond_test
FNDA:0,_RNvYINtNtNtCsd0DXYhglbat_13multiversx_sc13contract_base22universal_contract_obj20UniversalContractObjINtNtNtNtCs2614o7AVePg_22multiversx_sc_scenario3api7impl_vh12vm_hooks_api10VMHooksApiNtNtB1G_9debug_api15DebugApiBackendEENtNtCs141FUTAEp3L_14liquid_staking6config12ConfigModule18set_scoring_configCscNyXpV1vtNq_11unbond_test
FNDA:1,_RNvYINtNtNtCsd0DXYhglbat_13multiversx_sc13contract_base22universal_contract_obj20UniversalContractObjINtNtNtNtCs2614o7AVePg_22multiversx_sc_scenario3api7impl_vh12vm_hooks_api10VMHooksApiNtNtB1G_9debug_api15DebugApiBackendEENtNtCs141FUTAEp3L_14liquid_staking6config12ConfigModule18set_state_inactiveCscNyXpV1vtNq_11unbond_test
FNDA:0,_RNvYINtNtNtCsd0DXYhglbat_13multiversx_sc13contract_base22universal_contract_obj20UniversalContractObjINtNtNtNtCs2614o7AVePg_22multiversx_sc_scenario3api7impl_vh12vm_hooks_api10VMHooksApiNtNtB1G_9debug_api15DebugApiBackendEENtNtCs141FUTAEp3L_14liquid_staking6config12ConfigModule22add_liquidity_providerCscNyXpV1vtNq_11unbond_test
FNDA:0,_RNvYINtNtNtCsd0DXYhglbat_13multiversx_sc13contract_base22universal_contract_obj20UniversalContractObjINtNtNtNtCs2614o7AVePg_22multiversx_sc_scenario3api7impl_vh12vm_hooks_api10VMHooksApiNtNtB1G_9debug_api15DebugApiBackendEENtNtCs141FUTAEp3L_14liquid_staking6config12ConfigModule22register_unstake_tokenCscNyXpV1vtNq_11unbond_test
FNDA:0,_RNvYINtNtNtCsd0DXYhglbat_13multiversx_sc13contract_base22universal_contract_obj20UniversalContractObjINtNtNtNtCs2614o7AVePg_22multiversx_sc_scenario3api7impl_vh12vm_hooks_api10VMHooksApiNtNtB1G_9debug_api15DebugApiBackendEENtNtCs141FUTAEp3L_14liquid_staking6config12ConfigModule24set_accumulator_contractCscNyXpV1vtNq_11unbond_test
FNDA:0,_RNvYINtNtNtCsd0DXYhglbat_13multiversx_sc13contract_base22universal_contract_obj20UniversalContractObjINtNtNtNtCs2614o7AVePg_22multiversx_sc_scenario3api7impl_vh12vm_hooks_api10VMHooksApiNtNtB1G_9debug_api15DebugApiBackendEENtNtCs141FUTAEp3L_14liquid_staking6config12ConfigModule25remove_liquidity_providerCscNyXpV1vtNq_11unbond_test
FNDA:0,_RNvYINtNtNtCsd0DXYhglbat_13multiversx_sc13contract_base22universal_contract_obj20UniversalContractObjINtNtNtNtCs2614o7AVePg_22multiversx_sc_scenario3api7impl_vh12vm_hooks_api10VMHooksApiNtNtB1G_9debug_api15DebugApiBackendEENtNtCs141FUTAEp3L_14liquid_staking6config12ConfigModule26set_max_selected_providersCscNyXpV1vtNq_11unbond_test
FNDA:0,_RNvYINtNtNtCsd0DXYhglbat_13multiversx_sc13contract_base22universal_contract_obj20UniversalContractObjINtNtNtNtCs2614o7AVePg_22multiversx_sc_scenario3api7impl_vh12vm_hooks_api10VMHooksApiNtNtB1G_9debug_api15DebugApiBackendEENtNtCs141FUTAEp3L_14liquid_staking6config12ConfigModule8set_feesCscNyXpV1vtNq_11unbond_test
FNDA:0,_RNvYINtNtNtCsd0DXYhglbat_13multiversx_sc13contract_base22universal_contract_obj20UniversalContractObjINtNtNtNtCs2614o7AVePg_22multiversx_sc_scenario3api7impl_vh12vm_hooks_api10VMHooksApiNtNtB1G_9debug_api15DebugApiBackendEENtNtCs141FUTAEp3L_14liquid_staking6config16EndpointWrappers13call_set_feesCscNyXpV1vtNq_11unbond_test
FNDA:0,_RNvYINtNtNtCsd0DXYhglbat_13multiversx_sc13contract_base22universal_contract_obj20UniversalContractObjINtNtNtNtCs2614o7AVePg_22multiversx_sc_scenario3api7impl_vh12vm_hooks_api10VMHooksApiNtNtB1G_9debug_api15DebugApiBackendEENtNtCs141FUTAEp3L_14liquid_staking6config16EndpointWrappers17call_set_managersCscNyXpV1vtNq_11unbond_test
FNDA:0,_RNvYINtNtNtCsd0DXYhglbat_13multiversx_sc13contract_base22universal_contract_obj20UniversalContractObjINtNtNtNtCs2614o7AVePg_22multiversx_sc_scenario3api7impl_vh12vm_hooks_api10VMHooksApiNtNtB1G_9debug_api15DebugApiBackendEENtNtCs141FUTAEp3L_14liquid_staking6config16EndpointWrappers17callback_selectorCscNyXpV1vtNq_11unbond_test
FNDA:0,_RNvYINtNtNtCsd0DXYhglbat_13multiversx_sc13contract_base22universal_contract_obj20UniversalContractObjINtNtNtNtCs2614o7AVePg_22multiversx_sc_scenario3api7impl_vh12vm_hooks_api10VMHooksApiNtNtB1G_9debug_api15DebugApiBackendEENtNtCs141FUTAEp3L_14liquid_staking6config16EndpointWrappers19call_remove_managerCscNyXpV1vtNq_11unbond_test
FNDA:0,_RNvYINtNtNtCsd0DXYhglbat_13multiversx_sc13contract_base22universal_contract_obj20UniversalContractObjINtNtNtNtCs2614o7AVePg_22multiversx_sc_scenario3api7impl_vh12vm_hooks_api10VMHooksApiNtNtB1G_9debug_api15DebugApiBackendEENtNtCs141FUTAEp3L_14liquid_staking6config16EndpointWrappers21call_set_state_activeCscNyXpV1vtNq_11unbond_test
FNDA:0,_RNvYINtNtNtCsd0DXYhglbat_13multiversx_sc13contract_base22universal_contract_obj20UniversalContractObjINtNtNtNtCs2614o7AVePg_22multiversx_sc_scenario3api7impl_vh12vm_hooks_api10VMHooksApiNtNtB1G_9debug_api15DebugApiBackendEENtNtCs141FUTAEp3L_14liquid_staking6config16EndpointWrappers22call_register_ls_tokenCscNyXpV1vtNq_11unbond_test
FNDA:0,_RNvYINtNtNtCsd0DXYhglbat_13multiversx_sc13contract_base22universal_contract_obj20UniversalContractObjINtNtNtNtCs2614o7AVePg_22multiversx_sc_scenario3api7impl_vh12vm_hooks_api10VMHooksApiNtNtB1G_9debug_api15DebugApiBackendEENtNtCs141FUTAEp3L_14liquid_staking6config16EndpointWrappers22call_set_max_addressesCscNyXpV1vtNq_11unbond_test
FNDA:0,_RNvYINtNtNtCsd0DXYhglbat_13multiversx_sc13contract_base22universal_contract_obj20UniversalContractObjINtNtNtNtCs2614o7AVePg_22multiversx_sc_scenario3api7impl_vh12vm_hooks_api10VMHooksApiNtNtB1G_9debug_api15DebugApiBackendEENtNtCs141FUTAEp3L_14liquid_staking6config16EndpointWrappers22call_set_unbond_periodCscNyXpV1vtNq_11unbond_test
FNDA:0,_RNvYINtNtNtCsd0DXYhglbat_13multiversx_sc13contract_base22universal_contract_obj20UniversalContractObjINtNtNtNtCs2614o7AVePg_22multiversx_sc_scenario3api7impl_vh12vm_hooks_api10VMHooksApiNtNtB1G_9debug_api15DebugApiBackendEENtNtCs141FUTAEp3L_14liquid_staking6config16EndpointWrappers23call_set_scoring_configCscNyXpV1vtNq_11unbond_test
FNDA:1,_RNvYINtNtNtCsd0DXYhglbat_13multiversx_sc13contract_base22universal_contract_obj20UniversalContractObjINtNtNtNtCs2614o7AVePg_22multiversx_sc_scenario3api7impl_vh12vm_hooks_api10VMHooksApiNtNtB1G_9debug_api15DebugApiBackendEENtNtCs141FUTAEp3L_14liquid_staking6config16EndpointWrappers23call_set_state_inactiveCscNyXpV1vtNq_11unbond_test
FNDA:0,_RNvYINtNtNtCsd0DXYhglbat_13multiversx_sc13contract_base22universal_contract_obj20UniversalContractObjINtNtNtNtCs2614o7AVePg_22multiversx_sc_scenario3api7impl_vh12vm_hooks_api10VMHooksApiNtNtB1G_9debug_api15DebugApiBackendEENtNtCs141FUTAEp3L_14liquid_staking6config16EndpointWrappers27call_add_liquidity_providerCscNyXpV1vtNq_11unbond_test
FNDA:0,_RNvYINtNtNtCsd0DXYhglbat_13multiversx_sc13contract_base22universal_contract_obj20UniversalContractObjINtNtNtNtCs2614o7AVePg_22multiversx_sc_scenario3api7impl_vh12vm_hooks_api10VMHooksApiNtNtB1G_9debug_api15DebugApiBackendEENtNtCs141FUTAEp3L_14liquid_staking6config16EndpointWrappers27call_register_unstake_tokenCscNyXpV1vtNq_11unbond_test
FNDA:0,_RNvYINtNtNtCsd0DXYhglbat_13multiversx_sc13contract_base22universal_contract_obj20UniversalContractObjINtNtNtNtCs2614o7AVePg_22multiversx_sc_scenario3api7impl_vh12vm_hooks_api10VMHooksApiNtNtB1G_9debug_api15DebugApiBackendEENtNtCs141FUTAEp3L_14liquid_staking6config16EndpointWrappers29call_set_accumulator_contractCscNyXpV1vtNq_11unbond_test
FNDA:0,_RNvYINtNtNtCsd0DXYhglbat_13multiversx_sc13contract_base22universal_contract_obj20UniversalContractObjINtNtNtNtCs2614o7AVePg_22multiversx_sc_scenario3api7impl_vh12vm_hooks_api10VMHooksApiNtNtB1G_9debug_api15DebugApiBackendEENtNtCs141FUTAEp3L_14liquid_staking6config16EndpointWrappers30call_remove_liquidity_providerCscNyXpV1vtNq_11unbond_test
FNDA:0,_RNvYINtNtNtCsd0DXYhglbat_13multiversx_sc13contract_base22universal_contract_obj20UniversalContractObjINtNtNtNtCs2614o7AVePg_22multiversx_sc_scenario3api7impl_vh12vm_hooks_api10VMHooksApiNtNtB1G_9debug_api15DebugApiBackendEENtNtCs141FUTAEp3L_14liquid_staking6config16EndpointWrappers31call_set_max_selected_providersCscNyXpV1vtNq_11unbond_test
FNDA:327,_RNvYINtNtNtCsd0DXYhglbat_13multiversx_sc13contract_base22universal_contract_obj20UniversalContractObjINtNtNtNtCs2614o7AVePg_22multiversx_sc_scenario3api7impl_vh12vm_hooks_api10VMHooksApiNtNtB1G_9debug_api15DebugApiBackendEENtNtCs141FUTAEp3L_14liquid_staking6config16EndpointWrappers4callCscNyXpV1vtNq_11unbond_test
FNDA:0,_RNvYINtNtNtCsd0DXYhglbat_13multiversx_sc13contract_base22universal_contract_obj20UniversalContractObjINtNtNtNtCs2614o7AVePg_22multiversx_sc_scenario3api7impl_vh12vm_hooks_api10VMHooksApiNtNtB1G_9debug_api15DebugApiBackendEENtNtCs141FUTAEp3L_14liquid_staking6config16EndpointWrappers8callbackCscNyXpV1vtNq_11unbond_test
FNDA:7,_RNvYINtCs141FUTAEp3L_14liquid_staking11ContractObjINtNtNtNtCs2614o7AVePg_22multiversx_sc_scenario3api7impl_vh12vm_hooks_api10VMHooksApiNtNtBR_9debug_api15DebugApiBackendEENtNtB5_6config12ConfigModule10is_managerCscNyXpV1vtNq_11unbond_test
FNDA:7,_RNvYINtCs141FUTAEp3L_14liquid_staking11ContractObjINtNtNtNtCs2614o7AVePg_22multiversx_sc_scenario3api7impl_vh12vm_hooks_api10VMHooksApiNtNtBR_9debug_api15DebugApiBackendEENtNtB5_6config12ConfigModule16set_state_activeCscNyXpV1vtNq_11unbond_test
FNDA:7,_RNvYINtCs141FUTAEp3L_14liquid_staking11ContractObjINtNtNtNtCs2614o7AVePg_22multiversx_sc_scenario3api7impl_vh12vm_hooks_api10VMHooksApiNtNtBR_9debug_api15DebugApiBackendEENtNtB5_6config12ConfigModule18set_scoring_configCscNyXpV1vtNq_11unbond_test
FNF:16
FNH:6
DA:8,10826
DA:18,0
DA:19,0
DA:20,0
DA:21,0
DA:22,0
DA:23,0
DA:24,0
DA:25,0
DA:26,0
DA:37,0
DA:38,0
DA:39,0
DA:40,0
DA:41,0
DA:42,0
DA:43,0
DA:44,0
DA:45,0
DA:46,0
DA:51,47
DA:52,47
DA:57,2
DA:58,2
DA:63,0
DA:64,0
DA:69,0
DA:70,0
DA:75,0
DA:76,0
DA:77,0
DA:82,0
DA:83,0
DA:84,0
DA:85,0
DA:88,0
DA:93,0
DA:94,0
DA:99,0
DA:100,0
DA:105,0
DA:106,0
DA:111,2
DA:112,2
DA:117,0
DA:118,0
DA:122,47
DA:123,47
DA:124,47
DA:125,47
DA:126,0
DA:128,47
DA:131,544
DA:132,544
DA:133,544
DA:134,544
DA:135,0
DA:136,544
DA:137,544
BRF:0
BRH:0
LF:59
LH:18
end_of_record
SF:/Users/mihaieremia/GitHub/rs-egld-liquid-staking/liquid-staking/src/contexts/base.rs
FN:26,_RNvMNtNtCs141FUTAEp3L_14liquid_staking8contexts4baseINtB2_12StorageCacheINtNtNtCsd0DXYhglbat_13multiversx_sc13contract_base22universal_contract_obj20UniversalContractObjINtNtNtNtCs2614o7AVePg_22multiversx_sc_scenario3api7impl_vh12vm_hooks_api10VMHooksApiNtNtB2M_9debug_api15DebugApiBackendEEE3newCsbv7vZMOU1ip_13delegate_test
FN:46,_RNvXs_NtNtCs141FUTAEp3L_14liquid_staking8contexts4baseINtB4_12StorageCacheINtNtNtCsd0DXYhglbat_13multiversx_sc13contract_base22universal_contract_obj20UniversalContractObjINtNtNtNtCs2614o7AVePg_22multiversx_sc_scenario3api7impl_vh12vm_hooks_api10VMHooksApiNtNtB2O_9debug_api15DebugApiBackendEEENtNtNtCslGS7pEIChKc_4core3ops4drop4Drop4dropCsbv7vZMOU1ip_13delegate_test
FN:26,_RNvMNtNtCs2edAa8LGkSL_14liquid_staking8contexts4baseINtB2_12StorageCachepE3newB6_
FN:46,_RNvXININtNtCs2edAa8LGkSL_14liquid_staking8contexts4bases_0pEINtB5_12StorageCachepENtNtNtCslGS7pEIChKc_4core3ops4drop4Drop4dropB9_
FN:26,_RNvMNtNtCs141FUTAEp3L_14liquid_staking8contexts4baseINtB2_12StorageCacheINtNtNtCsd0DXYhglbat_13multiversx_sc13contract_base22universal_contract_obj20UniversalContractObjINtNtNtNtCs2614o7AVePg_22multiversx_sc_scenario3api7impl_vh12vm_hooks_api10VMHooksApiNtNtB2M_9debug_api15DebugApiBackendEEE3newCs25HLPETZpNm_4test
FN:46,_RNvXs_NtNtCs141FUTAEp3L_14liquid_staking8contexts4baseINtB4_12StorageCacheINtNtNtCsd0DXYhglbat_13multiversx_sc13contract_base22universal_contract_obj20UniversalContractObjINtNtNtNtCs2614o7AVePg_22multiversx_sc_scenario3api7impl_vh12vm_hooks_api10VMHooksApiNtNtB2O_9debug_api15DebugApiBackendEEENtNtNtCslGS7pEIChKc_4core3ops4drop4Drop4dropCs25HLPETZpNm_4test
FN:26,_RNvMNtNtCs141FUTAEp3L_14liquid_staking8contexts4baseINtB2_12StorageCacheINtNtNtCsd0DXYhglbat_13multiversx_sc13contract_base22universal_contract_obj20UniversalContractObjINtNtNtNtCs2614o7AVePg_22multiversx_sc_scenario3api7impl_vh12vm_hooks_api10VMHooksApiNtNtB2M_9debug_api15DebugApiBackendEEE3newCsgub9DQDg2s9_15unDelegate_test
FN:46,_RNvXs_NtNtCs141FUTAEp3L_14liquid_staking8contexts4baseINtB4_12StorageCacheINtNtNtCsd0DXYhglbat_13multiversx_sc13contract_base22universal_contract_obj20UniversalContractObjINtNtNtNtCs2614o7AVePg_22multiversx_sc_scenario3api7impl_vh12vm_hooks_api10VMHooksApiNtNtB2O_9debug_api15DebugApiBackendEEENtNtNtCslGS7pEIChKc_4core3ops4drop4Drop4dropCsgub9DQDg2s9_15unDelegate_test
FN:26,_RNvMNtNtCs141FUTAEp3L_14liquid_staking8contexts4baseINtB2_12StorageCacheINtNtNtCsd0DXYhglbat_13multiversx_sc13contract_base22universal_contract_obj20UniversalContractObjINtNtNtNtCs2614o7AVePg_22multiversx_sc_scenario3api7impl_vh12vm_hooks_api10VMHooksApiNtNtB2M_9debug_api15DebugApiBackendEEE3newCscNyXpV1vtNq_11unbond_test
FN:46,_RNvXs_NtNtCs141FUTAEp3L_14liquid_staking8contexts4baseINtB4_12StorageCacheINtNtNtCsd0DXYhglbat_13multiversx_sc13contract_base22universal_contract_obj20UniversalContractObjINtNtNtNtCs2614o7AVePg_22multiversx_sc_scenario3api7impl_vh12vm_hooks_api10VMHooksApiNtNtB2O_9debug_api15DebugApiBackendEEENtNtNtCslGS7pEIChKc_4core3ops4drop4Drop4dropCscNyXpV1vtNq_11unbond_test
FNDA:45,_RNvMNtNtCs141FUTAEp3L_14liquid_staking8contexts4baseINtB2_12StorageCacheINtNtNtCsd0DXYhglbat_13multiversx_sc13contract_base22universal_contract_obj20UniversalContractObjINtNtNtNtCs2614o7AVePg_22multiversx_sc_scenario3api7impl_vh12vm_hooks_api10VMHooksApiNtNtB2M_9debug_api15DebugApiBackendEEE3newCsbv7vZMOU1ip_13delegate_test
FNDA:45,_RNvXs_NtNtCs141FUTAEp3L_14liquid_staking8contexts4baseINtB4_12StorageCacheINtNtNtCsd0DXYhglbat_13multiversx_sc13contract_base22universal_contract_obj20UniversalContractObjINtNtNtNtCs2614o7AVePg_22multiversx_sc_scenario3api7impl_vh12vm_hooks_api10VMHooksApiNtNtB2O_9debug_api15DebugApiBackendEEENtNtNtCslGS7pEIChKc_4core3ops4drop4Drop4dropCsbv7vZMOU1ip_13delegate_test
FNDA:0,_RNvMNtNtCs2edAa8LGkSL_14liquid_staking8contexts4baseINtB2_12StorageCachepE3newB6_
FNDA:0,_RNvXININtNtCs2edAa8LGkSL_14liquid_staking8contexts4bases_0pEINtB5_12StorageCachepENtNtNtCslGS7pEIChKc_4core3ops4drop4Drop4dropB9_
FNDA:51,_RNvMNtNtCs141FUTAEp3L_14liquid_staking8contexts4baseINtB2_12StorageCacheINtNtNtCsd0DXYhglbat_13multiversx_sc13contract_base22universal_contract_obj20UniversalContractObjINtNtNtNtCs2614o7AVePg_22multiversx_sc_scenario3api7impl_vh12vm_hooks_api10VMHooksApiNtNtB2M_9debug_api15DebugApiBackendEEE3newCs25HLPETZpNm_4test
FNDA:51,_RNvXs_NtNtCs141FUTAEp3L_14liquid_staking8contexts4baseINtB4_12StorageCacheINtNtNtCsd0DXYhglbat_13multiversx_sc13contract_base22universal_contract_obj20UniversalContractObjINtNtNtNtCs2614o7AVePg_22multiversx_sc_scenario3api7impl_vh12vm_hooks_api10VMHooksApiNtNtB2O_9debug_api15DebugApiBackendEEENtNtNtCslGS7pEIChKc_4core3ops4drop4Drop4dropCs25HLPETZpNm_4test
FNDA:531,_RNvMNtNtCs141FUTAEp3L_14liquid_staking8contexts4baseINtB2_12StorageCacheINtNtNtCsd0DXYhglbat_13multiversx_sc13contract_base22universal_contract_obj20UniversalContractObjINtNtNtNtCs2614o7AVePg_22multiversx_sc_scenario3api7impl_vh12vm_hooks_api10VMHooksApiNtNtB2M_9debug_api15DebugApiBackendEEE3newCsgub9DQDg2s9_15unDelegate_test
FNDA:531,_RNvXs_NtNtCs141FUTAEp3L_14liquid_staking8contexts4baseINtB4_12StorageCacheINtNtNtCsd0DXYhglbat_13multiversx_sc13contract_base22universal_contract_obj20UniversalContractObjINtNtNtNtCs2614o7AVePg_22multiversx_sc_scenario3api7impl_vh12vm_hooks_api10VMHooksApiNtNtB2O_9debug_api15DebugApiBackendEEENtNtNtCslGS7pEIChKc_4core3ops4drop4Drop4dropCsgub9DQDg2s9_15unDelegate_test
FNDA:63,_RNvMNtNtCs141FUTAEp3L_14liquid_staking8contexts4baseINtB2_12StorageCacheINtNtNtCsd0DXYhglbat_13multiversx_sc13contract_base22universal_contract_obj20UniversalContractObjINtNtNtNtCs2614o7AVePg_22multiversx_sc_scenario3api7impl_vh12vm_hooks_api10VMHooksApiNtNtB2M_9debug_api15DebugApiBackendEEE3newCscNyXpV1vtNq_11unbond_test
FNDA:63,_RNvXs_NtNtCs141FUTAEp3L_14liquid_staking8contexts4baseINtB4_12StorageCacheINtNtNtCsd0DXYhglbat_13multiversx_sc13contract_base22universal_contract_obj20UniversalContractObjINtNtNtNtCs2614o7AVePg_22multiversx_sc_scenario3api7impl_vh12vm_hooks_api10VMHooksApiNtNtB2O_9debug_api15DebugApiBackendEEENtNtNtCslGS7pEIChKc_4core3ops4drop4Drop4dropCscNyXpV1vtNq_11unbond_test
FNF:2
FNH:2
DA:26,690
DA:27,690
DA:28,690
DA:29,690
DA:30,690
DA:31,690
DA:32,690
DA:33,690
DA:34,690
DA:35,690
DA:36,690
DA:37,690
DA:38,690
DA:39,690
DA:46,690
DA:47,690
DA:48,690
DA:49,690
DA:50,690
DA:51,690
DA:52,690
DA:53,690
DA:54,690
DA:55,690
DA:56,690
DA:57,690
DA:58,690
DA:59,690
DA:60,690
DA:61,690
DA:62,690
DA:63,690
BRF:0
BRH:0
LF:32
LH:32
end_of_record
SF:/Users/mihaieremia/GitHub/rs-egld-liquid-staking/liquid-staking/src/delegation.rs
FN:109,_RNCNvYINtNtNtCsd0DXYhglbat_13multiversx_sc13contract_base22universal_contract_obj20UniversalContractObjINtNtNtNtCs2614o7AVePg_22multiversx_sc_scenario3api7impl_vh12vm_hooks_api10VMHooksApiNtNtB1I_9debug_api15DebugApiBackendEENtNtCs141FUTAEp3L_14liquid_staking10delegation16DelegationModule32change_delegation_contract_admin0Csbv7vZMOU1ip_13delegate_test
FN:140,_RNCNvYINtNtNtCsd0DXYhglbat_13multiversx_sc13contract_base22universal_contract_obj20UniversalContractObjINtNtNtNtCs2614o7AVePg_22multiversx_sc_scenario3api7impl_vh12vm_hooks_api10VMHooksApiNtNtB1I_9debug_api15DebugApiBackendEENtNtCs141FUTAEp3L_14liquid_staking10delegation16DelegationModule33change_delegation_contract_params0Csbv7vZMOU1ip_13delegate_test
FN:37,_RNvYINtNtNtCsd0DXYhglbat_13multiversx_sc13contract_base22universal_contract_obj20UniversalContractObjINtNtNtNtCs2614o7AVePg_22multiversx_sc_scenario3api7impl_vh12vm_hooks_api10VMHooksApiNtNtB1G_9debug_api15DebugApiBackendEENtNtCs141FUTAEp3L_14liquid_staking10delegation16DelegationModule29whitelist_delegation_contractCsbv7vZMOU1ip_13delegate_test
FN:105,_RNvYINtNtNtCsd0DXYhglbat_13multiversx_sc13contract_base22universal_contract_obj20UniversalContractObjINtNtNtNtCs2614o7AVePg_22multiversx_sc_scenario3api7impl_vh12vm_hooks_api10VMHooksApiNtNtB1G_9debug_api15DebugApiBackendEENtNtCs141FUTAEp3L_14liquid_staking10delegation16DelegationModule32change_delegation_contract_adminCsbv7vZMOU1ip_13delegate_test
FN:123,_RNvYINtNtNtCsd0DXYhglbat_13multiversx_sc13contract_base22universal_contract_obj20UniversalContractObjINtNtNtNtCs2614o7AVePg_22multiversx_sc_scenario3api7impl_vh12vm_hooks_api10VMHooksApiNtNtB1G_9debug_api15DebugApiBackendEENtNtCs141FUTAEp3L_14liquid_staking10delegation16DelegationModule33change_delegation_contract_paramsCsbv7vZMOU1ip_13delegate_test
FN:15,_RNvYINtNtNtCsd0DXYhglbat_13multiversx_sc13contract_base22universal_contract_obj20UniversalContractObjINtNtNtNtCs2614o7AVePg_22multiversx_sc_scenario3api7impl_vh12vm_hooks_api10VMHooksApiNtNtB1G_9debug_api15DebugApiBackendEENtNtCs141FUTAEp3L_14liquid_staking10delegation16EndpointWrappers17callback_selectorCsbv7vZMOU1ip_13delegate_test
FN:15,_RNvYINtNtNtCsd0DXYhglbat_13multiversx_sc13contract_base22universal_contract_obj20UniversalContractObjINtNtNtNtCs2614o7AVePg_22multiversx_sc_scenario3api7impl_vh12vm_hooks_api10VMHooksApiNtNtB1G_9debug_api15DebugApiBackendEENtNtCs141FUTAEp3L_14liquid_staking10delegation16EndpointWrappers34call_whitelist_delegation_contractCsbv7vZMOU1ip_13delegate_test
FN:15,_RNvYINtNtNtCsd0DXYhglbat_13multiversx_sc13contract_base22universal_contract_obj20UniversalContractObjINtNtNtNtCs2614o7AVePg_22multiversx_sc_scenario3api7impl_vh12vm_hooks_api10VMHooksApiNtNtB1G_9debug_api15DebugApiBackendEENtNtCs141FUTAEp3L_14liquid_staking10delegation16EndpointWrappers37call_change_delegation_contract_adminCsbv7vZMOU1ip_13delegate_test
FN:15,_RNvYINtNtNtCsd0DXYhglbat_13multiversx_sc13contract_base22universal_contract_obj20UniversalContractObjINtNtNtNtCs2614o7AVePg_22multiversx_sc_scenario3api7impl_vh12vm_hooks_api10VMHooksApiNtNtB1G_9debug_api15DebugApiBackendEENtNtCs141FUTAEp3L_14liquid_staking10delegation16EndpointWrappers38call_change_delegation_contract_paramsCsbv7vZMOU1ip_13delegate_test
FN:15,_RNvYINtNtNtCsd0DXYhglbat_13multiversx_sc13contract_base22universal_contract_obj20UniversalContractObjINtNtNtNtCs2614o7AVePg_22multiversx_sc_scenario3api7impl_vh12vm_hooks_api10VMHooksApiNtNtB1G_9debug_api15DebugApiBackendEENtNtCs141FUTAEp3L_14liquid_staking10delegation16EndpointWrappers4callCsbv7vZMOU1ip_13delegate_test
FN:15,_RNvYINtNtNtCsd0DXYhglbat_13multiversx_sc13contract_base22universal_contract_obj20UniversalContractObjINtNtNtNtCs2614o7AVePg_22multiversx_sc_scenario3api7impl_vh12vm_hooks_api10VMHooksApiNtNtB1G_9debug_api15DebugApiBackendEENtNtCs141FUTAEp3L_14liquid_staking10delegation16EndpointWrappers8callbackCsbv7vZMOU1ip_13delegate_test
FN:37,_RNvYpNtNtCs2edAa8LGkSL_14liquid_staking10delegation16DelegationModule29whitelist_delegation_contractB7_
FN:105,_RNvYpNtNtCs2edAa8LGkSL_14liquid_staking10delegation16DelegationModule32change_delegation_contract_adminB7_
FN:109,_RNCNvYpNtNtCs2edAa8LGkSL_14liquid_staking10delegation16DelegationModule32change_delegation_contract_admin0B9_
FN:123,_RNvYpNtNtCs2edAa8LGkSL_14liquid_staking10delegation16DelegationModule33change_delegation_contract_paramsB7_
FN:140,_RNCNvYpNtNtCs2edAa8LGkSL_14liquid_staking10delegation16DelegationModule33change_delegation_contract_params0B9_
FN:15,_RNvYpNtNtCs2edAa8LGkSL_14liquid_staking10delegation16EndpointWrappers34call_whitelist_delegation_contractB7_
FN:15,_RNvYpNtNtCs2edAa8LGkSL_14liquid_staking10delegation16EndpointWrappers37call_change_delegation_contract_adminB7_
FN:15,_RNvYpNtNtCs2edAa8LGkSL_14liquid_staking10delegation16EndpointWrappers38call_change_delegation_contract_paramsB7_
FN:15,_RNvYpNtNtCs2edAa8LGkSL_14liquid_staking10delegation16EndpointWrappers4callB7_
FN:15,_RNvYpNtNtCs2edAa8LGkSL_14liquid_staking10delegation16EndpointWrappers17callback_selectorB7_
FN:15,_RNvYpNtNtCs2edAa8LGkSL_14liquid_staking10delegation16EndpointWrappers8callbackB7_
FN:15,_RNvXs1_NtCs2edAa8LGkSL_14liquid_staking10delegationNtB5_11AbiProviderNtNtNtCsd0DXYhglbat_13multiversx_sc13contract_base21contract_abi_provider19ContractAbiProvider3abi
FN:15,_RNvXININtCs2edAa8LGkSL_14liquid_staking10delegationsn_0pEINtB5_11ContractObjpENtNtNtCsd0DXYhglbat_13multiversx_sc13contract_base17callable_contract16CallableContract4callB7_
FN:15,_RINvNtCs2edAa8LGkSL_14liquid_staking10delegation12contract_objpEB4_
FN:15,_RINvXso_NtCs2edAa8LGkSL_14liquid_staking10delegationNtB6_15ContractBuilderNtNtNtCsd0DXYhglbat_13multiversx_sc13contract_base17callable_contract23CallableContractBuilder16new_contract_objpEB8_
FN:15,_RINvNtNtCs2edAa8LGkSL_14liquid_staking10delegation19___wasm__endpoints__29whitelist_delegation_contractpEB6_
FN:15,_RINvNtNtCs2edAa8LGkSL_14liquid_staking10delegation19___wasm__endpoints__32change_delegation_contract_adminpEB6_
FN:15,_RINvNtNtCs2edAa8LGkSL_14liquid_staking10delegation19___wasm__endpoints__33change_delegation_contract_paramspEB6_
FN:15,_RINvYpNtNtCs2edAa8LGkSL_14liquid_staking10delegation10ProxyTrait29whitelist_delegation_contractppppppEB8_
FN:15,_RINvYpNtNtCs2edAa8LGkSL_14liquid_staking10delegation10ProxyTrait32change_delegation_contract_adminppEB8_
FN:15,_RINvYpNtNtCs2edAa8LGkSL_14liquid_staking10delegation10ProxyTrait33change_delegation_contract_paramsppppppEB8_
FN:37,_RNvYINtNtNtCsd0DXYhglbat_13multiversx_sc13contract_base22universal_contract_obj20UniversalContractObjINtNtNtNtCs2614o7AVePg_22multiversx_sc_scenario3api7impl_vh12vm_hooks_api10VMHooksApiNtNtB1G_9debug_api15DebugApiBackendEENtNtCs141FUTAEp3L_14liquid_staking10delegation16DelegationModule29whitelist_delegation_contractCs25HLPETZpNm_4test
FN:105,_RNvYINtNtNtCsd0DXYhglbat_13multiversx_sc13contract_base22universal_contract_obj20UniversalContractObjINtNtNtNtCs2614o7AVePg_22multiversx_sc_scenario3api7impl_vh12vm_hooks_api10VMHooksApiNtNtB1G_9debug_api15DebugApiBackendEENtNtCs141FUTAEp3L_14liquid_staking10delegation16DelegationModule32change_delegation_contract_adminCs25HLPETZpNm_4test
FN:123,_RNvYINtNtNtCsd0DXYhglbat_13multiversx_sc13contract_base22universal_contract_obj20UniversalContractObjINtNtNtNtCs2614o7AVePg_22multiversx_sc_scenario3api7impl_vh12vm_hooks_api10VMHooksApiNtNtB1G_9debug_api15DebugApiBackendEENtNtCs141FUTAEp3L_14liquid_staking10delegation16DelegationModule33change_delegation_contract_paramsCs25HLPETZpNm_4test
FN:15,_RNvYINtNtNtCsd0DXYhglbat_13multiversx_sc13contract_base22universal_contract_obj20UniversalContractObjINtNtNtNtCs2614o7AVePg_22multiversx_sc_scenario3api7impl_vh12vm_hooks_api10VMHooksApiNtNtB1G_9debug_api15DebugApiBackendEENtNtCs141FUTAEp3L_14liquid_staking10delegation16EndpointWrappers17callback_selectorCs25HLPETZpNm_4test
FN:15,_RNvYINtNtNtCsd0DXYhglbat_13multiversx_sc13contract_base22universal_contract_obj20UniversalContractObjINtNtNtNtCs2614o7AVePg_22multiversx_sc_scenario3api7impl_vh12vm_hooks_api10VMHooksApiNtNtB1G_9debug_api15DebugApiBackendEENtNtCs141FUTAEp3L_14liquid_staking10delegation16EndpointWrappers34call_whitelist_delegation_contractCs25HLPETZpNm_4test
FN:15,_RNvYINtNtNtCsd0DXYhglbat_13multiversx_sc13contract_base22universal_contract_obj20UniversalContractObjINtNtNtNtCs2614o7AVePg_22multiversx_sc_scenario3api7impl_vh12vm_hooks_api10VMHooksApiNtNtB1G_9debug_api15DebugApiBackendEENtNtCs141FUTAEp3L_14liquid_staking10delegation16EndpointWrappers37call_change_delegation_contract_adminCs25HLPETZpNm_4test
FN:15,_RNvYINtNtNtCsd0DXYhglbat_13multiversx_sc13contract_base22universal_contract_obj20UniversalContractObjINtNtNtNtCs2614o7AVePg_22multiversx_sc_scenario3api7impl_vh12vm_hooks_api10VMHooksApiNtNtB1G_9debug_api15DebugApiBackendEENtNtCs141FUTAEp3L_14liquid_staking10delegation16EndpointWrappers38call_change_delegation_contract_paramsCs25HLPETZpNm_4test
FN:15,_RNvYINtNtNtCsd0DXYhglbat_13multiversx_sc13contract_base22universal_contract_obj20UniversalContractObjINtNtNtNtCs2614o7AVePg_22multiversx_sc_scenario3api7impl_vh12vm_hooks_api10VMHooksApiNtNtB1G_9debug_api15DebugApiBackendEENtNtCs141FUTAEp3L_14liquid_staking10delegation16EndpointWrappers4callCs25HLPETZpNm_4test
FN:15,_RNvYINtNtNtCsd0DXYhglbat_13multiversx_sc13contract_base22universal_contract_obj20UniversalContractObjINtNtNtNtCs2614o7AVePg_22multiversx_sc_scenario3api7impl_vh12vm_hooks_api10VMHooksApiNtNtB1G_9debug_api15DebugApiBackendEENtNtCs141FUTAEp3L_14liquid_staking10delegation16EndpointWrappers8callbackCs25HLPETZpNm_4test
FN:109,_RNCNvYINtNtNtCsd0DXYhglbat_13multiversx_sc13contract_base22universal_contract_obj20UniversalContractObjINtNtNtNtCs2614o7AVePg_22multiversx_sc_scenario3api7impl_vh12vm_hooks_api10VMHooksApiNtNtB1I_9debug_api15DebugApiBackendEENtNtCs141FUTAEp3L_14liquid_staking10delegation16DelegationModule32change_delegation_contract_admin0Cs25HLPETZpNm_4test
FN:140,_RNCNvYINtNtNtCsd0DXYhglbat_13multiversx_sc13contract_base22universal_contract_obj20UniversalContractObjINtNtNtNtCs2614o7AVePg_22multiversx_sc_scenario3api7impl_vh12vm_hooks_api10VMHooksApiNtNtB1I_9debug_api15DebugApiBackendEENtNtCs141FUTAEp3L_14liquid_staking10delegation16DelegationModule33change_delegation_contract_params0Cs25HLPETZpNm_4test
FN:37,_RNvYINtNtNtCsd0DXYhglbat_13multiversx_sc13contract_base22universal_contract_obj20UniversalContractObjINtNtNtNtCs2614o7AVePg_22multiversx_sc_scenario3api7impl_vh12vm_hooks_api10VMHooksApiNtNtB1G_9debug_api15DebugApiBackendEENtNtCs141FUTAEp3L_14liquid_staking10delegation16DelegationModule29whitelist_delegation_contractCsgub9DQDg2s9_15unDelegate_test
FN:105,_RNvYINtNtNtCsd0DXYhglbat_13multiversx_sc13contract_base22universal_contract_obj20UniversalContractObjINtNtNtNtCs2614o7AVePg_22multiversx_sc_scenario3api7impl_vh12vm_hooks_api10VMHooksApiNtNtB1G_9debug_api15DebugApiBackendEENtNtCs141FUTAEp3L_14liquid_staking10delegation16DelegationModule32change_delegation_contract_adminCsgub9DQDg2s9_15unDelegate_test
FN:123,_RNvYINtNtNtCsd0DXYhglbat_13multiversx_sc13contract_base22universal_contract_obj20UniversalContractObjINtNtNtNtCs2614o7AVePg_22multiversx_sc_scenario3api7impl_vh12vm_hooks_api10VMHooksApiNtNtB1G_9debug_api15DebugApiBackendEENtNtCs141FUTAEp3L_14liquid_staking10delegation16DelegationModule33change_delegation_contract_paramsCsgub9DQDg2s9_15unDelegate_test
FN:15,_RNvYINtNtNtCsd0DXYhglbat_13multiversx_sc13contract_base22universal_contract_obj20UniversalContractObjINtNtNtNtCs2614o7AVePg_22multiversx_sc_scenario3api7impl_vh12vm_hooks_api10VMHooksApiNtNtB1G_9debug_api15DebugApiBackendEENtNtCs141FUTAEp3L_14liquid_staking10delegation16EndpointWrappers17callback_selectorCsgub9DQDg2s9_15unDelegate_test
FN:15,_RNvYINtNtNtCsd0DXYhglbat_13multiversx_sc13contract_base22universal_contract_obj20UniversalContractObjINtNtNtNtCs2614o7AVePg_22multiversx_sc_scenario3api7impl_vh12vm_hooks_api10VMHooksApiNtNtB1G_9debug_api15DebugApiBackendEENtNtCs141FUTAEp3L_14liquid_staking10delegation16EndpointWrappers34call_whitelist_delegation_contractCsgub9DQDg2s9_15unDelegate_test
FN:15,_RNvYINtNtNtCsd0DXYhglbat_13multiversx_sc13contract_base22universal_contract_obj20UniversalContractObjINtNtNtNtCs2614o7AVePg_22multiversx_sc_scenario3api7impl_vh12vm_hooks_api10VMHooksApiNtNtB1G_9debug_api15DebugApiBackendEENtNtCs141FUTAEp3L_14liquid_staking10delegation16EndpointWrappers37call_change_delegation_contract_adminCsgub9DQDg2s9_15unDelegate_test
FN:15,_RNvYINtNtNtCsd0DXYhglbat_13multiversx_sc13contract_base22universal_contract_obj20UniversalContractObjINtNtNtNtCs2614o7AVePg_22multiversx_sc_scenario3api7impl_vh12vm_hooks_api10VMHooksApiNtNtB1G_9debug_api15DebugApiBackendEENtNtCs141FUTAEp3L_14liquid_staking10delegation16EndpointWrappers38call_change_delegation_contract_paramsCsgub9DQDg2s9_15unDelegate_test
FN:15,_RNvYINtNtNtCsd0DXYhglbat_13multiversx_sc13contract_base22universal_contract_obj20UniversalContractObjINtNtNtNtCs2614o7AVePg_22multiversx_sc_scenario3api7impl_vh12vm_hooks_api10VMHooksApiNtNtB1G_9debug_api15DebugApiBackendEENtNtCs141FUTAEp3L_14liquid_staking10delegation16EndpointWrappers4callCsgub9DQDg2s9_15unDelegate_test
FN:15,_RNvYINtNtNtCsd0DXYhglbat_13multiversx_sc13contract_base22universal_contract_obj20UniversalContractObjINtNtNtNtCs2614o7AVePg_22multiversx_sc_scenario3api7impl_vh12vm_hooks_api10VMHooksApiNtNtB1G_9debug_api15DebugApiBackendEENtNtCs141FUTAEp3L_14liquid_staking10delegation16EndpointWrappers8callbackCsgub9DQDg2s9_15unDelegate_test
FN:109,_RNCNvYINtNtNtCsd0DXYhglbat_13multiversx_sc13contract_base22universal_contract_obj20UniversalContractObjINtNtNtNtCs2614o7AVePg_22multiversx_sc_scenario3api7impl_vh12vm_hooks_api10VMHooksApiNtNtB1I_9debug_api15DebugApiBackendEENtNtCs141FUTAEp3L_14liquid_staking10delegation16DelegationModule32change_delegation_contract_admin0Csgub9DQDg2s9_15unDelegate_test
FN:140,_RNCNvYINtNtNtCsd0DXYhglbat_13multiversx_sc13contract_base22universal_contract_obj20UniversalContractObjINtNtNtNtCs2614o7AVePg_22multiversx_sc_scenario3api7impl_vh12vm_hooks_api10VMHooksApiNtNtB1I_9debug_api15DebugApiBackendEENtNtCs141FUTAEp3L_14liquid_staking10delegation16DelegationModule33change_delegation_contract_params0Csgub9DQDg2s9_15unDelegate_test
FN:109,_RNCNvYINtNtNtCsd0DXYhglbat_13multiversx_sc13contract_base22universal_contract_obj20UniversalContractObjINtNtNtNtCs2614o7AVePg_22multiversx_sc_scenario3api7impl_vh12vm_hooks_api10VMHooksApiNtNtB1I_9debug_api15DebugApiBackendEENtNtCs141FUTAEp3L_14liquid_staking10delegation16DelegationModule32change_delegation_contract_admin0CscNyXpV1vtNq_11unbond_test
FN:140,_RNCNvYINtNtNtCsd0DXYhglbat_13multiversx_sc13contract_base22universal_contract_obj20UniversalContractObjINtNtNtNtCs2614o7AVePg_22multiversx_sc_scenario3api7impl_vh12vm_hooks_api10VMHooksApiNtNtB1I_9debug_api15DebugApiBackendEENtNtCs141FUTAEp3L_14liquid_staking10delegation16DelegationModule33change_delegation_contract_params0CscNyXpV1vtNq_11unbond_test
FN:37,_RNvYINtNtNtCsd0DXYhglbat_13multiversx_sc13contract_base22universal_contract_obj20UniversalContractObjINtNtNtNtCs2614o7AVePg_22multiversx_sc_scenario3api7impl_vh12vm_hooks_api10VMHooksApiNtNtB1G_9debug_api15DebugApiBackendEENtNtCs141FUTAEp3L_14liquid_staking10delegation16DelegationModule29whitelist_delegation_contractCscNyXpV1vtNq_11unbond_test
FN:105,_RNvYINtNtNtCsd0DXYhglbat_13multiversx_sc13contract_base22universal_contract_obj20UniversalContractObjINtNtNtNtCs2614o7AVePg_22multiversx_sc_scenario3api7impl_vh12vm_hooks_api10VMHooksApiNtNtB1G_9debug_api15DebugApiBackendEENtNtCs141FUTAEp3L_14liquid_staking10delegation16DelegationModule32change_delegation_contract_adminCscNyXpV1vtNq_11unbond_test
FN:123,_RNvYINtNtNtCsd0DXYhglbat_13multiversx_sc13contract_base22universal_contract_obj20UniversalContractObjINtNtNtNtCs2614o7AVePg_22multiversx_sc_scenario3api7impl_vh12vm_hooks_api10VMHooksApiNtNtB1G_9debug_api15DebugApiBackendEENtNtCs141FUTAEp3L_14liquid_staking10delegation16DelegationModule33change_delegation_contract_paramsCscNyXpV1vtNq_11unbond_test
FN:15,_RNvYINtNtNtCsd0DXYhglbat_13multiversx_sc13contract_base22universal_contract_obj20UniversalContractObjINtNtNtNtCs2614o7AVePg_22multiversx_sc_scenario3api7impl_vh12vm_hooks_api10VMHooksApiNtNtB1G_9debug_api15DebugApiBackendEENtNtCs141FUTAEp3L_14liquid_staking10delegation16EndpointWrappers17callback_selectorCscNyXpV1vtNq_11unbond_test
FN:15,_RNvYINtNtNtCsd0DXYhglbat_13multiversx_sc13contract_base22universal_contract_obj20UniversalContractObjINtNtNtNtCs2614o7AVePg_22multiversx_sc_scenario3api7impl_vh12vm_hooks_api10VMHooksApiNtNtB1G_9debug_api15DebugApiBackendEENtNtCs141FUTAEp3L_14liquid_staking10delegation16EndpointWrappers34call_whitelist_delegation_contractCscNyXpV1vtNq_11unbond_test
FN:15,_RNvYINtNtNtCsd0DXYhglbat_13multiversx_sc13contract_base22universal_contract_obj20UniversalContractObjINtNtNtNtCs2614o7AVePg_22multiversx_sc_scenario3api7impl_vh12vm_hooks_api10VMHooksApiNtNtB1G_9debug_api15DebugApiBackendEENtNtCs141FUTAEp3L_14liquid_staking10delegation16EndpointWrappers37call_change_delegation_contract_adminCscNyXpV1vtNq_11unbond_test
FN:15,_RNvYINtNtNtCsd0DXYhglbat_13multiversx_sc13contract_base22universal_contract_obj20UniversalContractObjINtNtNtNtCs2614o7AVePg_22multiversx_sc_scenario3api7impl_vh12vm_hooks_api10VMHooksApiNtNtB1G_9debug_api15DebugApiBackendEENtNtCs141FUTAEp3L_14liquid_staking10delegation16EndpointWrappers38call_change_delegation_contract_paramsCscNyXpV1vtNq_11unbond_test
FN:15,_RNvYINtNtNtCsd0DXYhglbat_13multiversx_sc13contract_base22universal_contract_obj20UniversalContractObjINtNtNtNtCs2614o7AVePg_22multiversx_sc_scenario3api7impl_vh12vm_hooks_api10VMHooksApiNtNtB1G_9debug_api15DebugApiBackendEENtNtCs141FUTAEp3L_14liquid_staking10delegation16EndpointWrappers4callCscNyXpV1vtNq_11unbond_test
FN:15,_RNvYINtNtNtCsd0DXYhglbat_13multiversx_sc13contract_base22universal_contract_obj20UniversalContractObjINtNtNtNtCs2614o7AVePg_22multiversx_sc_scenario3api7impl_vh12vm_hooks_api10VMHooksApiNtNtB1G_9debug_api15DebugApiBackendEENtNtCs141FUTAEp3L_14liquid_staking10delegation16EndpointWrappers8callbackCscNyXpV1vtNq_11unbond_test
FNDA:0,_RNCNvYINtNtNtCsd0DXYhglbat_13multiversx_sc13contract_base22universal_contract_obj20UniversalContractObjINtNtNtNtCs2614o7AVePg_22multiversx_sc_scenario3api7impl_vh12vm_hooks_api10VMHooksApiNtNtB1I_9debug_api15DebugApiBackendEENtNtCs141FUTAEp3L_14liquid_staking10delegation16DelegationModule32change_delegation_contract_admin0Csbv7vZMOU1ip_13delegate_test
FNDA:0,_RNCNvYINtNtNtCsd0DXYhglbat_13multiversx_sc13contract_base22universal_contract_obj20UniversalContractObjINtNtNtNtCs2614o7AVePg_22multiversx_sc_scenario3api7impl_vh12vm_hooks_api10VMHooksApiNtNtB1I_9debug_api15DebugApiBackendEENtNtCs141FUTAEp3L_14liquid_staking10delegation16DelegationModule33change_delegation_contract_params0Csbv7vZMOU1ip_13delegate_test
FNDA:16,_RNvYINtNtNtCsd0DXYhglbat_13multiversx_sc13contract_base22universal_contract_obj20UniversalContractObjINtNtNtNtCs2614o7AVePg_22multiversx_sc_scenario3api7impl_vh12vm_hooks_api10VMHooksApiNtNtB1G_9debug_api15DebugApiBackendEENtNtCs141FUTAEp3L_14liquid_staking10delegation16DelegationModule29whitelist_delegation_contractCsbv7vZMOU1ip_13delegate_test
FNDA:0,_RNvYINtNtNtCsd0DXYhglbat_13multiversx_sc13contract_base22universal_contract_obj20UniversalContractObjINtNtNtNtCs2614o7AVePg_22multiversx_sc_scenario3api7impl_vh12vm_hooks_api10VMHooksApiNtNtB1G_9debug_api15DebugApiBackendEENtNtCs141FUTAEp3L_14liquid_staking10delegation16DelegationModule32change_delegation_contract_adminCsbv7vZMOU1ip_13delegate_test
FNDA:0,_RNvYINtNtNtCsd0DXYhglbat_13multiversx_sc13contract_base22universal_contract_obj20UniversalContractObjINtNtNtNtCs2614o7AVePg_22multiversx_sc_scenario3api7impl_vh12vm_hooks_api10VMHooksApiNtNtB1G_9debug_api15DebugApiBackendEENtNtCs141FUTAEp3L_14liquid_staking10delegation16DelegationModule33change_delegation_contract_paramsCsbv7vZMOU1ip_13delegate_test
FNDA:0,_RNvYINtNtNtCsd0DXYhglbat_13multiversx_sc13contract_base22universal_contract_obj20UniversalContractObjINtNtNtNtCs2614o7AVePg_22multiversx_sc_scenario3api7impl_vh12vm_hooks_api10VMHooksApiNtNtB1G_9debug_api15DebugApiBackendEENtNtCs141FUTAEp3L_14liquid_staking10delegation16EndpointWrappers17callback_selectorCsbv7vZMOU1ip_13delegate_test
FNDA:16,_RNvYINtNtNtCsd0DXYhglbat_13multiversx_sc13contract_base22universal_contract_obj20UniversalContractObjINtNtNtNtCs2614o7AVePg_22multiversx_sc_scenario3api7impl_vh12vm_hooks_api10VMHooksApiNtNtB1G_9debug_api15DebugApiBackendEENtNtCs141FUTAEp3L_14liquid_staking10delegation16EndpointWrappers34call_whitelist_delegation_contractCsbv7vZMOU1ip_13delegate_test
FNDA:0,_RNvYINtNtNtCsd0DXYhglbat_13multiversx_sc13contract_base22universal_contract_obj20UniversalContractObjINtNtNtNtCs2614o7AVePg_22multiversx_sc_scenario3api7impl_vh12vm_hooks_api10VMHooksApiNtNtB1G_9debug_api15DebugApiBackendEENtNtCs141FUTAEp3L_14liquid_staking10delegation16EndpointWrappers37call_change_delegation_contract_adminCsbv7vZMOU1ip_13delegate_test
FNDA:0,_RNvYINtNtNtCsd0DXYhglbat_13multiversx_sc13contract_base22universal_contract_obj20UniversalContractObjINtNtNtNtCs2614o7AVePg_22multiversx_sc_scenario3api7impl_vh12vm_hooks_api10VMHooksApiNtNtB1G_9debug_api15DebugApiBackendEENtNtCs141FUTAEp3L_14liquid_staking10delegation16EndpointWrappers38call_change_delegation_contract_paramsCsbv7vZMOU1ip_13delegate_test
FNDA:16,_RNvYINtNtNtCsd0DXYhglbat_13multiversx_sc13contract_base22universal_contract_obj20UniversalContractObjINtNtNtNtCs2614o7AVePg_22multiversx_sc_scenario3api7impl_vh12vm_hooks_api10VMHooksApiNtNtB1G_9debug_api15DebugApiBackendEENtNtCs141FUTAEp3L_14liquid_staking10delegation16EndpointWrappers4callCsbv7vZMOU1ip_13delegate_test
FNDA:0,_RNvYINtNtNtCsd0DXYhglbat_13multiversx_sc13contract_base22universal_contract_obj20UniversalContractObjINtNtNtNtCs2614o7AVePg_22multiversx_sc_scenario3api7impl_vh12vm_hooks_api10VMHooksApiNtNtB1G_9debug_api15DebugApiBackendEENtNtCs141FUTAEp3L_14liquid_staking10delegation16EndpointWrappers8callbackCsbv7vZMOU1ip_13delegate_test
FNDA:0,_RNvYpNtNtCs2edAa8LGkSL_14liquid_staking10delegation16DelegationModule29whitelist_delegation_contractB7_
FNDA:0,_RNvYpNtNtCs2edAa8LGkSL_14liquid_staking10delegation16DelegationModule32change_delegation_contract_adminB7_
FNDA:0,_RNCNvYpNtNtCs2edAa8LGkSL_14liquid_staking10delegation16DelegationModule32change_delegation_contract_admin0B9_
FNDA:0,_RNvYpNtNtCs2edAa8LGkSL_14liquid_staking10delegation16DelegationModule33change_delegation_contract_paramsB7_
FNDA:0,_RNCNvYpNtNtCs2edAa8LGkSL_14liquid_staking10delegation16DelegationModule33change_delegation_contract_params0B9_
FNDA:0,_RNvYpNtNtCs2edAa8LGkSL_14liquid_staking10delegation16EndpointWrappers34call_whitelist_delegation_contractB7_
FNDA:0,_RNvYpNtNtCs2edAa8LGkSL_14liquid_staking10delegation16EndpointWrappers37call_change_delegation_contract_adminB7_
FNDA:0,_RNvYpNtNtCs2edAa8LGkSL_14liquid_staking10delegation16EndpointWrappers38call_change_delegation_contract_paramsB7_
FNDA:0,_RNvYpNtNtCs2edAa8LGkSL_14liquid_staking10delegation16EndpointWrappers4callB7_
FNDA:0,_RNvYpNtNtCs2edAa8LGkSL_14liquid_staking10delegation16EndpointWrappers17callback_selectorB7_
FNDA:0,_RNvYpNtNtCs2edAa8LGkSL_14liquid_staking10delegation16EndpointWrappers8callbackB7_
FNDA:0,_RNvXs1_NtCs2edAa8LGkSL_14liquid_staking10delegationNtB5_11AbiProviderNtNtNtCsd0DXYhglbat_13multiversx_sc13contract_base21contract_abi_provider19ContractAbiProvider3abi
FNDA:0,_RNvXININtCs2edAa8LGkSL_14liquid_staking10delegationsn_0pEINtB5_11ContractObjpENtNtNtCsd0DXYhglbat_13multiversx_sc13contract_base17callable_contract16CallableContract4callB7_
FNDA:0,_RINvNtCs2edAa8LGkSL_14liquid_staking10delegation12contract_objpEB4_
FNDA:0,_RINvXso_NtCs2edAa8LGkSL_14liquid_staking10delegationNtB6_15ContractBuilderNtNtNtCsd0DXYhglbat_13multiversx_sc13contract_base17callable_contract23CallableContractBuilder16new_contract_objpEB8_
FNDA:0,_RINvNtNtCs2edAa8LGkSL_14liquid_staking10delegation19___wasm__endpoints__29whitelist_delegation_contractpEB6_
FNDA:0,_RINvNtNtCs2edAa8LGkSL_14liquid_staking10delegation19___wasm__endpoints__32change_delegation_contract_adminpEB6_
FNDA:0,_RINvNtNtCs2edAa8LGkSL_14liquid_staking10delegation19___wasm__endpoints__33change_delegation_contract_paramspEB6_
FNDA:0,_RINvYpNtNtCs2edAa8LGkSL_14liquid_staking10delegation10ProxyTrait29whitelist_delegation_contractppppppEB8_
FNDA:0,_RINvYpNtNtCs2edAa8LGkSL_14liquid_staking10delegation10ProxyTrait32change_delegation_contract_adminppEB8_
FNDA:0,_RINvYpNtNtCs2edAa8LGkSL_14liquid_staking10delegation10ProxyTrait33change_delegation_contract_paramsppppppEB8_
FNDA:7,_RNvYINtNtNtCsd0DXYhglbat_13multiversx_sc13contract_base22universal_contract_obj20UniversalContractObjINtNtNtNtCs2614o7AVePg_22multiversx_sc_scenario3api7impl_vh12vm_hooks_api10VMHooksApiNtNtB1G_9debug_api15DebugApiBackendEENtNtCs141FUTAEp3L_14liquid_staking10delegation16DelegationModule29whitelist_delegation_contractCs25HLPETZpNm_4test
FNDA:0,_RNvYINtNtNtCsd0DXYhglbat_13multiversx_sc13contract_base22universal_contract_obj20UniversalContractObjINtNtNtNtCs2614o7AVePg_22multiversx_sc_scenario3api7impl_vh12vm_hooks_api10VMHooksApiNtNtB1G_9debug_api15DebugApiBackendEENtNtCs141FUTAEp3L_14liquid_staking10delegation16DelegationModule32change_delegation_contract_adminCs25HLPETZpNm_4test
FNDA:4,_RNvYINtNtNtCsd0DXYhglbat_13multiversx_sc13contract_base22universal_contract_obj20UniversalContractObjINtNtNtNtCs2614o7AVePg_22multiversx_sc_scenario3api7impl_vh12vm_hooks_api10VMHooksApiNtNtB1G_9debug_api15DebugApiBackendEENtNtCs141FUTAEp3L_14liquid_staking10delegation16DelegationModule33change_delegation_contract_paramsCs25HLPETZpNm_4test
FNDA:0,_RNvYINtNtNtCsd0DXYhglbat_13multiversx_sc13contract_base22universal_contract_obj20UniversalContractObjINtNtNtNtCs2614o7AVePg_22multiversx_sc_scenario3api7impl_vh12vm_hooks_api10VMHooksApiNtNtB1G_9debug_api15DebugApiBackendEENtNtCs141FUTAEp3L_14liquid_staking10delegation16EndpointWrappers17callback_selectorCs25HLPETZpNm_4test
FNDA:7,_RNvYINtNtNtCsd0DXYhglbat_13multiversx_sc13contract_base22universal_contract_obj20UniversalContractObjINtNtNtNtCs2614o7AVePg_22multiversx_sc_scenario3api7impl_vh12vm_hooks_api10VMHooksApiNtNtB1G_9debug_api15DebugApiBackendEENtNtCs141FUTAEp3L_14liquid_staking10delegation16EndpointWrappers34call_whitelist_delegation_contractCs25HLPETZpNm_4test
FNDA:0,_RNvYINtNtNtCsd0DXYhglbat_13multiversx_sc13contract_base22universal_contract_obj20UniversalContractObjINtNtNtNtCs2614o7AVePg_22multiversx_sc_scenario3api7impl_vh12vm_hooks_api10VMHooksApiNtNtB1G_9debug_api15DebugApiBackendEENtNtCs141FUTAEp3L_14liquid_staking10delegation16EndpointWrappers37call_change_delegation_contract_adminCs25HLPETZpNm_4test
FNDA:4,_RNvYINtNtNtCsd0DXYhglbat_13multiversx_sc13contract_base22universal_contract_obj20UniversalContractObjINtNtNtNtCs2614o7AVePg_22multiversx_sc_scenario3api7impl_vh12vm_hooks_api10VMHooksApiNtNtB1G_9debug_api15DebugApiBackendEENtNtCs141FUTAEp3L_14liquid_staking10delegation16EndpointWrappers38call_change_delegation_contract_paramsCs25HLPETZpNm_4test
FNDA:11,_RNvYINtNtNtCsd0DXYhglbat_13multiversx_sc13contract_base22universal_contract_obj20UniversalContractObjINtNtNtNtCs2614o7AVePg_22multiversx_sc_scenario3api7impl_vh12vm_hooks_api10VMHooksApiNtNtB1G_9debug_api15DebugApiBackendEENtNtCs141FUTAEp3L_14liquid_staking10delegation16EndpointWrappers4callCs25HLPETZpNm_4test
FNDA:0,_RNvYINtNtNtCsd0DXYhglbat_13multiversx_sc13contract_base22universal_contract_obj20UniversalContractObjINtNtNtNtCs2614o7AVePg_22multiversx_sc_scenario3api7impl_vh12vm_hooks_api10VMHooksApiNtNtB1G_9debug_api15DebugApiBackendEENtNtCs141FUTAEp3L_14liquid_staking10delegation16EndpointWrappers8callbackCs25HLPETZpNm_4test
FNDA:0,_RNCNvYINtNtNtCsd0DXYhglbat_13multiversx_sc13contract_base22universal_contract_obj20UniversalContractObjINtNtNtNtCs2614o7AVePg_22multiversx_sc_scenario3api7impl_vh12vm_hooks_api10VMHooksApiNtNtB1I_9debug_api15DebugApiBackendEENtNtCs141FUTAEp3L_14liquid_staking10delegation16DelegationModule32change_delegation_contract_admin0Cs25HLPETZpNm_4test
FNDA:4,_RNCNvYINtNtNtCsd0DXYhglbat_13multiversx_sc13contract_base22universal_contract_obj20UniversalContractObjINtNtNtNtCs2614o7AVePg_22multiversx_sc_scenario3api7impl_vh12vm_hooks_api10VMHooksApiNtNtB1I_9debug_api15DebugApiBackendEENtNtCs141FUTAEp3L_14liquid_staking10delegation16DelegationModule33change_delegation_contract_params0Cs25HLPETZpNm_4test
FNDA:389,_RNvYINtNtNtCsd0DXYhglbat_13multiversx_sc13contract_base22universal_contract_obj20UniversalContractObjINtNtNtNtCs2614o7AVePg_22multiversx_sc_scenario3api7impl_vh12vm_hooks_api10VMHooksApiNtNtB1G_9debug_api15DebugApiBackendEENtNtCs141FUTAEp3L_14liquid_staking10delegation16DelegationModule29whitelist_delegation_contractCsgub9DQDg2s9_15unDelegate_test
FNDA:0,_RNvYINtNtNtCsd0DXYhglbat_13multiversx_sc13contract_base22universal_contract_obj20UniversalContractObjINtNtNtNtCs2614o7AVePg_22multiversx_sc_scenario3api7impl_vh12vm_hooks_api10VMHooksApiNtNtB1G_9debug_api15DebugApiBackendEENtNtCs141FUTAEp3L_14liquid_staking10delegation16DelegationModule32change_delegation_contract_adminCsgub9DQDg2s9_15unDelegate_test
FNDA:0,_RNvYINtNtNtCsd0DXYhglbat_13multiversx_sc13contract_base22universal_contract_obj20UniversalContractObjINtNtNtNtCs2614o7AVePg_22multiversx_sc_scenario3api7impl_vh12vm_hooks_api10VMHooksApiNtNtB1G_9debug_api15DebugApiBackendEENtNtCs141FUTAEp3L_14liquid_staking10delegation16DelegationModule33change_delegation_contract_paramsCsgub9DQDg2s9_15unDelegate_test
FNDA:0,_RNvYINtNtNtCsd0DXYhglbat_13multiversx_sc13contract_base22universal_contract_obj20UniversalContractObjINtNtNtNtCs2614o7AVePg_22multiversx_sc_scenario3api7impl_vh12vm_hooks_api10VMHooksApiNtNtB1G_9debug_api15DebugApiBackendEENtNtCs141FUTAEp3L_14liquid_staking10delegation16EndpointWrappers17callback_selectorCsgub9DQDg2s9_15unDelegate_test
FNDA:389,_RNvYINtNtNtCsd0DXYhglbat_13multiversx_sc13contract_base22universal_contract_obj20UniversalContractObjINtNtNtNtCs2614o7AVePg_22multiversx_sc_scenario3api7impl_vh12vm_hooks_api10VMHooksApiNtNtB1G_9debug_api15DebugApiBackendEENtNtCs141FUTAEp3L_14liquid_staking10delegation16EndpointWrappers34call_whitelist_delegation_contractCsgub9DQDg2s9_15unDelegate_test
FNDA:0,_RNvYINtNtNtCsd0DXYhglbat_13multiversx_sc13contract_base22universal_contract_obj20UniversalContractObjINtNtNtNtCs2614o7AVePg_22multiversx_sc_scenario3api7impl_vh12vm_hooks_api10VMHooksApiNtNtB1G_9debug_api15DebugApiBackendEENtNtCs141FUTAEp3L_14liquid_staking10delegation16EndpointWrappers37call_change_delegation_contract_adminCsgub9DQDg2s9_15unDelegate_test
FNDA:0,_RNvYINtNtNtCsd0DXYhglbat_13multiversx_sc13contract_base22universal_contract_obj20UniversalContractObjINtNtNtNtCs2614o7AVePg_22multiversx_sc_scenario3api7impl_vh12vm_hooks_api10VMHooksApiNtNtB1G_9debug_api15DebugApiBackendEENtNtCs141FUTAEp3L_14liquid_staking10delegation16EndpointWrappers38call_change_delegation_contract_paramsCsgub9DQDg2s9_15unDelegate_test
FNDA:389,_RNvYINtNtNtCsd0DXYhglbat_13multiversx_sc13contract_base22universal_contract_obj20UniversalContractObjINtNtNtNtCs2614o7AVePg_22multiversx_sc_scenario3api7impl_vh12vm_hooks_api10VMHooksApiNtNtB1G_9debug_api15DebugApiBackendEENtNtCs141FUTAEp3L_14liquid_staking10delegation16EndpointWrappers4callCsgub9DQDg2s9_15unDelegate_test
FNDA:0,_RNvYINtNtNtCsd0DXYhglbat_13multiversx_sc13contract_base22universal_contract_obj20UniversalContractObjINtNtNtNtCs2614o7AVePg_22multiversx_sc_scenario3api7impl_vh12vm_hooks_api10VMHooksApiNtNtB1G_9debug_api15DebugApiBackendEENtNtCs141FUTAEp3L_14liquid_staking10delegation16EndpointWrappers8callbackCsgub9DQDg2s9_15unDelegate_test
FNDA:0,_RNCNvYINtNtNtCsd0DXYhglbat_13multiversx_sc13contract_base22universal_contract_obj20UniversalContractObjINtNtNtNtCs2614o7AVePg_22multiversx_sc_scenario3api7impl_vh12vm_hooks_api10VMHooksApiNtNtB1I_9debug_api15DebugApiBackendEENtNtCs141FUTAEp3L_14liquid_staking10delegation16DelegationModule32change_delegation_contract_admin0Csgub9DQDg2s9_15unDelegate_test
FNDA:0,_RNCNvYINtNtNtCsd0DXYhglbat_13multiversx_sc13contract_base22universal_contract_obj20UniversalContractObjINtNtNtNtCs2614o7AVePg_22multiversx_sc_scenario3api7impl_vh12vm_hooks_api10VMHooksApiNtNtB1I_9debug_api15DebugApiBackendEENtNtCs141FUTAEp3L_14liquid_staking10delegation16DelegationModule33change_delegation_contract_params0Csgub9DQDg2s9_15unDelegate_test
FNDA:0,_RNCNvYINtNtNtCsd0DXYhglbat_13multiversx_sc13contract_base22universal_contract_obj20UniversalContractObjINtNtNtNtCs2614o7AVePg_22multiversx_sc_scenario3api7impl_vh12vm_hooks_api10VMHooksApiNtNtB1I_9debug_api15DebugApiBackendEENtNtCs141FUTAEp3L_14liquid_staking10delegation16DelegationModule32change_delegation_contract_admin0CscNyXpV1vtNq_11unbond_test
FNDA:0,_RNCNvYINtNtNtCsd0DXYhglbat_13multiversx_sc13contract_base22universal_contract_obj20UniversalContractObjINtNtNtNtCs2614o7AVePg_22multiversx_sc_scenario3api7impl_vh12vm_hooks_api10VMHooksApiNtNtB1I_9debug_api15DebugApiBackendEENtNtCs141FUTAEp3L_14liquid_staking10delegation16DelegationModule33change_delegation_contract_params0CscNyXpV1vtNq_11unbond_test
FNDA:7,_RNvYINtNtNtCsd0DXYhglbat_13multiversx_sc13contract_base22universal_contract_obj20UniversalContractObjINtNtNtNtCs2614o7AVePg_22multiversx_sc_scenario3api7impl_vh12vm_hooks_api10VMHooksApiNtNtB1G_9debug_api15DebugApiBackendEENtNtCs141FUTAEp3L_14liquid_staking10delegation16DelegationModule29whitelist_delegation_contractCscNyXpV1vtNq_11unbond_test
FNDA:0,_RNvYINtNtNtCsd0DXYhglbat_13multiversx_sc13contract_base22universal_contract_obj20UniversalContractObjINtNtNtNtCs2614o7AVePg_22multiversx_sc_scenario3api7impl_vh12vm_hooks_api10VMHooksApiNtNtB1G_9debug_api15DebugApiBackendEENtNtCs141FUTAEp3L_14liquid_staking10delegation16DelegationModule32change_delegation_contract_adminCscNyXpV1vtNq_11unbond_test
FNDA:0,_RNvYINtNtNtCsd0DXYhglbat_13multiversx_sc13contract_base22universal_contract_obj20UniversalContractObjINtNtNtNtCs2614o7AVePg_22multiversx_sc_scenario3api7impl_vh12vm_hooks_api10VMHooksApiNtNtB1G_9debug_api15DebugApiBackendEENtNtCs141FUTAEp3L_14liquid_staking10delegation16DelegationModule33change_delegation_contract_paramsCscNyXpV1vtNq_11unbond_test
FNDA:0,_RNvYINtNtNtCsd0DXYhglbat_13multiversx_sc13contract_base22universal_contract_obj20UniversalContractObjINtNtNtNtCs2614o7AVePg_22multiversx_sc_scenario3api7impl_vh12vm_hooks_api10VMHooksApiNtNtB1G_9debug_api15DebugApiBackendEENtNtCs141FUTAEp3L_14liquid_staking10delegation16EndpointWrappers17callback_selectorCscNyXpV1vtNq_11unbond_test
FNDA:7,_RNvYINtNtNtCsd0DXYhglbat_13multiversx_sc13contract_base22universal_contract_obj20UniversalContractObjINtNtNtNtCs2614o7AVePg_22multiversx_sc_scenario3api7impl_vh12vm_hooks_api10VMHooksApiNtNtB1G_9debug_api15DebugApiBackendEENtNtCs141FUTAEp3L_14liquid_staking10delegation16EndpointWrappers34call_whitelist_delegation_contractCscNyXpV1vtNq_11unbond_test
FNDA:0,_RNvYINtNtNtCsd0DXYhglbat_13multiversx_sc13contract_base22universal_contract_obj20UniversalContractObjINtNtNtNtCs2614o7AVePg_22multiversx_sc_scenario3api7impl_vh12vm_hooks_api10VMHooksApiNtNtB1G_9debug_api15DebugApiBackendEENtNtCs141FUTAEp3L_14liquid_staking10delegation16EndpointWrappers37call_change_delegation_contract_adminCscNyXpV1vtNq_11unbond_test
FNDA:0,_RNvYINtNtNtCsd0DXYhglbat_13multiversx_sc13contract_base22universal_contract_obj20UniversalContractObjINtNtNtNtCs2614o7AVePg_22multiversx_sc_scenario3api7impl_vh12vm_hooks_api10VMHooksApiNtNtB1G_9debug_api15DebugApiBackendEENtNtCs141FUTAEp3L_14liquid_staking10delegation16EndpointWrappers38call_change_delegation_contract_paramsCscNyXpV1vtNq_11unbond_test
FNDA:7,_RNvYINtNtNtCsd0DXYhglbat_13multiversx_sc13contract_base22universal_contract_obj20UniversalContractObjINtNtNtNtCs2614o7AVePg_22multiversx_sc_scenario3api7impl_vh12vm_hooks_api10VMHooksApiNtNtB1G_9debug_api15DebugApiBackendEENtNtCs141FUTAEp3L_14liquid_staking10delegation16EndpointWrappers4callCscNyXpV1vtNq_11unbond_test
FNDA:0,_RNvYINtNtNtCsd0DXYhglbat_13multiversx_sc13contract_base22universal_contract_obj20UniversalContractObjINtNtNtNtCs2614o7AVePg_22multiversx_sc_scenario3api7impl_vh12vm_hooks_api10VMHooksApiNtNtB1G_9debug_api15DebugApiBackendEENtNtCs141FUTAEp3L_14liquid_staking10delegation16EndpointWrappers8callbackCscNyXpV1vtNq_11unbond_test
FNF:6
FNH:4
DA:15,423
DA:37,419
DA:38,419
DA:39,419
DA:40,419
DA:41,0
DA:44,419
DA:45,419
DA:46,0
DA:49,419
DA:50,419
DA:51,419
DA:52,419
DA:53,419
DA:54,0
DA:57,419
DA:58,419
DA:59,0
DA:62,419
DA:63,419
DA:64,419
DA:65,0
DA:68,419
DA:69,419
DA:70,419
DA:71,419
DA:72,419
DA:73,419
DA:74,419
DA:75,419
DA:76,419
DA:77,419
DA:78,419
DA:79,419
DA:80,419
DA:81,419
DA:82,419
DA:83,419
DA:84,419
DA:85,419
DA:86,419
DA:87,419
DA:88,419
DA:89,419
DA:90,419
DA:91,419
DA:92,419
DA:93,419
DA:94,419
DA:95,419
DA:96,419
DA:97,419
DA:105,0
DA:106,0
DA:107,0
DA:108,0
DA:109,0
DA:110,0
DA:111,0
DA:123,4
DA:124,4
DA:125,4
DA:126,4
DA:127,4
DA:128,4
DA:130,4
DA:131,4
DA:132,0
DA:135,4
DA:136,4
DA:137,0
DA:140,4
DA:141,4
DA:142,4
DA:143,4
DA:144,4
DA:145,4
DA:146,4
BRF:0
BRH:0
LF:82
LH:66
end_of_record
SF:/Users/mihaieremia/GitHub/rs-egld-liquid-staking/liquid-staking/src/events.rs
FN:6,_RINvXsg_NtCs141FUTAEp3L_14liquid_staking6eventsINtB6_20ChangeLiquidityEventINtNtNtNtCs2614o7AVePg_22multiversx_sc_scenario3api7impl_vh12vm_hooks_api10VMHooksApiNtNtB1g_9debug_api15DebugApiBackendEENtNtNtCscdsapSSZlNS_19multiversx_sc_codec6single6top_en9TopEncode24top_encode_or_handle_errQINtNtNtNtNtCsd0DXYhglbat_13multiversx_sc5types7managed5basic14managed_buffer13ManagedBufferB1b_EINtNtNtNtB4O_13contract_base8wrappers10serializer21ExitCodecErrorHandlerB1b_EECsbv7vZMOU1ip_13delegate_test
FN:22,_RNvXNtCs141FUTAEp3L_14liquid_staking6eventsINtNtNtCsd0DXYhglbat_13multiversx_sc13contract_base22universal_contract_obj20UniversalContractObjINtNtNtNtCs2614o7AVePg_22multiversx_sc_scenario3api7impl_vh12vm_hooks_api10VMHooksApiNtNtB2j_9debug_api15DebugApiBackendEENtB2_12EventsModule19add_liquidity_eventCsbv7vZMOU1ip_13delegate_test
FN:22,_RNvXNtCs141FUTAEp3L_14liquid_staking6eventsINtNtNtCsd0DXYhglbat_13multiversx_sc13contract_base22universal_contract_obj20UniversalContractObjINtNtNtNtCs2614o7AVePg_22multiversx_sc_scenario3api7impl_vh12vm_hooks_api10VMHooksApiNtNtB2j_9debug_api15DebugApiBackendEENtB2_12EventsModule19claim_rewards_eventCsbv7vZMOU1ip_13delegate_test
FN:22,_RNvXNtCs141FUTAEp3L_14liquid_staking6eventsINtNtNtCsd0DXYhglbat_13multiversx_sc13contract_base22universal_contract_obj20UniversalContractObjINtNtNtNtCs2614o7AVePg_22multiversx_sc_scenario3api7impl_vh12vm_hooks_api10VMHooksApiNtNtB2j_9debug_api15DebugApiBackendEENtB2_12EventsModule22protocol_revenue_eventCsbv7vZMOU1ip_13delegate_test
FN:22,_RNvXNtCs141FUTAEp3L_14liquid_staking6eventsINtNtNtCsd0DXYhglbat_13multiversx_sc13contract_base22universal_contract_obj20UniversalContractObjINtNtNtNtCs2614o7AVePg_22multiversx_sc_scenario3api7impl_vh12vm_hooks_api10VMHooksApiNtNtB2j_9debug_api15DebugApiBackendEENtB2_12EventsModule22remove_liquidity_eventCsbv7vZMOU1ip_13delegate_test
FN:22,_RNvXNtCs141FUTAEp3L_14liquid_staking6eventsINtNtNtCsd0DXYhglbat_13multiversx_sc13contract_base22universal_contract_obj20UniversalContractObjINtNtNtNtCs2614o7AVePg_22multiversx_sc_scenario3api7impl_vh12vm_hooks_api10VMHooksApiNtNtB2j_9debug_api15DebugApiBackendEENtB2_12EventsModule22withdraw_pending_eventCsbv7vZMOU1ip_13delegate_test
FN:22,_RNvXNtCs141FUTAEp3L_14liquid_staking6eventsINtNtNtCsd0DXYhglbat_13multiversx_sc13contract_base22universal_contract_obj20UniversalContractObjINtNtNtNtCs2614o7AVePg_22multiversx_sc_scenario3api7impl_vh12vm_hooks_api10VMHooksApiNtNtB2j_9debug_api15DebugApiBackendEENtB2_12EventsModule23general_liquidity_eventCsbv7vZMOU1ip_13delegate_test
FN:33,_RNvYINtNtNtCsd0DXYhglbat_13multiversx_sc13contract_base22universal_contract_obj20UniversalContractObjINtNtNtNtCs2614o7AVePg_22multiversx_sc_scenario3api7impl_vh12vm_hooks_api10VMHooksApiNtNtB1G_9debug_api15DebugApiBackendEENtNtCs141FUTAEp3L_14liquid_staking6events12EventsModule24emit_add_liquidity_eventCsbv7vZMOU1ip_13delegate_test
FN:85,_RNvYINtNtNtCsd0DXYhglbat_13multiversx_sc13contract_base22universal_contract_obj20UniversalContractObjINtNtNtNtCs2614o7AVePg_22multiversx_sc_scenario3api7impl_vh12vm_hooks_api10VMHooksApiNtNtB1G_9debug_api15DebugApiBackendEENtNtCs141FUTAEp3L_14liquid_staking6events12EventsModule24emit_claim_rewards_eventCsbv7vZMOU1ip_13delegate_test
FN:58,_RNvYINtNtNtCsd0DXYhglbat_13multiversx_sc13contract_base22universal_contract_obj20UniversalContractObjINtNtNtNtCs2614o7AVePg_22multiversx_sc_scenario3api7impl_vh12vm_hooks_api10VMHooksApiNtNtB1G_9debug_api15DebugApiBackendEENtNtCs141FUTAEp3L_14liquid_staking6events12EventsModule27emit_remove_liquidity_eventCsbv7vZMOU1ip_13delegate_test
FN:114,_RNvYINtNtNtCsd0DXYhglbat_13multiversx_sc13contract_base22universal_contract_obj20UniversalContractObjINtNtNtNtCs2614o7AVePg_22multiversx_sc_scenario3api7impl_vh12vm_hooks_api10VMHooksApiNtNtB1G_9debug_api15DebugApiBackendEENtNtCs141FUTAEp3L_14liquid_staking6events12EventsModule27emit_withdraw_pending_eventCsbv7vZMOU1ip_13delegate_test
FN:137,_RNvYINtNtNtCsd0DXYhglbat_13multiversx_sc13contract_base22universal_contract_obj20UniversalContractObjINtNtNtNtCs2614o7AVePg_22multiversx_sc_scenario3api7impl_vh12vm_hooks_api10VMHooksApiNtNtB1G_9debug_api15DebugApiBackendEENtNtCs141FUTAEp3L_14liquid_staking6events12EventsModule28emit_general_liquidity_eventCsbv7vZMOU1ip_13delegate_test
FN:22,_RNvYINtNtNtCsd0DXYhglbat_13multiversx_sc13contract_base22universal_contract_obj20UniversalContractObjINtNtNtNtCs2614o7AVePg_22multiversx_sc_scenario3api7impl_vh12vm_hooks_api10VMHooksApiNtNtB1G_9debug_api15DebugApiBackendEENtNtCs141FUTAEp3L_14liquid_staking6events16EndpointWrappers17callback_selectorCsbv7vZMOU1ip_13delegate_test
FN:22,_RNvYINtNtNtCsd0DXYhglbat_13multiversx_sc13contract_base22universal_contract_obj20UniversalContractObjINtNtNtNtCs2614o7AVePg_22multiversx_sc_scenario3api7impl_vh12vm_hooks_api10VMHooksApiNtNtB1G_9debug_api15DebugApiBackendEENtNtCs141FUTAEp3L_14liquid_staking6events16EndpointWrappers4callCsbv7vZMOU1ip_13delegate_test
FN:22,_RNvYINtNtNtCsd0DXYhglbat_13multiversx_sc13contract_base22universal_contract_obj20UniversalContractObjINtNtNtNtCs2614o7AVePg_22multiversx_sc_scenario3api7impl_vh12vm_hooks_api10VMHooksApiNtNtB1G_9debug_api15DebugApiBackendEENtNtCs141FUTAEp3L_14liquid_staking6events16EndpointWrappers8callbackCsbv7vZMOU1ip_13delegate_test
FN:6,_RINvXININtCs2edAa8LGkSL_14liquid_staking6eventssg_0pEINtB6_20ChangeLiquidityEventpENtNtNtCscdsapSSZlNS_19multiversx_sc_codec6single6top_en9TopEncode24top_encode_or_handle_errppEB8_
FN:5,_RNvXININtCs2edAa8LGkSL_14liquid_staking6eventssf_0pEINtB5_20ChangeLiquidityEventpENtNtNtCsd0DXYhglbat_13multiversx_sc3abi8type_abi7TypeAbi9type_nameB7_
FN:5,_RINvXININtCs2edAa8LGkSL_14liquid_staking6eventssf_0pEINtB6_20ChangeLiquidityEventpENtNtNtCsd0DXYhglbat_13multiversx_sc3abi8type_abi7TypeAbi25provide_type_descriptionspEB8_
FN:33,_RNvYpNtNtCs2edAa8LGkSL_14liquid_staking6events12EventsModule24emit_add_liquidity_eventB7_
FN:58,_RNvYpNtNtCs2edAa8LGkSL_14liquid_staking6events12EventsModule27emit_remove_liquidity_eventB7_
FN:85,_RNvYpNtNtCs2edAa8LGkSL_14liquid_staking6events12EventsModule24emit_claim_rewards_eventB7_
FN:114,_RNvYpNtNtCs2edAa8LGkSL_14liquid_staking6events12EventsModule27emit_withdraw_pending_eventB7_
FN:137,_RNvYpNtNtCs2edAa8LGkSL_14liquid_staking6events12EventsModule28emit_general_liquidity_eventB7_
FN:22,_RNvXININtCs2edAa8LGkSL_14liquid_staking6events0pEpNtB5_12EventsModule19add_liquidity_eventB7_
FN:22,_RNvXININtCs2edAa8LGkSL_14liquid_staking6events0pEpNtB5_12EventsModule22remove_liquidity_eventB7_
FN:22,_RNvXININtCs2edAa8LGkSL_14liquid_staking6events0pEpNtB5_12EventsModule22withdraw_pending_eventB7_
FN:22,_RNvXININtCs2edAa8LGkSL_14liquid_staking6events0pEpNtB5_12EventsModule19claim_rewards_eventB7_
FN:22,_RNvXININtCs2edAa8LGkSL_14liquid_staking6events0pEpNtB5_12EventsModule22protocol_revenue_eventB7_
FN:22,_RNvXININtCs2edAa8LGkSL_14liquid_staking6events0pEpNtB5_12EventsModule23general_liquidity_eventB7_
FN:22,_RNvYpNtNtCs2edAa8LGkSL_14liquid_staking6events16EndpointWrappers4callB7_
FN:22,_RNvYpNtNtCs2edAa8LGkSL_14liquid_staking6events16EndpointWrappers17callback_selectorB7_
FN:22,_RNvYpNtNtCs2edAa8LGkSL_14liquid_staking6events16EndpointWrappers8callbackB7_
FN:22,_RNvXs1_NtCs2edAa8LGkSL_14liquid_staking6eventsNtB5_11AbiProviderNtNtNtCsd0DXYhglbat_13multiversx_sc13contract_base21contract_abi_provider19ContractAbiProvider3abi
FN:22,_RNvXININtCs2edAa8LGkSL_14liquid_staking6eventssb_0pEINtB5_11ContractObjpENtNtNtCsd0DXYhglbat_13multiversx_sc13contract_base17callable_contract16CallableContract4callB7_
FN:22,_RINvNtCs2edAa8LGkSL_14liquid_staking6events12contract_objpEB4_
FN:22,_RINvXsc_NtCs2edAa8LGkSL_14liquid_staking6eventsNtB6_15ContractBuilderNtNtNtCsd0DXYhglbat_13multiversx_sc13contract_base17callable_contract23CallableContractBuilder16new_contract_objpEB8_
FN:22,_RNvXNtCs141FUTAEp3L_14liquid_staking6eventsINtNtNtCsd0DXYhglbat_13multiversx_sc13contract_base22universal_contract_obj20UniversalContractObjINtNtNtNtCs2614o7AVePg_22multiversx_sc_scenario3api7impl_vh12vm_hooks_api10VMHooksApiNtNtB2j_9debug_api15DebugApiBackendEENtB2_12EventsModule19add_liquidity_eventCs25HLPETZpNm_4test
FN:22,_RNvXNtCs141FUTAEp3L_14liquid_staking6eventsINtNtNtCsd0DXYhglbat_13multiversx_sc13contract_base22universal_contract_obj20UniversalContractObjINtNtNtNtCs2614o7AVePg_22multiversx_sc_scenario3api7impl_vh12vm_hooks_api10VMHooksApiNtNtB2j_9debug_api15DebugApiBackendEENtB2_12EventsModule19claim_rewards_eventCs25HLPETZpNm_4test
FN:22,_RNvXNtCs141FUTAEp3L_14liquid_staking6eventsINtNtNtCsd0DXYhglbat_13multiversx_sc13contract_base22universal_contract_obj20UniversalContractObjINtNtNtNtCs2614o7AVePg_22multiversx_sc_scenario3api7impl_vh12vm_hooks_api10VMHooksApiNtNtB2j_9debug_api15DebugApiBackendEENtB2_12EventsModule22protocol_revenue_eventCs25HLPETZpNm_4test
FN:22,_RNvXNtCs141FUTAEp3L_14liquid_staking6eventsINtNtNtCsd0DXYhglbat_13multiversx_sc13contract_base22universal_contract_obj20UniversalContractObjINtNtNtNtCs2614o7AVePg_22multiversx_sc_scenario3api7impl_vh12vm_hooks_api10VMHooksApiNtNtB2j_9debug_api15DebugApiBackendEENtB2_12EventsModule22remove_liquidity_eventCs25HLPETZpNm_4test
FN:22,_RNvXNtCs141FUTAEp3L_14liquid_staking6eventsINtNtNtCsd0DXYhglbat_13multiversx_sc13contract_base22universal_contract_obj20UniversalContractObjINtNtNtNtCs2614o7AVePg_22multiversx_sc_scenario3api7impl_vh12vm_hooks_api10VMHooksApiNtNtB2j_9debug_api15DebugApiBackendEENtB2_12EventsModule22withdraw_pending_eventCs25HLPETZpNm_4test
FN:22,_RNvXNtCs141FUTAEp3L_14liquid_staking6eventsINtNtNtCsd0DXYhglbat_13multiversx_sc13contract_base22universal_contract_obj20UniversalContractObjINtNtNtNtCs2614o7AVePg_22multiversx_sc_scenario3api7impl_vh12vm_hooks_api10VMHooksApiNtNtB2j_9debug_api15DebugApiBackendEENtB2_12EventsModule23general_liquidity_eventCs25HLPETZpNm_4test
FN:33,_RNvYINtNtNtCsd0DXYhglbat_13multiversx_sc13contract_base22universal_contract_obj20UniversalContractObjINtNtNtNtCs2614o7AVePg_22multiversx_sc_scenario3api7impl_vh12vm_hooks_api10VMHooksApiNtNtB1G_9debug_api15DebugApiBackendEENtNtCs141FUTAEp3L_14liquid_staking6events12EventsModule24emit_add_liquidity_eventCs25HLPETZpNm_4test
FN:85,_RNvYINtNtNtCsd0DXYhglbat_13multiversx_sc13contract_base22universal_contract_obj20UniversalContractObjINtNtNtNtCs2614o7AVePg_22multiversx_sc_scenario3api7impl_vh12vm_hooks_api10VMHooksApiNtNtB1G_9debug_api15DebugApiBackendEENtNtCs141FUTAEp3L_14liquid_staking6events12EventsModule24emit_claim_rewards_eventCs25HLPETZpNm_4test
FN:58,_RNvYINtNtNtCsd0DXYhglbat_13multiversx_sc13contract_base22universal_contract_obj20UniversalContractObjINtNtNtNtCs2614o7AVePg_22multiversx_sc_scenario3api7impl_vh12vm_hooks_api10VMHooksApiNtNtB1G_9debug_api15DebugApiBackendEENtNtCs141FUTAEp3L_14liquid_staking6events12EventsModule27emit_remove_liquidity_eventCs25HLPETZpNm_4test
FN:114,_RNvYINtNtNtCsd0DXYhglbat_13multiversx_sc13contract_base22universal_contract_obj20UniversalContractObjINtNtNtNtCs2614o7AVePg_22multiversx_sc_scenario3api7impl_vh12vm_hooks_api10VMHooksApiNtNtB1G_9debug_api15DebugApiBackendEENtNtCs141FUTAEp3L_14liquid_staking6events12EventsModule27emit_withdraw_pending_eventCs25HLPETZpNm_4test
FN:137,_RNvYINtNtNtCsd0DXYhglbat_13multiversx_sc13contract_base22universal_contract_obj20UniversalContractObjINtNtNtNtCs2614o7AVePg_22multiversx_sc_scenario3api7impl_vh12vm_hooks_api10VMHooksApiNtNtB1G_9debug_api15DebugApiBackendEENtNtCs141FUTAEp3L_14liquid_staking6events12EventsModule28emit_general_liquidity_eventCs25HLPETZpNm_4test
FN:22,_RNvYINtNtNtCsd0DXYhglbat_13multiversx_sc13contract_base22universal_contract_obj20UniversalContractObjINtNtNtNtCs2614o7AVePg_22multiversx_sc_scenario3api7impl_vh12vm_hooks_api10VMHooksApiNtNtB1G_9debug_api15DebugApiBackendEENtNtCs141FUTAEp3L_14liquid_staking6events16EndpointWrappers17callback_selectorCs25HLPETZpNm_4test
FN:22,_RNvYINtNtNtCsd0DXYhglbat_13multiversx_sc13contract_base22universal_contract_obj20UniversalContractObjINtNtNtNtCs2614o7AVePg_22multiversx_sc_scenario3api7impl_vh12vm_hooks_api10VMHooksApiNtNtB1G_9debug_api15DebugApiBackendEENtNtCs141FUTAEp3L_14liquid_staking6events16EndpointWrappers4callCs25HLPETZpNm_4test
FN:22,_RNvYINtNtNtCsd0DXYhglbat_13multiversx_sc13contract_base22universal_contract_obj20UniversalContractObjINtNtNtNtCs2614o7AVePg_22multiversx_sc_scenario3api7impl_vh12vm_hooks_api10VMHooksApiNtNtB1G_9debug_api15DebugApiBackendEENtNtCs141FUTAEp3L_14liquid_staking6events16EndpointWrappers8callbackCs25HLPETZpNm_4test
FN:6,_RINvXsg_NtCs141FUTAEp3L_14liquid_staking6eventsINtB6_20ChangeLiquidityEventINtNtNtNtCs2614o7AVePg_22multiversx_sc_scenario3api7impl_vh12vm_hooks_api10VMHooksApiNtNtB1g_9debug_api15DebugApiBackendEENtNtNtCscdsapSSZlNS_19multiversx_sc_codec6single6top_en9TopEncode24top_encode_or_handle_errQINtNtNtNtNtCsd0DXYhglbat_13multiversx_sc5types7managed5basic14managed_buffer13ManagedBufferB1b_EINtNtNtNtB4O_13contract_base8wrappers10serializer21ExitCodecErrorHandlerB1b_EECs25HLPETZpNm_4test
FN:22,_RNvXNtCs141FUTAEp3L_14liquid_staking6eventsINtNtNtCsd0DXYhglbat_13multiversx_sc13contract_base22universal_contract_obj20UniversalContractObjINtNtNtNtCs2614o7AVePg_22multiversx_sc_scenario3api7impl_vh12vm_hooks_api10VMHooksApiNtNtB2j_9debug_api15DebugApiBackendEENtB2_12EventsModule19add_liquidity_eventCsgub9DQDg2s9_15unDelegate_test
FN:22,_RNvXNtCs141FUTAEp3L_14liquid_staking6eventsINtNtNtCsd0DXYhglbat_13multiversx_sc13contract_base22universal_contract_obj20UniversalContractObjINtNtNtNtCs2614o7AVePg_22multiversx_sc_scenario3api7impl_vh12vm_hooks_api10VMHooksApiNtNtB2j_9debug_api15DebugApiBackendEENtB2_12EventsModule19claim_rewards_eventCsgub9DQDg2s9_15unDelegate_test
FN:22,_RNvXNtCs141FUTAEp3L_14liquid_staking6eventsINtNtNtCsd0DXYhglbat_13multiversx_sc13contract_base22universal_contract_obj20UniversalContractObjINtNtNtNtCs2614o7AVePg_22multiversx_sc_scenario3api7impl_vh12vm_hooks_api10VMHooksApiNtNtB2j_9debug_api15DebugApiBackendEENtB2_12EventsModule22protocol_revenue_eventCsgub9DQDg2s9_15unDelegate_test
FN:22,_RNvXNtCs141FUTAEp3L_14liquid_staking6eventsINtNtNtCsd0DXYhglbat_13multiversx_sc13contract_base22universal_contract_obj20UniversalContractObjINtNtNtNtCs2614o7AVePg_22multiversx_sc_scenario3api7impl_vh12vm_hooks_api10VMHooksApiNtNtB2j_9debug_api15DebugApiBackendEENtB2_12EventsModule22remove_liquidity_eventCsgub9DQDg2s9_15unDelegate_test
FN:22,_RNvXNtCs141FUTAEp3L_14liquid_staking6eventsINtNtNtCsd0DXYhglbat_13multiversx_sc13contract_base22universal_contract_obj20UniversalContractObjINtNtNtNtCs2614o7AVePg_22multiversx_sc_scenario3api7impl_vh12vm_hooks_api10VMHooksApiNtNtB2j_9debug_api15DebugApiBackendEENtB2_12EventsModule22withdraw_pending_eventCsgub9DQDg2s9_15unDelegate_test
FN:22,_RNvXNtCs141FUTAEp3L_14liquid_staking6eventsINtNtNtCsd0DXYhglbat_13multiversx_sc13contract_base22universal_contract_obj20UniversalContractObjINtNtNtNtCs2614o7AVePg_22multiversx_sc_scenario3api7impl_vh12vm_hooks_api10VMHooksApiNtNtB2j_9debug_api15DebugApiBackendEENtB2_12EventsModule23general_liquidity_eventCsgub9DQDg2s9_15unDelegate_test
FN:33,_RNvYINtNtNtCsd0DXYhglbat_13multiversx_sc13contract_base22universal_contract_obj20UniversalContractObjINtNtNtNtCs2614o7AVePg_22multiversx_sc_scenario3api7impl_vh12vm_hooks_api10VMHooksApiNtNtB1G_9debug_api15DebugApiBackendEENtNtCs141FUTAEp3L_14liquid_staking6events12EventsModule24emit_add_liquidity_eventCsgub9DQDg2s9_15unDelegate_test
FN:85,_RNvYINtNtNtCsd0DXYhglbat_13multiversx_sc13contract_base22universal_contract_obj20UniversalContractObjINtNtNtNtCs2614o7AVePg_22multiversx_sc_scenario3api7impl_vh12vm_hooks_api10VMHooksApiNtNtB1G_9debug_api15DebugApiBackendEENtNtCs141FUTAEp3L_14liquid_staking6events12EventsModule24emit_claim_rewards_eventCsgub9DQDg2s9_15unDelegate_test
FN:58,_RNvYINtNtNtCsd0DXYhglbat_13multiversx_sc13contract_base22universal_contract_obj20UniversalContractObjINtNtNtNtCs2614o7AVePg_22multiversx_sc_scenario3api7impl_vh12vm_hooks_api10VMHooksApiNtNtB1G_9debug_api15DebugApiBackendEENtNtCs141FUTAEp3L_14liquid_staking6events12EventsModule27emit_remove_liquidity_eventCsgub9DQDg2s9_15unDelegate_test
FN:114,_RNvYINtNtNtCsd0DXYhglbat_13multiversx_sc13contract_base22universal_contract_obj20UniversalContractObjINtNtNtNtCs2614o7AVePg_22multiversx_sc_scenario3api7impl_vh12vm_hooks_api10VMHooksApiNtNtB1G_9debug_api15DebugApiBackendEENtNtCs141FUTAEp3L_14liquid_staking6events12EventsModule27emit_withdraw_pending_eventCsgub9DQDg2s9_15unDelegate_test
FN:137,_RNvYINtNtNtCsd0DXYhglbat_13multiversx_sc13contract_base22universal_contract_obj20UniversalContractObjINtNtNtNtCs2614o7AVePg_22multiversx_sc_scenario3api7impl_vh12vm_hooks_api10VMHooksApiNtNtB1G_9debug_api15DebugApiBackendEENtNtCs141FUTAEp3L_14liquid_staking6events12EventsModule28emit_general_liquidity_eventCsgub9DQDg2s9_15unDelegate_test
FN:22,_RNvYINtNtNtCsd0DXYhglbat_13multiversx_sc13contract_base22universal_contract_obj20UniversalContractObjINtNtNtNtCs2614o7AVePg_22multiversx_sc_scenario3api7impl_vh12vm_hooks_api10VMHooksApiNtNtB1G_9debug_api15DebugApiBackendEENtNtCs141FUTAEp3L_14liquid_staking6events16EndpointWrappers17callback_selectorCsgub9DQDg2s9_15unDelegate_test
FN:22,_RNvYINtNtNtCsd0DXYhglbat_13multiversx_sc13contract_base22universal_contract_obj20UniversalContractObjINtNtNtNtCs2614o7AVePg_22multiversx_sc_scenario3api7impl_vh12vm_hooks_api10VMHooksApiNtNtB1G_9debug_api15DebugApiBackendEENtNtCs141FUTAEp3L_14liquid_staking6events16EndpointWrappers4callCsgub9DQDg2s9_15unDelegate_test
FN:22,_RNvYINtNtNtCsd0DXYhglbat_13multiversx_sc13contract_base22universal_contract_obj20UniversalContractObjINtNtNtNtCs2614o7AVePg_22multiversx_sc_scenario3api7impl_vh12vm_hooks_api10VMHooksApiNtNtB1G_9debug_api15DebugApiBackendEENtNtCs141FUTAEp3L_14liquid_staking6events16EndpointWrappers8callbackCsgub9DQDg2s9_15unDelegate_test
FN:6,_RINvXsg_NtCs141FUTAEp3L_14liquid_staking6eventsINtB6_20ChangeLiquidityEventINtNtNtNtCs2614o7AVePg_22multiversx_sc_scenario3api7impl_vh12vm_hooks_api10VMHooksApiNtNtB1g_9debug_api15DebugApiBackendEENtNtNtCscdsapSSZlNS_19multiversx_sc_codec6single6top_en9TopEncode24top_encode_or_handle_errQINtNtNtNtNtCsd0DXYhglbat_13multiversx_sc5types7managed5basic14managed_buffer13ManagedBufferB1b_EINtNtNtNtB4O_13contract_base8wrappers10serializer21ExitCodecErrorHandlerB1b_EECsgub9DQDg2s9_15unDelegate_test
FN:22,_RNvXNtCs141FUTAEp3L_14liquid_staking6eventsINtNtNtCsd0DXYhglbat_13multiversx_sc13contract_base22universal_contract_obj20UniversalContractObjINtNtNtNtCs2614o7AVePg_22multiversx_sc_scenario3api7impl_vh12vm_hooks_api10VMHooksApiNtNtB2j_9debug_api15DebugApiBackendEENtB2_12EventsModule19add_liquidity_eventCscNyXpV1vtNq_11unbond_test
FN:22,_RNvXNtCs141FUTAEp3L_14liquid_staking6eventsINtNtNtCsd0DXYhglbat_13multiversx_sc13contract_base22universal_contract_obj20UniversalContractObjINtNtNtNtCs2614o7AVePg_22multiversx_sc_scenario3api7impl_vh12vm_hooks_api10VMHooksApiNtNtB2j_9debug_api15DebugApiBackendEENtB2_12EventsModule19claim_rewards_eventCscNyXpV1vtNq_11unbond_test
FN:22,_RNvXNtCs141FUTAEp3L_14liquid_staking6eventsINtNtNtCsd0DXYhglbat_13multiversx_sc13contract_base22universal_contract_obj20UniversalContractObjINtNtNtNtCs2614o7AVePg_22multiversx_sc_scenario3api7impl_vh12vm_hooks_api10VMHooksApiNtNtB2j_9debug_api15DebugApiBackendEENtB2_12EventsModule22protocol_revenue_eventCscNyXpV1vtNq_11unbond_test
FN:22,_RNvXNtCs141FUTAEp3L_14liquid_staking6eventsINtNtNtCsd0DXYhglbat_13multiversx_sc13contract_base22universal_contract_obj20UniversalContractObjINtNtNtNtCs2614o7AVePg_22multiversx_sc_scenario3api7impl_vh12vm_hooks_api10VMHooksApiNtNtB2j_9debug_api15DebugApiBackendEENtB2_12EventsModule22remove_liquidity_eventCscNyXpV1vtNq_11unbond_test
FN:22,_RNvXNtCs141FUTAEp3L_14liquid_staking6eventsINtNtNtCsd0DXYhglbat_13multiversx_sc13contract_base22universal_contract_obj20UniversalContractObjINtNtNtNtCs2614o7AVePg_22multiversx_sc_scenario3api7impl_vh12vm_hooks_api10VMHooksApiNtNtB2j_9debug_api15DebugApiBackendEENtB2_12EventsModule22withdraw_pending_eventCscNyXpV1vtNq_11unbond_test
FN:22,_RNvXNtCs141FUTAEp3L_14liquid_staking6eventsINtNtNtCsd0DXYhglbat_13multiversx_sc13contract_base22universal_contract_obj20UniversalContractObjINtNtNtNtCs2614o7AVePg_22multiversx_sc_scenario3api7impl_vh12vm_hooks_api10VMHooksApiNtNtB2j_9debug_api15DebugApiBackendEENtB2_12EventsModule23general_liquidity_eventCscNyXpV1vtNq_11unbond_test
FN:33,_RNvYINtNtNtCsd0DXYhglbat_13multiversx_sc13contract_base22universal_contract_obj20UniversalContractObjINtNtNtNtCs2614o7AVePg_22multiversx_sc_scenario3api7impl_vh12vm_hooks_api10VMHooksApiNtNtB1G_9debug_api15DebugApiBackendEENtNtCs141FUTAEp3L_14liquid_staking6events12EventsModule24emit_add_liquidity_eventCscNyXpV1vtNq_11unbond_test
FN:85,_RNvYINtNtNtCsd0DXYhglbat_13multiversx_sc13contract_base22universal_contract_obj20UniversalContractObjINtNtNtNtCs2614o7AVePg_22multiversx_sc_scenario3api7impl_vh12vm_hooks_api10VMHooksApiNtNtB1G_9debug_api15DebugApiBackendEENtNtCs141FUTAEp3L_14liquid_staking6events12EventsModule24emit_claim_rewards_eventCscNyXpV1vtNq_11unbond_test
FN:58,_RNvYINtNtNtCsd0DXYhglbat_13multiversx_sc13contract_base22universal_contract_obj20UniversalContractObjINtNtNtNtCs2614o7AVePg_22multiversx_sc_scenario3api7impl_vh12vm_hooks_api10VMHooksApiNtNtB1G_9debug_api15DebugApiBackendEENtNtCs141FUTAEp3L_14liquid_staking6events12EventsModule27emit_remove_liquidity_eventCscNyXpV1vtNq_11unbond_test
FN:114,_RNvYINtNtNtCsd0DXYhglbat_13multiversx_sc13contract_base22universal_contract_obj20UniversalContractObjINtNtNtNtCs2614o7AVePg_22multiversx_sc_scenario3api7impl_vh12vm_hooks_api10VMHooksApiNtNtB1G_9debug_api15DebugApiBackendEENtNtCs141FUTAEp3L_14liquid_staking6events12EventsModule27emit_withdraw_pending_eventCscNyXpV1vtNq_11unbond_test
FN:137,_RNvYINtNtNtCsd0DXYhglbat_13multiversx_sc13contract_base22universal_contract_obj20UniversalContractObjINtNtNtNtCs2614o7AVePg_22multiversx_sc_scenario3api7impl_vh12vm_hooks_api10VMHooksApiNtNtB1G_9debug_api15DebugApiBackendEENtNtCs141FUTAEp3L_14liquid_staking6events12EventsModule28emit_general_liquidity_eventCscNyXpV1vtNq_11unbond_test
FN:22,_RNvYINtNtNtCsd0DXYhglbat_13multiversx_sc13contract_base22universal_contract_obj20UniversalContractObjINtNtNtNtCs2614o7AVePg_22multiversx_sc_scenario3api7impl_vh12vm_hooks_api10VMHooksApiNtNtB1G_9debug_api15DebugApiBackendEENtNtCs141FUTAEp3L_14liquid_staking6events16EndpointWrappers17callback_selectorCscNyXpV1vtNq_11unbond_test
FN:22,_RNvYINtNtNtCsd0DXYhglbat_13multiversx_sc13contract_base22universal_contract_obj20UniversalContractObjINtNtNtNtCs2614o7AVePg_22multiversx_sc_scenario3api7impl_vh12vm_hooks_api10VMHooksApiNtNtB1G_9debug_api15DebugApiBackendEENtNtCs141FUTAEp3L_14liquid_staking6events16EndpointWrappers4callCscNyXpV1vtNq_11unbond_test
FN:22,_RNvYINtNtNtCsd0DXYhglbat_13multiversx_sc13contract_base22universal_contract_obj20UniversalContractObjINtNtNtNtCs2614o7AVePg_22multiversx_sc_scenario3api7impl_vh12vm_hooks_api10VMHooksApiNtNtB1G_9debug_api15DebugApiBackendEENtNtCs141FUTAEp3L_14liquid_staking6events16EndpointWrappers8callbackCscNyXpV1vtNq_11unbond_test
FN:6,_RINvXsg_NtCs141FUTAEp3L_14liquid_staking6eventsINtB6_20ChangeLiquidityEventINtNtNtNtCs2614o7AVePg_22multiversx_sc_scenario3api7impl_vh12vm_hooks_api10VMHooksApiNtNtB1g_9debug_api15DebugApiBackendEENtNtNtCscdsapSSZlNS_19multiversx_sc_codec6single6top_en9TopEncode24top_encode_or_handle_errQINtNtNtNtNtCsd0DXYhglbat_13multiversx_sc5types7managed5basic14managed_buffer13ManagedBufferB1b_EINtNtNtNtB4O_13contract_base8wrappers10serializer21ExitCodecErrorHandlerB1b_EECscNyXpV1vtNq_11unbond_test
FNDA:29,_RINvXsg_NtCs141FUTAEp3L_14liquid_staking6eventsINtB6_20ChangeLiquidityEventINtNtNtNtCs2614o7AVePg_22multiversx_sc_scenario3api7impl_vh12vm_hooks_api10VMHooksApiNtNtB1g_9debug_api15DebugApiBackendEENtNtNtCscdsapSSZlNS_19multiversx_sc_codec6single6top_en9TopEncode24top_encode_or_handle_errQINtNtNtNtNtCsd0DXYhglbat_13multiversx_sc5types7managed5basic14managed_buffer13ManagedBufferB1b_EINtNtNtNtB4O_13contract_base8wrappers10serializer21ExitCodecErrorHandlerB1b_EECsbv7vZMOU1ip_13delegate_test
FNDA:17,_RNvXNtCs141FUTAEp3L_14liquid_staking6eventsINtNtNtCsd0DXYhglbat_13multiversx_sc13contract_base22universal_contract_obj20UniversalContractObjINtNtNtNtCs2614o7AVePg_22multiversx_sc_scenario3api7impl_vh12vm_hooks_api10VMHooksApiNtNtB2j_9debug_api15DebugApiBackendEENtB2_12EventsModule19add_liquidity_eventCsbv7vZMOU1ip_13delegate_test
FNDA:0,_RNvXNtCs141FUTAEp3L_14liquid_staking6eventsINtNtNtCsd0DXYhglbat_13multiversx_sc13contract_base22universal_contract_obj20UniversalContractObjINtNtNtNtCs2614o7AVePg_22multiversx_sc_scenario3api7impl_vh12vm_hooks_api10VMHooksApiNtNtB2j_9debug_api15DebugApiBackendEENtB2_12EventsModule19claim_rewards_eventCsbv7vZMOU1ip_13delegate_test
FNDA:0,_RNvXNtCs141FUTAEp3L_14liquid_staking6eventsINtNtNtCsd0DXYhglbat_13multiversx_sc13contract_base22universal_contract_obj20UniversalContractObjINtNtNtNtCs2614o7AVePg_22multiversx_sc_scenario3api7impl_vh12vm_hooks_api10VMHooksApiNtNtB2j_9debug_api15DebugApiBackendEENtB2_12EventsModule22protocol_revenue_eventCsbv7vZMOU1ip_13delegate_test
FNDA:5,_RNvXNtCs141FUTAEp3L_14liquid_staking6eventsINtNtNtCsd0DXYhglbat_13multiversx_sc13contract_base22universal_contract_obj20UniversalContractObjINtNtNtNtCs2614o7AVePg_22multiversx_sc_scenario3api7impl_vh12vm_hooks_api10VMHooksApiNtNtB2j_9debug_api15DebugApiBackendEENtB2_12EventsModule22remove_liquidity_eventCsbv7vZMOU1ip_13delegate_test
FNDA:0,_RNvXNtCs141FUTAEp3L_14liquid_staking6eventsINtNtNtCsd0DXYhglbat_13multiversx_sc13contract_base22universal_contract_obj20UniversalContractObjINtNtNtNtCs2614o7AVePg_22multiversx_sc_scenario3api7impl_vh12vm_hooks_api10VMHooksApiNtNtB2j_9debug_api15DebugApiBackendEENtB2_12EventsModule22withdraw_pending_eventCsbv7vZMOU1ip_13delegate_test
FNDA:7,_RNvXNtCs141FUTAEp3L_14liquid_staking6eventsINtNtNtCsd0DXYhglbat_13multiversx_sc13contract_base22universal_contract_obj20UniversalContractObjINtNtNtNtCs2614o7AVePg_22multiversx_sc_scenario3api7impl_vh12vm_hooks_api10VMHooksApiNtNtB2j_9debug_api15DebugApiBackendEENtB2_12EventsModule23general_liquidity_eventCsbv7vZMOU1ip_13delegate_test
FNDA:17,_RNvYINtNtNtCsd0DXYhglbat_13multiversx_sc13contract_base22universal_contract_obj20UniversalContractObjINtNtNtNtCs2614o7AVePg_22multiversx_sc_scenario3api7impl_vh12vm_hooks_api10VMHooksApiNtNtB1G_9debug_api15DebugApiBackendEENtNtCs141FUTAEp3L_14liquid_staking6events12EventsModule24emit_add_liquidity_eventCsbv7vZMOU1ip_13delegate_test
FNDA:0,_RNvYINtNtNtCsd0DXYhglbat_13multiversx_sc13contract_base22universal_contract_obj20UniversalContractObjINtNtNtNtCs2614o7AVePg_22multiversx_sc_scenario3api7impl_vh12vm_hooks_api10VMHooksApiNtNtB1G_9debug_api15DebugApiBackendEENtNtCs141FUTAEp3L_14liquid_staking6events12EventsModule24emit_claim_rewards_eventCsbv7vZMOU1ip_13delegate_test
FNDA:5,_RNvYINtNtNtCsd0DXYhglbat_13multiversx_sc13contract_base22universal_contract_obj20UniversalContractObjINtNtNtNtCs2614o7AVePg_22multiversx_sc_scenario3api7impl_vh12vm_hooks_api10VMHooksApiNtNtB1G_9debug_api15DebugApiBackendEENtNtCs141FUTAEp3L_14liquid_staking6events12EventsModule27emit_remove_liquidity_eventCsbv7vZMOU1ip_13delegate_test
FNDA:0,_RNvYINtNtNtCsd0DXYhglbat_13multiversx_sc13contract_base22universal_contract_obj20UniversalContractObjINtNtNtNtCs2614o7AVePg_22multiversx_sc_scenario3api7impl_vh12vm_hooks_api10VMHooksApiNtNtB1G_9debug_api15DebugApiBackendEENtNtCs141FUTAEp3L_14liquid_staking6events12EventsModule27emit_withdraw_pending_eventCsbv7vZMOU1ip_13delegate_test
FNDA:7,_RNvYINtNtNtCsd0DXYhglbat_13multiversx_sc13contract_base22universal_contract_obj20UniversalContractObjINtNtNtNtCs2614o7AVePg_22multiversx_sc_scenario3api7impl_vh12vm_hooks_api10VMHooksApiNtNtB1G_9debug_api15DebugApiBackendEENtNtCs141FUTAEp3L_14liquid_staking6events12EventsModule28emit_general_liquidity_eventCsbv7vZMOU1ip_13delegate_test
FNDA:0,_RNvYINtNtNtCsd0DXYhglbat_13multiversx_sc13contract_base22universal_contract_obj20UniversalContractObjINtNtNtNtCs2614o7AVePg_22multiversx_sc_scenario3api7impl_vh12vm_hooks_api10VMHooksApiNtNtB1G_9debug_api15DebugApiBackendEENtNtCs141FUTAEp3L_14liquid_staking6events16EndpointWrappers17callback_selectorCsbv7vZMOU1ip_13delegate_test
FNDA:106,_RNvYINtNtNtCsd0DXYhglbat_13multiversx_sc13contract_base22universal_contract_obj20UniversalContractObjINtNtNtNtCs2614o7AVePg_22multiversx_sc_scenario3api7impl_vh12vm_hooks_api10VMHooksApiNtNtB1G_9debug_api15DebugApiBackendEENtNtCs141FUTAEp3L_14liquid_staking6events16EndpointWrappers4callCsbv7vZMOU1ip_13delegate_test
FNDA:0,_RNvYINtNtNtCsd0DXYhglbat_13multiversx_sc13contract_base22universal_contract_obj20UniversalContractObjINtNtNtNtCs2614o7AVePg_22multiversx_sc_scenario3api7impl_vh12vm_hooks_api10VMHooksApiNtNtB1G_9debug_api15DebugApiBackendEENtNtCs141FUTAEp3L_14liquid_staking6events16EndpointWrappers8callbackCsbv7vZMOU1ip_13delegate_test
FNDA:0,_RINvXININtCs2edAa8LGkSL_14liquid_staking6eventssg_0pEINtB6_20ChangeLiquidityEventpENtNtNtCscdsapSSZlNS_19multiversx_sc_codec6single6top_en9TopEncode24top_encode_or_handle_errppEB8_
FNDA:0,_RNvXININtCs2edAa8LGkSL_14liquid_staking6eventssf_0pEINtB5_20ChangeLiquidityEventpENtNtNtCsd0DXYhglbat_13multiversx_sc3abi8type_abi7TypeAbi9type_nameB7_
FNDA:0,_RINvXININtCs2edAa8LGkSL_14liquid_staking6eventssf_0pEINtB6_20ChangeLiquidityEventpENtNtNtCsd0DXYhglbat_13multiversx_sc3abi8type_abi7TypeAbi25provide_type_descriptionspEB8_
FNDA:0,_RNvYpNtNtCs2edAa8LGkSL_14liquid_staking6events12EventsModule24emit_add_liquidity_eventB7_
FNDA:0,_RNvYpNtNtCs2edAa8LGkSL_14liquid_staking6events12EventsModule27emit_remove_liquidity_eventB7_
FNDA:0,_RNvYpNtNtCs2edAa8LGkSL_14liquid_staking6events12EventsModule24emit_claim_rewards_eventB7_
FNDA:0,_RNvYpNtNtCs2edAa8LGkSL_14liquid_staking6events12EventsModule27emit_withdraw_pending_eventB7_
FNDA:0,_RNvYpNtNtCs2edAa8LGkSL_14liquid_staking6events12EventsModule28emit_general_liquidity_eventB7_
FNDA:0,_RNvXININtCs2edAa8LGkSL_14liquid_staking6events0pEpNtB5_12EventsModule19add_liquidity_eventB7_
FNDA:0,_RNvXININtCs2edAa8LGkSL_14liquid_staking6events0pEpNtB5_12EventsModule22remove_liquidity_eventB7_
FNDA:0,_RNvXININtCs2edAa8LGkSL_14liquid_staking6events0pEpNtB5_12EventsModule22withdraw_pending_eventB7_
FNDA:0,_RNvXININtCs2edAa8LGkSL_14liquid_staking6events0pEpNtB5_12EventsModule19claim_rewards_eventB7_
FNDA:0,_RNvXININtCs2edAa8LGkSL_14liquid_staking6events0pEpNtB5_12EventsModule22protocol_revenue_eventB7_
FNDA:0,_RNvXININtCs2edAa8LGkSL_14liquid_staking6events0pEpNtB5_12EventsModule23general_liquidity_eventB7_
FNDA:0,_RNvYpNtNtCs2edAa8LGkSL_14liquid_staking6events16EndpointWrappers4callB7_
FNDA:0,_RNvYpNtNtCs2edAa8LGkSL_14liquid_staking6events16EndpointWrappers17callback_selectorB7_
FNDA:0,_RNvYpNtNtCs2edAa8LGkSL_14liquid_staking6events16EndpointWrappers8callbackB7_
FNDA:0,_RNvXs1_NtCs2edAa8LGkSL_14liquid_staking6eventsNtB5_11AbiProviderNtNtNtCsd0DXYhglbat_13multiversx_sc13contract_base21contract_abi_provider19ContractAbiProvider3abi
FNDA:0,_RNvXININtCs2edAa8LGkSL_14liquid_staking6eventssb_0pEINtB5_11ContractObjpENtNtNtCsd0DXYhglbat_13multiversx_sc13contract_base17callable_contract16CallableContract4callB7_
FNDA:0,_RINvNtCs2edAa8LGkSL_14liquid_staking6events12contract_objpEB4_
FNDA:0,_RINvXsc_NtCs2edAa8LGkSL_14liquid_staking6eventsNtB6_15ContractBuilderNtNtNtCsd0DXYhglbat_13multiversx_sc13contract_base17callable_contract23CallableContractBuilder16new_contract_objpEB8_
FNDA:9,_RNvXNtCs141FUTAEp3L_14liquid_staking6eventsINtNtNtCsd0DXYhglbat_13multiversx_sc13contract_base22universal_contract_obj20UniversalContractObjINtNtNtNtCs2614o7AVePg_22multiversx_sc_scenario3api7impl_vh12vm_hooks_api10VMHooksApiNtNtB2j_9debug_api15DebugApiBackendEENtB2_12EventsModule19add_liquidity_eventCs25HLPETZpNm_4test
FNDA:0,_RNvXNtCs141FUTAEp3L_14liquid_staking6eventsINtNtNtCsd0DXYhglbat_13multiversx_sc13contract_base22universal_contract_obj20UniversalContractObjINtNtNtNtCs2614o7AVePg_22multiversx_sc_scenario3api7impl_vh12vm_hooks_api10VMHooksApiNtNtB2j_9debug_api15DebugApiBackendEENtB2_12EventsModule19claim_rewards_eventCs25HLPETZpNm_4test
FNDA:0,_RNvXNtCs141FUTAEp3L_14liquid_staking6eventsINtNtNtCsd0DXYhglbat_13multiversx_sc13contract_base22universal_contract_obj20UniversalContractObjINtNtNtNtCs2614o7AVePg_22multiversx_sc_scenario3api7impl_vh12vm_hooks_api10VMHooksApiNtNtB2j_9debug_api15DebugApiBackendEENtB2_12EventsModule22protocol_revenue_eventCs25HLPETZpNm_4test
FNDA:5,_RNvXNtCs141FUTAEp3L_14liquid_staking6eventsINtNtNtCsd0DXYhglbat_13multiversx_sc13contract_base22universal_contract_obj20UniversalContractObjINtNtNtNtCs2614o7AVePg_22multiversx_sc_scenario3api7impl_vh12vm_hooks_api10VMHooksApiNtNtB2j_9debug_api15DebugApiBackendEENtB2_12EventsModule22remove_liquidity_eventCs25HLPETZpNm_4test
FNDA:2,_RNvXNtCs141FUTAEp3L_14liquid_staking6eventsINtNtNtCsd0DXYhglbat_13multiversx_sc13contract_base22universal_contract_obj20UniversalContractObjINtNtNtNtCs2614o7AVePg_22multiversx_sc_scenario3api7impl_vh12vm_hooks_api10VMHooksApiNtNtB2j_9debug_api15DebugApiBackendEENtB2_12EventsModule22withdraw_pending_eventCs25HLPETZpNm_4test
FNDA:12,_RNvXNtCs141FUTAEp3L_14liquid_staking6eventsINtNtNtCsd0DXYhglbat_13multiversx_sc13contract_base22universal_contract_obj20UniversalContractObjINtNtNtNtCs2614o7AVePg_22multiversx_sc_scenario3api7impl_vh12vm_hooks_api10VMHooksApiNtNtB2j_9debug_api15DebugApiBackendEENtB2_12EventsModule23general_liquidity_eventCs25HLPETZpNm_4test
FNDA:9,_RNvYINtNtNtCsd0DXYhglbat_13multiversx_sc13contract_base22universal_contract_obj20UniversalContractObjINtNtNtNtCs2614o7AVePg_22multiversx_sc_scenario3api7impl_vh12vm_hooks_api10VMHooksApiNtNtB1G_9debug_api15DebugApiBackendEENtNtCs141FUTAEp3L_14liquid_staking6events12EventsModule24emit_add_liquidity_eventCs25HLPETZpNm_4test
FNDA:0,_RNvYINtNtNtCsd0DXYhglbat_13multiversx_sc13contract_base22universal_contract_obj20UniversalContractObjINtNtNtNtCs2614o7AVePg_22multiversx_sc_scenario3api7impl_vh12vm_hooks_api10VMHooksApiNtNtB1G_9debug_api15DebugApiBackendEENtNtCs141FUTAEp3L_14liquid_staking6events12EventsModule24emit_claim_rewards_eventCs25HLPETZpNm_4test
FNDA:5,_RNvYINtNtNtCsd0DXYhglbat_13multiversx_sc13contract_base22universal_contract_obj20UniversalContractObjINtNtNtNtCs2614o7AVePg_22multiversx_sc_scenario3api7impl_vh12vm_hooks_api10VMHooksApiNtNtB1G_9debug_api15DebugApiBackendEENtNtCs141FUTAEp3L_14liquid_staking6events12EventsModule27emit_remove_liquidity_eventCs25HLPETZpNm_4test
FNDA:2,_RNvYINtNtNtCsd0DXYhglbat_13multiversx_sc13contract_base22universal_contract_obj20UniversalContractObjINtNtNtNtCs2614o7AVePg_22multiversx_sc_scenario3api7impl_vh12vm_hooks_api10VMHooksApiNtNtB1G_9debug_api15DebugApiBackendEENtNtCs141FUTAEp3L_14liquid_staking6events12EventsModule27emit_withdraw_pending_eventCs25HLPETZpNm_4test
FNDA:12,_RNvYINtNtNtCsd0DXYhglbat_13multiversx_sc13contract_base22universal_contract_obj20UniversalContractObjINtNtNtNtCs2614o7AVePg_22multiversx_sc_scenario3api7impl_vh12vm_hooks_api10VMHooksApiNtNtB1G_9debug_api15DebugApiBackendEENtNtCs141FUTAEp3L_14liquid_staking6events12EventsModule28emit_general_liquidity_eventCs25HLPETZpNm_4test
FNDA:0,_RNvYINtNtNtCsd0DXYhglbat_13multiversx_sc13contract_base22universal_contract_obj20UniversalContractObjINtNtNtNtCs2614o7AVePg_22multiversx_sc_scenario3api7impl_vh12vm_hooks_api10VMHooksApiNtNtB1G_9debug_api15DebugApiBackendEENtNtCs141FUTAEp3L_14liquid_staking6events16EndpointWrappers17callback_selectorCs25HLPETZpNm_4test
FNDA:104,_RNvYINtNtNtCsd0DXYhglbat_13multiversx_sc13contract_base22universal_contract_obj20UniversalContractObjINtNtNtNtCs2614o7AVePg_22multiversx_sc_scenario3api7impl_vh12vm_hooks_api10VMHooksApiNtNtB1G_9debug_api15DebugApiBackendEENtNtCs141FUTAEp3L_14liquid_staking6events16EndpointWrappers4callCs25HLPETZpNm_4test
FNDA:0,_RNvYINtNtNtCsd0DXYhglbat_13multiversx_sc13contract_base22universal_contract_obj20UniversalContractObjINtNtNtNtCs2614o7AVePg_22multiversx_sc_scenario3api7impl_vh12vm_hooks_api10VMHooksApiNtNtB1G_9debug_api15DebugApiBackendEENtNtCs141FUTAEp3L_14liquid_staking6events16EndpointWrappers8callbackCs25HLPETZpNm_4test
FNDA:28,_RINvXsg_NtCs141FUTAEp3L_14liquid_staking6eventsINtB6_20ChangeLiquidityEventINtNtNtNtCs2614o7AVePg_22multiversx_sc_scenario3api7impl_vh12vm_hooks_api10VMHooksApiNtNtB1g_9debug_api15DebugApiBackendEENtNtNtCscdsapSSZlNS_19multiversx_sc_codec6single6top_en9TopEncode24top_encode_or_handle_errQINtNtNtNtNtCsd0DXYhglbat_13multiversx_sc5types7managed5basic14managed_buffer13ManagedBufferB1b_EINtNtNtNtB4O_13contract_base8wrappers10serializer21ExitCodecErrorHandlerB1b_EECs25HLPETZpNm_4test
FNDA:36,_RNvXNtCs141FUTAEp3L_14liquid_staking6eventsINtNtNtCsd0DXYhglbat_13multiversx_sc13contract_base22universal_contract_obj20UniversalContractObjINtNtNtNtCs2614o7AVePg_22multiversx_sc_scenario3api7impl_vh12vm_hooks_api10VMHooksApiNtNtB2j_9debug_api15DebugApiBackendEENtB2_12EventsModule19add_liquidity_eventCsgub9DQDg2s9_15unDelegate_test
FNDA:0,_RNvXNtCs141FUTAEp3L_14liquid_staking6eventsINtNtNtCsd0DXYhglbat_13multiversx_sc13contract_base22universal_contract_obj20UniversalContractObjINtNtNtNtCs2614o7AVePg_22multiversx_sc_scenario3api7impl_vh12vm_hooks_api10VMHooksApiNtNtB2j_9debug_api15DebugApiBackendEENtB2_12EventsModule19claim_rewards_eventCsgub9DQDg2s9_15unDelegate_test
FNDA:0,_RNvXNtCs141FUTAEp3L_14liquid_staking6eventsINtNtNtCsd0DXYhglbat_13multiversx_sc13contract_base22universal_contract_obj20UniversalContractObjINtNtNtNtCs2614o7AVePg_22multiversx_sc_scenario3api7impl_vh12vm_hooks_api10VMHooksApiNtNtB2j_9debug_api15DebugApiBackendEENtB2_12EventsModule22protocol_revenue_eventCsgub9DQDg2s9_15unDelegate_test
FNDA:19,_RNvXNtCs141FUTAEp3L_14liquid_staking6eventsINtNtNtCsd0DXYhglbat_13multiversx_sc13contract_base22universal_contract_obj20UniversalContractObjINtNtNtNtCs2614o7AVePg_22multiversx_sc_scenario3api7impl_vh12vm_hooks_api10VMHooksApiNtNtB2j_9debug_api15DebugApiBackendEENtB2_12EventsModule22remove_liquidity_eventCsgub9DQDg2s9_15unDelegate_test
FNDA:0,_RNvXNtCs141FUTAEp3L_14liquid_staking6eventsINtNtNtCsd0DXYhglbat_13multiversx_sc13contract_base22universal_contract_obj20UniversalContractObjINtNtNtNtCs2614o7AVePg_22multiversx_sc_scenario3api7impl_vh12vm_hooks_api10VMHooksApiNtNtB2j_9debug_api15DebugApiBackendEENtB2_12EventsModule22withdraw_pending_eventCsgub9DQDg2s9_15unDelegate_test
FNDA:131,_RNvXNtCs141FUTAEp3L_14liquid_staking6eventsINtNtNtCsd0DXYhglbat_13multiversx_sc13contract_base22universal_contract_obj20UniversalContractObjINtNtNtNtCs2614o7AVePg_22multiversx_sc_scenario3api7impl_vh12vm_hooks_api10VMHooksApiNtNtB2j_9debug_api15DebugApiBackendEENtB2_12EventsModule23general_liquidity_eventCsgub9DQDg2s9_15unDelegate_test
FNDA:36,_RNvYINtNtNtCsd0DXYhglbat_13multiversx_sc13contract_base22universal_contract_obj20UniversalContractObjINtNtNtNtCs2614o7AVePg_22multiversx_sc_scenario3api7impl_vh12vm_hooks_api10VMHooksApiNtNtB1G_9debug_api15DebugApiBackendEENtNtCs141FUTAEp3L_14liquid_staking6events12EventsModule24emit_add_liquidity_eventCsgub9DQDg2s9_15unDelegate_test
FNDA:0,_RNvYINtNtNtCsd0DXYhglbat_13multiversx_sc13contract_base22universal_contract_obj20UniversalContractObjINtNtNtNtCs2614o7AVePg_22multiversx_sc_scenario3api7impl_vh12vm_hooks_api10VMHooksApiNtNtB1G_9debug_api15DebugApiBackendEENtNtCs141FUTAEp3L_14liquid_staking6events12EventsModule24emit_claim_rewards_eventCsgub9DQDg2s9_15unDelegate_test
FNDA:19,_RNvYINtNtNtCsd0DXYhglbat_13multiversx_sc13contract_base22universal_contract_obj20UniversalContractObjINtNtNtNtCs2614o7AVePg_22multiversx_sc_scenario3api7impl_vh12vm_hooks_api10VMHooksApiNtNtB1G_9debug_api15DebugApiBackendEENtNtCs141FUTAEp3L_14liquid_staking6events12EventsModule27emit_remove_liquidity_eventCsgub9DQDg2s9_15unDelegate_test
FNDA:0,_RNvYINtNtNtCsd0DXYhglbat_13multiversx_sc13contract_base22universal_contract_obj20UniversalContractObjINtNtNtNtCs2614o7AVePg_22multiversx_sc_scenario3api7impl_vh12vm_hooks_api10VMHooksApiNtNtB1G_9debug_api15DebugApiBackendEENtNtCs141FUTAEp3L_14liquid_staking6events12EventsModule27emit_withdraw_pending_eventCsgub9DQDg2s9_15unDelegate_test
FNDA:131,_RNvYINtNtNtCsd0DXYhglbat_13multiversx_sc13contract_base22universal_contract_obj20UniversalContractObjINtNtNtNtCs2614o7AVePg_22multiversx_sc_scenario3api7impl_vh12vm_hooks_api10VMHooksApiNtNtB1G_9debug_api15DebugApiBackendEENtNtCs141FUTAEp3L_14liquid_staking6events12EventsModule28emit_general_liquidity_eventCsgub9DQDg2s9_15unDelegate_test
FNDA:0,_RNvYINtNtNtCsd0DXYhglbat_13multiversx_sc13contract_base22universal_contract_obj20UniversalContractObjINtNtNtNtCs2614o7AVePg_22multiversx_sc_scenario3api7impl_vh12vm_hooks_api10VMHooksApiNtNtB1G_9debug_api15DebugApiBackendEENtNtCs141FUTAEp3L_14liquid_staking6events16EndpointWrappers17callback_selectorCsgub9DQDg2s9_15unDelegate_test
FNDA:2850,_RNvYINtNtNtCsd0DXYhglbat_13multiversx_sc13contract_base22universal_contract_obj20UniversalContractObjINtNtNtNtCs2614o7AVePg_22multiversx_sc_scenario3api7impl_vh12vm_hooks_api10VMHooksApiNtNtB1G_9debug_api15DebugApiBackendEENtNtCs141FUTAEp3L_14liquid_staking6events16EndpointWrappers4callCsgub9DQDg2s9_15unDelegate_test
FNDA:0,_RNvYINtNtNtCsd0DXYhglbat_13multiversx_sc13contract_base22universal_contract_obj20UniversalContractObjINtNtNtNtCs2614o7AVePg_22multiversx_sc_scenario3api7impl_vh12vm_hooks_api10VMHooksApiNtNtB1G_9debug_api15DebugApiBackendEENtNtCs141FUTAEp3L_14liquid_staking6events16EndpointWrappers8callbackCsgub9DQDg2s9_15unDelegate_test
FNDA:186,_RINvXsg_NtCs141FUTAEp3L_14liquid_staking6eventsINtB6_20ChangeLiquidityEventINtNtNtNtCs2614o7AVePg_22multiversx_sc_scenario3api7impl_vh12vm_hooks_api10VMHooksApiNtNtB1g_9debug_api15DebugApiBackendEENtNtNtCscdsapSSZlNS_19multiversx_sc_codec6single6top_en9TopEncode24top_encode_or_handle_errQINtNtNtNtNtCsd0DXYhglbat_13multiversx_sc5types7managed5basic14managed_buffer13ManagedBufferB1b_EINtNtNtNtB4O_13contract_base8wrappers10serializer21ExitCodecErrorHandlerB1b_EECsgub9DQDg2s9_15unDelegate_test
FNDA:8,_RNvXNtCs141FUTAEp3L_14liquid_staking6eventsINtNtNtCsd0DXYhglbat_13multiversx_sc13contract_base22universal_contract_obj20UniversalContractObjINtNtNtNtCs2614o7AVePg_22multiversx_sc_scenario3api7impl_vh12vm_hooks_api10VMHooksApiNtNtB2j_9debug_api15DebugApiBackendEENtB2_12EventsModule19add_liquidity_eventCscNyXpV1vtNq_11unbond_test
FNDA:0,_RNvXNtCs141FUTAEp3L_14liquid_staking6eventsINtNtNtCsd0DXYhglbat_13multiversx_sc13contract_base22universal_contract_obj20UniversalContractObjINtNtNtNtCs2614o7AVePg_22multiversx_sc_scenario3api7impl_vh12vm_hooks_api10VMHooksApiNtNtB2j_9debug_api15DebugApiBackendEENtB2_12EventsModule19claim_rewards_eventCscNyXpV1vtNq_11unbond_test
FNDA:0,_RNvXNtCs141FUTAEp3L_14liquid_staking6eventsINtNtNtCsd0DXYhglbat_13multiversx_sc13contract_base22universal_contract_obj20UniversalContractObjINtNtNtNtCs2614o7AVePg_22multiversx_sc_scenario3api7impl_vh12vm_hooks_api10VMHooksApiNtNtB2j_9debug_api15DebugApiBackendEENtB2_12EventsModule22protocol_revenue_eventCscNyXpV1vtNq_11unbond_test
FNDA:8,_RNvXNtCs141FUTAEp3L_14liquid_staking6eventsINtNtNtCsd0DXYhglbat_13multiversx_sc13contract_base22universal_contract_obj20UniversalContractObjINtNtNtNtCs2614o7AVePg_22multiversx_sc_scenario3api7impl_vh12vm_hooks_api10VMHooksApiNtNtB2j_9debug_api15DebugApiBackendEENtB2_12EventsModule22remove_liquidity_eventCscNyXpV1vtNq_11unbond_test
FNDA:5,_RNvXNtCs141FUTAEp3L_14liquid_staking6eventsINtNtNtCsd0DXYhglbat_13multiversx_sc13contract_base22universal_contract_obj20UniversalContractObjINtNtNtNtCs2614o7AVePg_22multiversx_sc_scenario3api7impl_vh12vm_hooks_api10VMHooksApiNtNtB2j_9debug_api15DebugApiBackendEENtB2_12EventsModule22withdraw_pending_eventCscNyXpV1vtNq_11unbond_test
FNDA:23,_RNvXNtCs141FUTAEp3L_14liquid_staking6eventsINtNtNtCsd0DXYhglbat_13multiversx_sc13contract_base22universal_contract_obj20UniversalContractObjINtNtNtNtCs2614o7AVePg_22multiversx_sc_scenario3api7impl_vh12vm_hooks_api10VMHooksApiNtNtB2j_9debug_api15DebugApiBackendEENtB2_12EventsModule23general_liquidity_eventCscNyXpV1vtNq_11unbond_test
FNDA:8,_RNvYINtNtNtCsd0DXYhglbat_13multiversx_sc13contract_base22universal_contract_obj20UniversalContractObjINtNtNtNtCs2614o7AVePg_22multiversx_sc_scenario3api7impl_vh12vm_hooks_api10VMHooksApiNtNtB1G_9debug_api15DebugApiBackendEENtNtCs141FUTAEp3L_14liquid_staking6events12EventsModule24emit_add_liquidity_eventCscNyXpV1vtNq_11unbond_test
FNDA:0,_RNvYINtNtNtCsd0DXYhglbat_13multiversx_sc13contract_base22universal_contract_obj20UniversalContractObjINtNtNtNtCs2614o7AVePg_22multiversx_sc_scenario3api7impl_vh12vm_hooks_api10VMHooksApiNtNtB1G_9debug_api15DebugApiBackendEENtNtCs141FUTAEp3L_14liquid_staking6events12EventsModule24emit_claim_rewards_eventCscNyXpV1vtNq_11unbond_test
FNDA:8,_RNvYINtNtNtCsd0DXYhglbat_13multiversx_sc13contract_base22universal_contract_obj20UniversalContractObjINtNtNtNtCs2614o7AVePg_22multiversx_sc_scenario3api7impl_vh12vm_hooks_api10VMHooksApiNtNtB1G_9debug_api15DebugApiBackendEENtNtCs141FUTAEp3L_14liquid_staking6events12EventsModule27emit_remove_liquidity_eventCscNyXpV1vtNq_11unbond_test
FNDA:5,_RNvYINtNtNtCsd0DXYhglbat_13multiversx_sc13contract_base22universal_contract_obj20UniversalContractObjINtNtNtNtCs2614o7AVePg_22multiversx_sc_scenario3api7impl_vh12vm_hooks_api10VMHooksApiNtNtB1G_9debug_api15DebugApiBackendEENtNtCs141FUTAEp3L_14liquid_staking6events12EventsModule27emit_withdraw_pending_eventCscNyXpV1vtNq_11unbond_test
FNDA:23,_RNvYINtNtNtCsd0DXYhglbat_13multiversx_sc13contract_base22universal_contract_obj20UniversalContractObjINtNtNtNtCs2614o7AVePg_22multiversx_sc_scenario3api7impl_vh12vm_hooks_api10VMHooksApiNtNtB1G_9debug_api15DebugApiBackendEENtNtCs141FUTAEp3L_14liquid_staking6events12EventsModule28emit_general_liquidity_eventCscNyXpV1vtNq_11unbond_test
FNDA:0,_RNvYINtNtNtCsd0DXYhglbat_13multiversx_sc13contract_base22universal_contract_obj20UniversalContractObjINtNtNtNtCs2614o7AVePg_22multiversx_sc_scenario3api7impl_vh12vm_hooks_api10VMHooksApiNtNtB1G_9debug_api15DebugApiBackendEENtNtCs141FUTAEp3L_14liquid_staking6events16EndpointWrappers17callback_selectorCscNyXpV1vtNq_11unbond_test
FNDA:95,_RNvYINtNtNtCsd0DXYhglbat_13multiversx_sc13contract_base22universal_contract_obj20UniversalContractObjINtNtNtNtCs2614o7AVePg_22multiversx_sc_scenario3api7impl_vh12vm_hooks_api10VMHooksApiNtNtB1G_9debug_api15DebugApiBackendEENtNtCs141FUTAEp3L_14liquid_staking6events16EndpointWrappers4callCscNyXpV1vtNq_11unbond_test
FNDA:0,_RNvYINtNtNtCsd0DXYhglbat_13multiversx_sc13contract_base22universal_contract_obj20UniversalContractObjINtNtNtNtCs2614o7AVePg_22multiversx_sc_scenario3api7impl_vh12vm_hooks_api10VMHooksApiNtNtB1G_9debug_api15DebugApiBackendEENtNtCs141FUTAEp3L_14liquid_staking6events16EndpointWrappers8callbackCscNyXpV1vtNq_11unbond_test
FNDA:44,_RINvXsg_NtCs141FUTAEp3L_14liquid_staking6eventsINtB6_20ChangeLiquidityEventINtNtNtNtCs2614o7AVePg_22multiversx_sc_scenario3api7impl_vh12vm_hooks_api10VMHooksApiNtNtB1g_9debug_api15DebugApiBackendEENtNtNtCscdsapSSZlNS_19multiversx_sc_codec6single6top_en9TopEncode24top_encode_or_handle_errQINtNtNtNtNtCsd0DXYhglbat_13multiversx_sc5types7managed5basic14managed_buffer13ManagedBufferB1b_EINtNtNtNtB4O_13contract_base8wrappers10serializer21ExitCodecErrorHandlerB1b_EECscNyXpV1vtNq_11unbond_test
FNF:8
FNH:6
DA:5,0
DA:6,287
DA:22,3155
DA:33,70
DA:34,70
DA:35,70
DA:36,70
DA:37,0
DA:39,70
DA:40,70
DA:41,70
DA:42,70
DA:43,70
DA:44,70
DA:45,70
DA:46,70
DA:47,70
DA:48,70
DA:49,70
DA:50,70
DA:51,70
DA:52,70
DA:53,70
DA:54,70
DA:55,70
DA:58,37
DA:59,37
DA:60,37
DA:61,37
DA:62,37
DA:63,37
DA:64,37
DA:65,37
DA:66,37
DA:67,37
DA:68,37
DA:69,37
DA:70,37
DA:71,37
DA:72,37
DA:73,37
DA:74,37
DA:75,37
DA:76,37
DA:77,37
DA:85,0
DA:86,0
DA:87,0
DA:88,0
DA:89,0
DA:90,0
DA:91,0
DA:92,0
DA:93,0
DA:94,0
DA:95,0
DA:96,0
DA:97,0
DA:98,0
DA:99,0
DA:100,0
DA:101,0
DA:102,0
DA:103,0
DA:104,0
DA:105,0
DA:106,0
DA:114,7
DA:115,7
DA:116,7
DA:117,7
DA:118,7
DA:119,7
DA:120,7
DA:121,7
DA:122,7
DA:123,7
DA:124,7
DA:125,7
DA:126,7
DA:127,7
DA:128,7
DA:129,7
DA:130,7
DA:131,7
DA:132,7
DA:133,7
DA:134,7
DA:137,173
DA:138,173
DA:139,173
DA:140,173
DA:141,173
DA:142,173
DA:143,173
DA:144,173
DA:145,173
DA:146,173
DA:147,173
DA:148,173
DA:149,173
DA:150,173
DA:151,173
DA:152,173
DA:153,173
BRF:0
BRH:0
LF:105
LH:81
end_of_record
SF:/Users/mihaieremia/GitHub/rs-egld-liquid-staking/liquid-staking/src/lib.rs
FN:155,_RNvYINtNtNtCsd0DXYhglbat_13multiversx_sc13contract_base22universal_contract_obj20UniversalContractObjINtNtNtNtCs2614o7AVePg_22multiversx_sc_scenario3api7impl_vh12vm_hooks_api10VMHooksApiNtNtB1G_9debug_api15DebugApiBackendEENtCs141FUTAEp3L_14liquid_staking13LiquidStaking11un_delegateCsbv7vZMOU1ip_13delegate_test
FN:71,_RNvYINtNtNtCsd0DXYhglbat_13multiversx_sc13contract_base22universal_contract_obj20UniversalContractObjINtNtNtNtCs2614o7AVePg_22multiversx_sc_scenario3api7impl_vh12vm_hooks_api10VMHooksApiNtNtB1G_9debug_api15DebugApiBackendEENtCs141FUTAEp3L_14liquid_staking13LiquidStaking4initCsbv7vZMOU1ip_13delegate_test
FN:50,_RNvYINtNtNtCsd0DXYhglbat_13multiversx_sc13contract_base22universal_contract_obj20UniversalContractObjINtNtNtNtCs2614o7AVePg_22multiversx_sc_scenario3api7impl_vh12vm_hooks_api10VMHooksApiNtNtB1G_9debug_api15DebugApiBackendEENtCs141FUTAEp3L_14liquid_staking13LiquidStaking7upgradeCsbv7vZMOU1ip_13delegate_test
FN:98,_RNvYINtNtNtCsd0DXYhglbat_13multiversx_sc13contract_base22universal_contract_obj20UniversalContractObjINtNtNtNtCs2614o7AVePg_22multiversx_sc_scenario3api7impl_vh12vm_hooks_api10VMHooksApiNtNtB1G_9debug_api15DebugApiBackendEENtCs141FUTAEp3L_14liquid_staking13LiquidStaking8delegateCsbv7vZMOU1ip_13delegate_test
FN:176,_RNvYINtNtNtCsd0DXYhglbat_13multiversx_sc13contract_base22universal_contract_obj20UniversalContractObjINtNtNtNtCs2614o7AVePg_22multiversx_sc_scenario3api7impl_vh12vm_hooks_api10VMHooksApiNtNtB1G_9debug_api15DebugApiBackendEENtCs141FUTAEp3L_14liquid_staking13LiquidStaking8withdrawCsbv7vZMOU1ip_13delegate_test
FN:31,_RNvYINtNtNtCsd0DXYhglbat_13multiversx_sc13contract_base22universal_contract_obj20UniversalContractObjINtNtNtNtCs2614o7AVePg_22multiversx_sc_scenario3api7impl_vh12vm_hooks_api10VMHooksApiNtNtB1G_9debug_api15DebugApiBackendEENtCs141FUTAEp3L_14liquid_staking16EndpointWrappers12call_upgradeCsbv7vZMOU1ip_13delegate_test
FN:31,_RNvYINtNtNtCsd0DXYhglbat_13multiversx_sc13contract_base22universal_contract_obj20UniversalContractObjINtNtNtNtCs2614o7AVePg_22multiversx_sc_scenario3api7impl_vh12vm_hooks_api10VMHooksApiNtNtB1G_9debug_api15DebugApiBackendEENtCs141FUTAEp3L_14liquid_staking16EndpointWrappers13call_delegateCsbv7vZMOU1ip_13delegate_test
FN:31,_RNvYINtNtNtCsd0DXYhglbat_13multiversx_sc13contract_base22universal_contract_obj20UniversalContractObjINtNtNtNtCs2614o7AVePg_22multiversx_sc_scenario3api7impl_vh12vm_hooks_api10VMHooksApiNtNtB1G_9debug_api15DebugApiBackendEENtCs141FUTAEp3L_14liquid_staking16EndpointWrappers13call_withdrawCsbv7vZMOU1ip_13delegate_test
FN:31,_RNvYINtNtNtCsd0DXYhglbat_13multiversx_sc13contract_base22universal_contract_obj20UniversalContractObjINtNtNtNtCs2614o7AVePg_22multiversx_sc_scenario3api7impl_vh12vm_hooks_api10VMHooksApiNtNtB1G_9debug_api15DebugApiBackendEENtCs141FUTAEp3L_14liquid_staking16EndpointWrappers16call_un_delegateCsbv7vZMOU1ip_13delegate_test
FN:31,_RNvYINtNtNtCsd0DXYhglbat_13multiversx_sc13contract_base22universal_contract_obj20UniversalContractObjINtNtNtNtCs2614o7AVePg_22multiversx_sc_scenario3api7impl_vh12vm_hooks_api10VMHooksApiNtNtB1G_9debug_api15DebugApiBackendEENtCs141FUTAEp3L_14liquid_staking16EndpointWrappers17callback_selectorCsbv7vZMOU1ip_13delegate_test
FN:31,_RNvYINtNtNtCsd0DXYhglbat_13multiversx_sc13contract_base22universal_contract_obj20UniversalContractObjINtNtNtNtCs2614o7AVePg_22multiversx_sc_scenario3api7impl_vh12vm_hooks_api10VMHooksApiNtNtB1G_9debug_api15DebugApiBackendEENtCs141FUTAEp3L_14liquid_staking16EndpointWrappers4callCsbv7vZMOU1ip_13delegate_test
FN:31,_RNvYINtNtNtCsd0DXYhglbat_13multiversx_sc13contract_base22universal_contract_obj20UniversalContractObjINtNtNtNtCs2614o7AVePg_22multiversx_sc_scenario3api7impl_vh12vm_hooks_api10VMHooksApiNtNtB1G_9debug_api15DebugApiBackendEENtCs141FUTAEp3L_14liquid_staking16EndpointWrappers8callbackCsbv7vZMOU1ip_13delegate_test
FN:31,_RNvYINtNtNtCsd0DXYhglbat_13multiversx_sc13contract_base22universal_contract_obj20UniversalContractObjINtNtNtNtCs2614o7AVePg_22multiversx_sc_scenario3api7impl_vh12vm_hooks_api10VMHooksApiNtNtB1G_9debug_api15DebugApiBackendEENtCs141FUTAEp3L_14liquid_staking16EndpointWrappers9call_initCsbv7vZMOU1ip_13delegate_test
FN:31,_RINvCs141FUTAEp3L_14liquid_staking12contract_objINtNtNtNtCs2614o7AVePg_22multiversx_sc_scenario3api7impl_vh12vm_hooks_api10VMHooksApiNtNtBP_9debug_api15DebugApiBackendEECsbv7vZMOU1ip_13delegate_test
FN:31,_RINvXsA_Cs141FUTAEp3L_14liquid_stakingNtB6_15ContractBuilderNtNtNtCsd0DXYhglbat_13multiversx_sc13contract_base17callable_contract23CallableContractBuilder16new_contract_objINtNtNtNtCs2614o7AVePg_22multiversx_sc_scenario3api7impl_vh12vm_hooks_api10VMHooksApiNtNtB2P_9debug_api15DebugApiBackendEECsbv7vZMOU1ip_13delegate_test
FN:31,_RNvXsz_Cs141FUTAEp3L_14liquid_stakingINtB5_11ContractObjINtNtNtNtCs2614o7AVePg_22multiversx_sc_scenario3api7impl_vh12vm_hooks_api10VMHooksApiNtNtBX_9debug_api15DebugApiBackendEENtNtNtCsd0DXYhglbat_13multiversx_sc13contract_base17callable_contract16CallableContract4callCsbv7vZMOU1ip_13delegate_test
FN:50,_RNvYpNtCs2edAa8LGkSL_14liquid_staking13LiquidStaking7upgradeB5_
FN:71,_RNvYpNtCs2edAa8LGkSL_14liquid_staking13LiquidStaking4initB5_
FN:98,_RNvYpNtCs2edAa8LGkSL_14liquid_staking13LiquidStaking8delegateB5_
FN:155,_RNvYpNtCs2edAa8LGkSL_14liquid_staking13LiquidStaking11un_delegateB5_
FN:176,_RNvYpNtCs2edAa8LGkSL_14liquid_staking13LiquidStaking8withdrawB5_
FN:31,_RNvYpNtCs2edAa8LGkSL_14liquid_staking16EndpointWrappers12call_upgradeB5_
FN:31,_RNvYpNtCs2edAa8LGkSL_14liquid_staking16EndpointWrappers9call_initB5_
FN:31,_RNvYpNtCs2edAa8LGkSL_14liquid_staking16EndpointWrappers13call_delegateB5_
FN:31,_RNvYpNtCs2edAa8LGkSL_14liquid_staking16EndpointWrappers16call_un_delegateB5_
FN:31,_RNvYpNtCs2edAa8LGkSL_14liquid_staking16EndpointWrappers13call_withdrawB5_
FN:31,_RNvYpNtCs2edAa8LGkSL_14liquid_staking16EndpointWrappers4callB5_
FN:31,_RNvYpNtCs2edAa8LGkSL_14liquid_staking16EndpointWrappers17callback_selectorB5_
FN:31,_RNvYpNtCs2edAa8LGkSL_14liquid_staking16EndpointWrappers8callbackB5_
FN:31,_RNvXs1_Cs2edAa8LGkSL_14liquid_stakingNtB5_11AbiProviderNtNtNtCsd0DXYhglbat_13multiversx_sc13contract_base21contract_abi_provider19ContractAbiProvider3abi
FN:31,_RNvXINICs2edAa8LGkSL_14liquid_stakingsz_0pEINtB5_11ContractObjpENtNtNtCsd0DXYhglbat_13multiversx_sc13contract_base17callable_contract16CallableContract4callB5_
FN:31,_RINvCs2edAa8LGkSL_14liquid_staking12contract_objpEB2_
FN:31,_RINvXsA_Cs2edAa8LGkSL_14liquid_stakingNtB6_15ContractBuilderNtNtNtCsd0DXYhglbat_13multiversx_sc13contract_base17callable_contract23CallableContractBuilder16new_contract_objpEB6_
FN:31,_RINvNtCs2edAa8LGkSL_14liquid_staking19___wasm__endpoints__7upgradepEB4_
FN:31,_RINvNtCs2edAa8LGkSL_14liquid_staking19___wasm__endpoints__4initpEB4_
FN:31,_RINvNtCs2edAa8LGkSL_14liquid_staking19___wasm__endpoints__8delegatepEB4_
FN:31,_RINvNtCs2edAa8LGkSL_14liquid_staking19___wasm__endpoints__11un_delegatepEB4_
FN:31,_RINvNtCs2edAa8LGkSL_14liquid_staking19___wasm__endpoints__8withdrawpEB4_
FN:31,_RINvNtCs2edAa8LGkSL_14liquid_staking19___wasm__endpoints__8callBackpEB4_
FN:31,_RNvYpNtCs2edAa8LGkSL_14liquid_staking10ProxyTrait7upgradeB5_
FN:31,_RINvYpNtCs2edAa8LGkSL_14liquid_staking10ProxyTrait4initpppppEB6_
FN:31,_RINvYpNtCs2edAa8LGkSL_14liquid_staking10ProxyTrait8delegatepEB6_
FN:31,_RNvYpNtCs2edAa8LGkSL_14liquid_staking10ProxyTrait11un_delegateB5_
FN:31,_RNvYpNtCs2edAa8LGkSL_14liquid_staking10ProxyTrait8withdrawB5_
FN:31,_RNvXINICs2edAa8LGkSL_14liquid_stakingsB_0pEINtB5_5ProxypENtNtNtCsd0DXYhglbat_13multiversx_sc13contract_base14proxy_obj_base12ProxyObjBase19extract_opt_addressB5_
FN:31,_RNvXINICs2edAa8LGkSL_14liquid_stakingsB_0pEINtB5_5ProxypENtNtNtCsd0DXYhglbat_13multiversx_sc13contract_base14proxy_obj_base12ProxyObjBase16extract_proxy_toB5_
FN:31,_RNvXINICs2edAa8LGkSL_14liquid_stakingsC_0pEINtB5_5ProxypENtNtNtCsd0DXYhglbat_13multiversx_sc13contract_base14proxy_obj_base11ProxyObjNew13new_proxy_objB5_
FN:31,_RNvXINICs2edAa8LGkSL_14liquid_stakingsC_0pEINtB5_5ProxypENtNtNtCsd0DXYhglbat_13multiversx_sc13contract_base14proxy_obj_base11ProxyObjNew8contractB5_
FN:31,_RNvXINICs2edAa8LGkSL_14liquid_stakingsD_0pEINtB5_7ProxyTopENtNtNtCsd0DXYhglbat_13multiversx_sc13contract_base14proxy_obj_base12ProxyObjBase19extract_opt_addressB5_
FN:31,_RNvXINICs2edAa8LGkSL_14liquid_stakingsD_0pEINtB5_7ProxyTopENtNtNtCsd0DXYhglbat_13multiversx_sc13contract_base14proxy_obj_base12ProxyObjBase15extract_addressB5_
FN:31,_RNvXINICs2edAa8LGkSL_14liquid_stakingsD_0pEINtB5_7ProxyTopENtNtNtCsd0DXYhglbat_13multiversx_sc13contract_base14proxy_obj_base12ProxyObjBase16extract_proxy_toB5_
FN:155,_RNvYINtNtNtCsd0DXYhglbat_13multiversx_sc13contract_base22universal_contract_obj20UniversalContractObjINtNtNtNtCs2614o7AVePg_22multiversx_sc_scenario3api7impl_vh12vm_hooks_api10VMHooksApiNtNtB1G_9debug_api15DebugApiBackendEENtCs141FUTAEp3L_14liquid_staking13LiquidStaking11un_delegateCs25HLPETZpNm_4test
FN:71,_RNvYINtNtNtCsd0DXYhglbat_13multiversx_sc13contract_base22universal_contract_obj20UniversalContractObjINtNtNtNtCs2614o7AVePg_22multiversx_sc_scenario3api7impl_vh12vm_hooks_api10VMHooksApiNtNtB1G_9debug_api15DebugApiBackendEENtCs141FUTAEp3L_14liquid_staking13LiquidStaking4initCs25HLPETZpNm_4test
FN:50,_RNvYINtNtNtCsd0DXYhglbat_13multiversx_sc13contract_base22universal_contract_obj20UniversalContractObjINtNtNtNtCs2614o7AVePg_22multiversx_sc_scenario3api7impl_vh12vm_hooks_api10VMHooksApiNtNtB1G_9debug_api15DebugApiBackendEENtCs141FUTAEp3L_14liquid_staking13LiquidStaking7upgradeCs25HLPETZpNm_4test
FN:98,_RNvYINtNtNtCsd0DXYhglbat_13multiversx_sc13contract_base22universal_contract_obj20UniversalContractObjINtNtNtNtCs2614o7AVePg_22multiversx_sc_scenario3api7impl_vh12vm_hooks_api10VMHooksApiNtNtB1G_9debug_api15DebugApiBackendEENtCs141FUTAEp3L_14liquid_staking13LiquidStaking8delegateCs25HLPETZpNm_4test
FN:176,_RNvYINtNtNtCsd0DXYhglbat_13multiversx_sc13contract_base22universal_contract_obj20UniversalContractObjINtNtNtNtCs2614o7AVePg_22multiversx_sc_scenario3api7impl_vh12vm_hooks_api10VMHooksApiNtNtB1G_9debug_api15DebugApiBackendEENtCs141FUTAEp3L_14liquid_staking13LiquidStaking8withdrawCs25HLPETZpNm_4test
FN:31,_RNvYINtNtNtCsd0DXYhglbat_13multiversx_sc13contract_base22universal_contract_obj20UniversalContractObjINtNtNtNtCs2614o7AVePg_22multiversx_sc_scenario3api7impl_vh12vm_hooks_api10VMHooksApiNtNtB1G_9debug_api15DebugApiBackendEENtCs141FUTAEp3L_14liquid_staking16EndpointWrappers12call_upgradeCs25HLPETZpNm_4test
FN:31,_RNvYINtNtNtCsd0DXYhglbat_13multiversx_sc13contract_base22universal_contract_obj20UniversalContractObjINtNtNtNtCs2614o7AVePg_22multiversx_sc_scenario3api7impl_vh12vm_hooks_api10VMHooksApiNtNtB1G_9debug_api15DebugApiBackendEENtCs141FUTAEp3L_14liquid_staking16EndpointWrappers13call_delegateCs25HLPETZpNm_4test
FN:31,_RNvYINtNtNtCsd0DXYhglbat_13multiversx_sc13contract_base22universal_contract_obj20UniversalContractObjINtNtNtNtCs2614o7AVePg_22multiversx_sc_scenario3api7impl_vh12vm_hooks_api10VMHooksApiNtNtB1G_9debug_api15DebugApiBackendEENtCs141FUTAEp3L_14liquid_staking16EndpointWrappers13call_withdrawCs25HLPETZpNm_4test
FN:31,_RNvYINtNtNtCsd0DXYhglbat_13multiversx_sc13contract_base22universal_contract_obj20UniversalContractObjINtNtNtNtCs2614o7AVePg_22multiversx_sc_scenario3api7impl_vh12vm_hooks_api10VMHooksApiNtNtB1G_9debug_api15DebugApiBackendEENtCs141FUTAEp3L_14liquid_staking16EndpointWrappers16call_un_delegateCs25HLPETZpNm_4test
FN:31,_RNvYINtNtNtCsd0DXYhglbat_13multiversx_sc13contract_base22universal_contract_obj20UniversalContractObjINtNtNtNtCs2614o7AVePg_22multiversx_sc_scenario3api7impl_vh12vm_hooks_api10VMHooksApiNtNtB1G_9debug_api15DebugApiBackendEENtCs141FUTAEp3L_14liquid_staking16EndpointWrappers17callback_selectorCs25HLPETZpNm_4test
FN:31,_RNvYINtNtNtCsd0DXYhglbat_13multiversx_sc13contract_base22universal_contract_obj20UniversalContractObjINtNtNtNtCs2614o7AVePg_22multiversx_sc_scenario3api7impl_vh12vm_hooks_api10VMHooksApiNtNtB1G_9debug_api15DebugApiBackendEENtCs141FUTAEp3L_14liquid_staking16EndpointWrappers4callCs25HLPETZpNm_4test
FN:31,_RNvYINtNtNtCsd0DXYhglbat_13multiversx_sc13contract_base22universal_contract_obj20UniversalContractObjINtNtNtNtCs2614o7AVePg_22multiversx_sc_scenario3api7impl_vh12vm_hooks_api10VMHooksApiNtNtB1G_9debug_api15DebugApiBackendEENtCs141FUTAEp3L_14liquid_staking16EndpointWrappers8callbackCs25HLPETZpNm_4test
FN:31,_RNvYINtNtNtCsd0DXYhglbat_13multiversx_sc13contract_base22universal_contract_obj20UniversalContractObjINtNtNtNtCs2614o7AVePg_22multiversx_sc_scenario3api7impl_vh12vm_hooks_api10VMHooksApiNtNtB1G_9debug_api15DebugApiBackendEENtCs141FUTAEp3L_14liquid_staking16EndpointWrappers9call_initCs25HLPETZpNm_4test
FN:31,_RINvCs141FUTAEp3L_14liquid_staking12contract_objINtNtNtNtCs2614o7AVePg_22multiversx_sc_scenario3api7impl_vh12vm_hooks_api10VMHooksApiNtNtBP_9debug_api15DebugApiBackendEECs25HLPETZpNm_4test
FN:31,_RINvXsA_Cs141FUTAEp3L_14liquid_stakingNtB6_15ContractBuilderNtNtNtCsd0DXYhglbat_13multiversx_sc13contract_base17callable_contract23CallableContractBuilder16new_contract_objINtNtNtNtCs2614o7AVePg_22multiversx_sc_scenario3api7impl_vh12vm_hooks_api10VMHooksApiNtNtB2P_9debug_api15DebugApiBackendEECs25HLPETZpNm_4test
FN:31,_RNvXsz_Cs141FUTAEp3L_14liquid_stakingINtB5_11ContractObjINtNtNtNtCs2614o7AVePg_22multiversx_sc_scenario3api7impl_vh12vm_hooks_api10VMHooksApiNtNtBX_9debug_api15DebugApiBackendEENtNtNtCsd0DXYhglbat_13multiversx_sc13contract_base17callable_contract16CallableContract4callCs25HLPETZpNm_4test
FN:31,_RINvCs141FUTAEp3L_14liquid_staking12contract_objINtNtNtNtCs2614o7AVePg_22multiversx_sc_scenario3api7impl_vh12vm_hooks_api10VMHooksApiNtNtBP_9debug_api15DebugApiBackendEECsgub9DQDg2s9_15unDelegate_test
FN:31,_RINvXsA_Cs141FUTAEp3L_14liquid_stakingNtB6_15ContractBuilderNtNtNtCsd0DXYhglbat_13multiversx_sc13contract_base17callable_contract23CallableContractBuilder16new_contract_objINtNtNtNtCs2614o7AVePg_22multiversx_sc_scenario3api7impl_vh12vm_hooks_api10VMHooksApiNtNtB2P_9debug_api15DebugApiBackendEECsgub9DQDg2s9_15unDelegate_test
FN:31,_RNvXsz_Cs141FUTAEp3L_14liquid_stakingINtB5_11ContractObjINtNtNtNtCs2614o7AVePg_22multiversx_sc_scenario3api7impl_vh12vm_hooks_api10VMHooksApiNtNtBX_9debug_api15DebugApiBackendEENtNtNtCsd0DXYhglbat_13multiversx_sc13contract_base17callable_contract16CallableContract4callCsgub9DQDg2s9_15unDelegate_test
FN:155,_RNvYINtNtNtCsd0DXYhglbat_13multiversx_sc13contract_base22universal_contract_obj20UniversalContractObjINtNtNtNtCs2614o7AVePg_22multiversx_sc_scenario3api7impl_vh12vm_hooks_api10VMHooksApiNtNtB1G_9debug_api15DebugApiBackendEENtCs141FUTAEp3L_14liquid_staking13LiquidStaking11un_delegateCsgub9DQDg2s9_15unDelegate_test
FN:71,_RNvYINtNtNtCsd0DXYhglbat_13multiversx_sc13contract_base22universal_contract_obj20UniversalContractObjINtNtNtNtCs2614o7AVePg_22multiversx_sc_scenario3api7impl_vh12vm_hooks_api10VMHooksApiNtNtB1G_9debug_api15DebugApiBackendEENtCs141FUTAEp3L_14liquid_staking13LiquidStaking4initCsgub9DQDg2s9_15unDelegate_test
FN:50,_RNvYINtNtNtCsd0DXYhglbat_13multiversx_sc13contract_base22universal_contract_obj20UniversalContractObjINtNtNtNtCs2614o7AVePg_22multiversx_sc_scenario3api7impl_vh12vm_hooks_api10VMHooksApiNtNtB1G_9debug_api15DebugApiBackendEENtCs141FUTAEp3L_14liquid_staking13LiquidStaking7upgradeCsgub9DQDg2s9_15unDelegate_test
FN:98,_RNvYINtNtNtCsd0DXYhglbat_13multiversx_sc13contract_base22universal_contract_obj20UniversalContractObjINtNtNtNtCs2614o7AVePg_22multiversx_sc_scenario3api7impl_vh12vm_hooks_api10VMHooksApiNtNtB1G_9debug_api15DebugApiBackendEENtCs141FUTAEp3L_14liquid_staking13LiquidStaking8delegateCsgub9DQDg2s9_15unDelegate_test
FN:176,_RNvYINtNtNtCsd0DXYhglbat_13multiversx_sc13contract_base22universal_contract_obj20UniversalContractObjINtNtNtNtCs2614o7AVePg_22multiversx_sc_scenario3api7impl_vh12vm_hooks_api10VMHooksApiNtNtB1G_9debug_api15DebugApiBackendEENtCs141FUTAEp3L_14liquid_staking13LiquidStaking8withdrawCsgub9DQDg2s9_15unDelegate_test
FN:31,_RNvYINtNtNtCsd0DXYhglbat_13multiversx_sc13contract_base22universal_contract_obj20UniversalContractObjINtNtNtNtCs2614o7AVePg_22multiversx_sc_scenario3api7impl_vh12vm_hooks_api10VMHooksApiNtNtB1G_9debug_api15DebugApiBackendEENtCs141FUTAEp3L_14liquid_staking16EndpointWrappers12call_upgradeCsgub9DQDg2s9_15unDelegate_test
FN:31,_RNvYINtNtNtCsd0DXYhglbat_13multiversx_sc13contract_base22universal_contract_obj20UniversalContractObjINtNtNtNtCs2614o7AVePg_22multiversx_sc_scenario3api7impl_vh12vm_hooks_api10VMHooksApiNtNtB1G_9debug_api15DebugApiBackendEENtCs141FUTAEp3L_14liquid_staking16EndpointWrappers13call_delegateCsgub9DQDg2s9_15unDelegate_test
FN:31,_RNvYINtNtNtCsd0DXYhglbat_13multiversx_sc13contract_base22universal_contract_obj20UniversalContractObjINtNtNtNtCs2614o7AVePg_22multiversx_sc_scenario3api7impl_vh12vm_hooks_api10VMHooksApiNtNtB1G_9debug_api15DebugApiBackendEENtCs141FUTAEp3L_14liquid_staking16EndpointWrappers13call_withdrawCsgub9DQDg2s9_15unDelegate_test
FN:31,_RNvYINtNtNtCsd0DXYhglbat_13multiversx_sc13contract_base22universal_contract_obj20UniversalContractObjINtNtNtNtCs2614o7AVePg_22multiversx_sc_scenario3api7impl_vh12vm_hooks_api10VMHooksApiNtNtB1G_9debug_api15DebugApiBackendEENtCs141FUTAEp3L_14liquid_staking16EndpointWrappers16call_un_delegateCsgub9DQDg2s9_15unDelegate_test
FN:31,_RNvYINtNtNtCsd0DXYhglbat_13multiversx_sc13contract_base22universal_contract_obj20UniversalContractObjINtNtNtNtCs2614o7AVePg_22multiversx_sc_scenario3api7impl_vh12vm_hooks_api10VMHooksApiNtNtB1G_9debug_api15DebugApiBackendEENtCs141FUTAEp3L_14liquid_staking16EndpointWrappers17callback_selectorCsgub9DQDg2s9_15unDelegate_test
FN:31,_RNvYINtNtNtCsd0DXYhglbat_13multiversx_sc13contract_base22universal_contract_obj20UniversalContractObjINtNtNtNtCs2614o7AVePg_22multiversx_sc_scenario3api7impl_vh12vm_hooks_api10VMHooksApiNtNtB1G_9debug_api15DebugApiBackendEENtCs141FUTAEp3L_14liquid_staking16EndpointWrappers4callCsgub9DQDg2s9_15unDelegate_test
FN:31,_RNvYINtNtNtCsd0DXYhglbat_13multiversx_sc13contract_base22universal_contract_obj20UniversalContractObjINtNtNtNtCs2614o7AVePg_22multiversx_sc_scenario3api7impl_vh12vm_hooks_api10VMHooksApiNtNtB1G_9debug_api15DebugApiBackendEENtCs141FUTAEp3L_14liquid_staking16EndpointWrappers8callbackCsgub9DQDg2s9_15unDelegate_test
FN:31,_RNvYINtNtNtCsd0DXYhglbat_13multiversx_sc13contract_base22universal_contract_obj20UniversalContractObjINtNtNtNtCs2614o7AVePg_22multiversx_sc_scenario3api7impl_vh12vm_hooks_api10VMHooksApiNtNtB1G_9debug_api15DebugApiBackendEENtCs141FUTAEp3L_14liquid_staking16EndpointWrappers9call_initCsgub9DQDg2s9_15unDelegate_test
FN:155,_RNvYINtNtNtCsd0DXYhglbat_13multiversx_sc13contract_base22universal_contract_obj20UniversalContractObjINtNtNtNtCs2614o7AVePg_22multiversx_sc_scenario3api7impl_vh12vm_hooks_api10VMHooksApiNtNtB1G_9debug_api15DebugApiBackendEENtCs141FUTAEp3L_14liquid_staking13LiquidStaking11un_delegateCscNyXpV1vtNq_11unbond_test
FN:71,_RNvYINtNtNtCsd0DXYhglbat_13multiversx_sc13contract_base22universal_contract_obj20UniversalContractObjINtNtNtNtCs2614o7AVePg_22multiversx_sc_scenario3api7impl_vh12vm_hooks_api10VMHooksApiNtNtB1G_9debug_api15DebugApiBackendEENtCs141FUTAEp3L_14liquid_staking13LiquidStaking4initCscNyXpV1vtNq_11unbond_test
FN:50,_RNvYINtNtNtCsd0DXYhglbat_13multiversx_sc13contract_base22universal_contract_obj20UniversalContractObjINtNtNtNtCs2614o7AVePg_22multiversx_sc_scenario3api7impl_vh12vm_hooks_api10VMHooksApiNtNtB1G_9debug_api15DebugApiBackendEENtCs141FUTAEp3L_14liquid_staking13LiquidStaking7upgradeCscNyXpV1vtNq_11unbond_test
FN:98,_RNvYINtNtNtCsd0DXYhglbat_13multiversx_sc13contract_base22universal_contract_obj20UniversalContractObjINtNtNtNtCs2614o7AVePg_22multiversx_sc_scenario3api7impl_vh12vm_hooks_api10VMHooksApiNtNtB1G_9debug_api15DebugApiBackendEENtCs141FUTAEp3L_14liquid_staking13LiquidStaking8delegateCscNyXpV1vtNq_11unbond_test
FN:176,_RNvYINtNtNtCsd0DXYhglbat_13multiversx_sc13contract_base22universal_contract_obj20UniversalContractObjINtNtNtNtCs2614o7AVePg_22multiversx_sc_scenario3api7impl_vh12vm_hooks_api10VMHooksApiNtNtB1G_9debug_api15DebugApiBackendEENtCs141FUTAEp3L_14liquid_staking13LiquidStaking8withdrawCscNyXpV1vtNq_11unbond_test
FN:31,_RNvYINtNtNtCsd0DXYhglbat_13multiversx_sc13contract_base22universal_contract_obj20UniversalContractObjINtNtNtNtCs2614o7AVePg_22multiversx_sc_scenario3api7impl_vh12vm_hooks_api10VMHooksApiNtNtB1G_9debug_api15DebugApiBackendEENtCs141FUTAEp3L_14liquid_staking16EndpointWrappers12call_upgradeCscNyXpV1vtNq_11unbond_test
FN:31,_RNvYINtNtNtCsd0DXYhglbat_13multiversx_sc13contract_base22universal_contract_obj20UniversalContractObjINtNtNtNtCs2614o7AVePg_22multiversx_sc_scenario3api7impl_vh12vm_hooks_api10VMHooksApiNtNtB1G_9debug_api15DebugApiBackendEENtCs141FUTAEp3L_14liquid_staking16EndpointWrappers13call_delegateCscNyXpV1vtNq_11unbond_test
FN:31,_RNvYINtNtNtCsd0DXYhglbat_13multiversx_sc13contract_base22universal_contract_obj20UniversalContractObjINtNtNtNtCs2614o7AVePg_22multiversx_sc_scenario3api7impl_vh12vm_hooks_api10VMHooksApiNtNtB1G_9debug_api15DebugApiBackendEENtCs141FUTAEp3L_14liquid_staking16EndpointWrappers13call_withdrawCscNyXpV1vtNq_11unbond_test
FN:31,_RNvYINtNtNtCsd0DXYhglbat_13multiversx_sc13contract_base22universal_contract_obj20UniversalContractObjINtNtNtNtCs2614o7AVePg_22multiversx_sc_scenario3api7impl_vh12vm_hooks_api10VMHooksApiNtNtB1G_9debug_api15DebugApiBackendEENtCs141FUTAEp3L_14liquid_staking16EndpointWrappers16call_un_delegateCscNyXpV1vtNq_11unbond_test
FN:31,_RNvYINtNtNtCsd0DXYhglbat_13multiversx_sc13contract_base22universal_contract_obj20UniversalContractObjINtNtNtNtCs2614o7AVePg_22multiversx_sc_scenario3api7impl_vh12vm_hooks_api10VMHooksApiNtNtB1G_9debug_api15DebugApiBackendEENtCs141FUTAEp3L_14liquid_staking16EndpointWrappers17callback_selectorCscNyXpV1vtNq_11unbond_test
FN:31,_RNvYINtNtNtCsd0DXYhglbat_13multiversx_sc13contract_base22universal_contract_obj20UniversalContractObjINtNtNtNtCs2614o7AVePg_22multiversx_sc_scenario3api7impl_vh12vm_hooks_api10VMHooksApiNtNtB1G_9debug_api15DebugApiBackendEENtCs141FUTAEp3L_14liquid_staking16EndpointWrappers4callCscNyXpV1vtNq_11unbond_test
FN:31,_RNvYINtNtNtCsd0DXYhglbat_13multiversx_sc13contract_base22universal_contract_obj20UniversalContractObjINtNtNtNtCs2614o7AVePg_22multiversx_sc_scenario3api7impl_vh12vm_hooks_api10VMHooksApiNtNtB1G_9debug_api15DebugApiBackendEENtCs141FUTAEp3L_14liquid_staking16EndpointWrappers8callbackCscNyXpV1vtNq_11unbond_test
FN:31,_RNvYINtNtNtCsd0DXYhglbat_13multiversx_sc13contract_base22universal_contract_obj20UniversalContractObjINtNtNtNtCs2614o7AVePg_22multiversx_sc_scenario3api7impl_vh12vm_hooks_api10VMHooksApiNtNtB1G_9debug_api15DebugApiBackendEENtCs141FUTAEp3L_14liquid_staking16EndpointWrappers9call_initCscNyXpV1vtNq_11unbond_test
FN:31,_RINvCs141FUTAEp3L_14liquid_staking12contract_objINtNtNtNtCs2614o7AVePg_22multiversx_sc_scenario3api7impl_vh12vm_hooks_api10VMHooksApiNtNtBP_9debug_api15DebugApiBackendEECscNyXpV1vtNq_11unbond_test
FN:31,_RINvXsA_Cs141FUTAEp3L_14liquid_stakingNtB6_15ContractBuilderNtNtNtCsd0DXYhglbat_13multiversx_sc13contract_base17callable_contract23CallableContractBuilder16new_contract_objINtNtNtNtCs2614o7AVePg_22multiversx_sc_scenario3api7impl_vh12vm_hooks_api10VMHooksApiNtNtB2P_9debug_api15DebugApiBackendEECscNyXpV1vtNq_11unbond_test
FN:31,_RNvXsz_Cs141FUTAEp3L_14liquid_stakingINtB5_11ContractObjINtNtNtNtCs2614o7AVePg_22multiversx_sc_scenario3api7impl_vh12vm_hooks_api10VMHooksApiNtNtBX_9debug_api15DebugApiBackendEENtNtNtCsd0DXYhglbat_13multiversx_sc13contract_base17callable_contract16CallableContract4callCscNyXpV1vtNq_11unbond_test
FNDA:5,_RNvYINtNtNtCsd0DXYhglbat_13multiversx_sc13contract_base22universal_contract_obj20UniversalContractObjINtNtNtNtCs2614o7AVePg_22multiversx_sc_scenario3api7impl_vh12vm_hooks_api10VMHooksApiNtNtB1G_9debug_api15DebugApiBackendEENtCs141FUTAEp3L_14liquid_staking13LiquidStaking11un_delegateCsbv7vZMOU1ip_13delegate_test
FNDA:16,_RNvYINtNtNtCsd0DXYhglbat_13multiversx_sc13contract_base22universal_contract_obj20UniversalContractObjINtNtNtNtCs2614o7AVePg_22multiversx_sc_scenario3api7impl_vh12vm_hooks_api10VMHooksApiNtNtB1G_9debug_api15DebugApiBackendEENtCs141FUTAEp3L_14liquid_staking13LiquidStaking4initCsbv7vZMOU1ip_13delegate_test
FNDA:0,_RNvYINtNtNtCsd0DXYhglbat_13multiversx_sc13contract_base22universal_contract_obj20UniversalContractObjINtNtNtNtCs2614o7AVePg_22multiversx_sc_scenario3api7impl_vh12vm_hooks_api10VMHooksApiNtNtB1G_9debug_api15DebugApiBackendEENtCs141FUTAEp3L_14liquid_staking13LiquidStaking7upgradeCsbv7vZMOU1ip_13delegate_test
FNDA:22,_RNvYINtNtNtCsd0DXYhglbat_13multiversx_sc13contract_base22universal_contract_obj20UniversalContractObjINtNtNtNtCs2614o7AVePg_22multiversx_sc_scenario3api7impl_vh12vm_hooks_api10VMHooksApiNtNtB1G_9debug_api15DebugApiBackendEENtCs141FUTAEp3L_14liquid_staking13LiquidStaking8delegateCsbv7vZMOU1ip_13delegate_test
FNDA:0,_RNvYINtNtNtCsd0DXYhglbat_13multiversx_sc13contract_base22universal_contract_obj20UniversalContractObjINtNtNtNtCs2614o7AVePg_22multiversx_sc_scenario3api7impl_vh12vm_hooks_api10VMHooksApiNtNtB1G_9debug_api15DebugApiBackendEENtCs141FUTAEp3L_14liquid_staking13LiquidStaking8withdrawCsbv7vZMOU1ip_13delegate_test
FNDA:0,_RNvYINtNtNtCsd0DXYhglbat_13multiversx_sc13contract_base22universal_contract_obj20UniversalContractObjINtNtNtNtCs2614o7AVePg_22multiversx_sc_scenario3api7impl_vh12vm_hooks_api10VMHooksApiNtNtB1G_9debug_api15DebugApiBackendEENtCs141FUTAEp3L_14liquid_staking16EndpointWrappers12call_upgradeCsbv7vZMOU1ip_13delegate_test
FNDA:22,_RNvYINtNtNtCsd0DXYhglbat_13multiversx_sc13contract_base22universal_contract_obj20UniversalContractObjINtNtNtNtCs2614o7AVePg_22multiversx_sc_scenario3api7impl_vh12vm_hooks_api10VMHooksApiNtNtB1G_9debug_api15DebugApiBackendEENtCs141FUTAEp3L_14liquid_staking16EndpointWrappers13call_delegateCsbv7vZMOU1ip_13delegate_test
FNDA:0,_RNvYINtNtNtCsd0DXYhglbat_13multiversx_sc13contract_base22universal_contract_obj20UniversalContractObjINtNtNtNtCs2614o7AVePg_22multiversx_sc_scenario3api7impl_vh12vm_hooks_api10VMHooksApiNtNtB1G_9debug_api15DebugApiBackendEENtCs141FUTAEp3L_14liquid_staking16EndpointWrappers13call_withdrawCsbv7vZMOU1ip_13delegate_test
FNDA:5,_RNvYINtNtNtCsd0DXYhglbat_13multiversx_sc13contract_base22universal_contract_obj20UniversalContractObjINtNtNtNtCs2614o7AVePg_22multiversx_sc_scenario3api7impl_vh12vm_hooks_api10VMHooksApiNtNtB1G_9debug_api15DebugApiBackendEENtCs141FUTAEp3L_14liquid_staking16EndpointWrappers16call_un_delegateCsbv7vZMOU1ip_13delegate_test
FNDA:0,_RNvYINtNtNtCsd0DXYhglbat_13multiversx_sc13contract_base22universal_contract_obj20UniversalContractObjINtNtNtNtCs2614o7AVePg_22multiversx_sc_scenario3api7impl_vh12vm_hooks_api10VMHooksApiNtNtB1G_9debug_api15DebugApiBackendEENtCs141FUTAEp3L_14liquid_staking16EndpointWrappers17callback_selectorCsbv7vZMOU1ip_13delegate_test
FNDA:185,_RNvYINtNtNtCsd0DXYhglbat_13multiversx_sc13contract_base22universal_contract_obj20UniversalContractObjINtNtNtNtCs2614o7AVePg_22multiversx_sc_scenario3api7impl_vh12vm_hooks_api10VMHooksApiNtNtB1G_9debug_api15DebugApiBackendEENtCs141FUTAEp3L_14liquid_staking16EndpointWrappers4callCsbv7vZMOU1ip_13delegate_test
FNDA:0,_RNvYINtNtNtCsd0DXYhglbat_13multiversx_sc13contract_base22universal_contract_obj20UniversalContractObjINtNtNtNtCs2614o7AVePg_22multiversx_sc_scenario3api7impl_vh12vm_hooks_api10VMHooksApiNtNtB1G_9debug_api15DebugApiBackendEENtCs141FUTAEp3L_14liquid_staking16EndpointWrappers8callbackCsbv7vZMOU1ip_13delegate_test
FNDA:16,_RNvYINtNtNtCsd0DXYhglbat_13multiversx_sc13contract_base22universal_contract_obj20UniversalContractObjINtNtNtNtCs2614o7AVePg_22multiversx_sc_scenario3api7impl_vh12vm_hooks_api10VMHooksApiNtNtB1G_9debug_api15DebugApiBackendEENtCs141FUTAEp3L_14liquid_staking16EndpointWrappers9call_initCsbv7vZMOU1ip_13delegate_test
FNDA:32,_RINvCs141FUTAEp3L_14liquid_staking12contract_objINtNtNtNtCs2614o7AVePg_22multiversx_sc_scenario3api7impl_vh12vm_hooks_api10VMHooksApiNtNtBP_9debug_api15DebugApiBackendEECsbv7vZMOU1ip_13delegate_test
FNDA:16,_RINvXsA_Cs141FUTAEp3L_14liquid_stakingNtB6_15ContractBuilderNtNtNtCsd0DXYhglbat_13multiversx_sc13contract_base17callable_contract23CallableContractBuilder16new_contract_objINtNtNtNtCs2614o7AVePg_22multiversx_sc_scenario3api7impl_vh12vm_hooks_api10VMHooksApiNtNtB2P_9debug_api15DebugApiBackendEECsbv7vZMOU1ip_13delegate_test
FNDA:185,_RNvXsz_Cs141FUTAEp3L_14liquid_stakingINtB5_11ContractObjINtNtNtNtCs2614o7AVePg_22multiversx_sc_scenario3api7impl_vh12vm_hooks_api10VMHooksApiNtNtBX_9debug_api15DebugApiBackendEENtNtNtCsd0DXYhglbat_13multiversx_sc13contract_base17callable_contract16CallableContract4callCsbv7vZMOU1ip_13delegate_test
FNDA:0,_RNvYpNtCs2edAa8LGkSL_14liquid_staking13LiquidStaking7upgradeB5_
FNDA:0,_RNvYpNtCs2edAa8LGkSL_14liquid_staking13LiquidStaking4initB5_
FNDA:0,_RNvYpNtCs2edAa8LGkSL_14liquid_staking13LiquidStaking8delegateB5_
FNDA:0,_RNvYpNtCs2edAa8LGkSL_14liquid_staking13LiquidStaking11un_delegateB5_
FNDA:0,_RNvYpNtCs2edAa8LGkSL_14liquid_staking13LiquidStaking8withdrawB5_
FNDA:0,_RNvYpNtCs2edAa8LGkSL_14liquid_staking16EndpointWrappers12call_upgradeB5_
FNDA:0,_RNvYpNtCs2edAa8LGkSL_14liquid_staking16EndpointWrappers9call_initB5_
FNDA:0,_RNvYpNtCs2edAa8LGkSL_14liquid_staking16EndpointWrappers13call_delegateB5_
FNDA:0,_RNvYpNtCs2edAa8LGkSL_14liquid_staking16EndpointWrappers16call_un_delegateB5_
FNDA:0,_RNvYpNtCs2edAa8LGkSL_14liquid_staking16EndpointWrappers13call_withdrawB5_
FNDA:0,_RNvYpNtCs2edAa8LGkSL_14liquid_staking16EndpointWrappers4callB5_
FNDA:0,_RNvYpNtCs2edAa8LGkSL_14liquid_staking16EndpointWrappers17callback_selectorB5_
FNDA:0,_RNvYpNtCs2edAa8LGkSL_14liquid_staking16EndpointWrappers8callbackB5_
FNDA:0,_RNvXs1_Cs2edAa8LGkSL_14liquid_stakingNtB5_11AbiProviderNtNtNtCsd0DXYhglbat_13multiversx_sc13contract_base21contract_abi_provider19ContractAbiProvider3abi
FNDA:0,_RNvXINICs2edAa8LGkSL_14liquid_stakingsz_0pEINtB5_11ContractObjpENtNtNtCsd0DXYhglbat_13multiversx_sc13contract_base17callable_contract16CallableContract4callB5_
FNDA:0,_RINvCs2edAa8LGkSL_14liquid_staking12contract_objpEB2_
FNDA:0,_RINvXsA_Cs2edAa8LGkSL_14liquid_stakingNtB6_15ContractBuilderNtNtNtCsd0DXYhglbat_13multiversx_sc13contract_base17callable_contract23CallableContractBuilder16new_contract_objpEB6_
FNDA:0,_RINvNtCs2edAa8LGkSL_14liquid_staking19___wasm__endpoints__7upgradepEB4_
FNDA:0,_RINvNtCs2edAa8LGkSL_14liquid_staking19___wasm__endpoints__4initpEB4_
FNDA:0,_RINvNtCs2edAa8LGkSL_14liquid_staking19___wasm__endpoints__8delegatepEB4_
FNDA:0,_RINvNtCs2edAa8LGkSL_14liquid_staking19___wasm__endpoints__11un_delegatepEB4_
FNDA:0,_RINvNtCs2edAa8LGkSL_14liquid_staking19___wasm__endpoints__8withdrawpEB4_
FNDA:0,_RINvNtCs2edAa8LGkSL_14liquid_staking19___wasm__endpoints__8callBackpEB4_
FNDA:0,_RNvYpNtCs2edAa8LGkSL_14liquid_staking10ProxyTrait7upgradeB5_
FNDA:0,_RINvYpNtCs2edAa8LGkSL_14liquid_staking10ProxyTrait4initpppppEB6_
FNDA:0,_RINvYpNtCs2edAa8LGkSL_14liquid_staking10ProxyTrait8delegatepEB6_
FNDA:0,_RNvYpNtCs2edAa8LGkSL_14liquid_staking10ProxyTrait11un_delegateB5_
FNDA:0,_RNvYpNtCs2edAa8LGkSL_14liquid_staking10ProxyTrait8withdrawB5_
FNDA:0,_RNvXINICs2edAa8LGkSL_14liquid_stakingsB_0pEINtB5_5ProxypENtNtNtCsd0DXYhglbat_13multiversx_sc13contract_base14proxy_obj_base12ProxyObjBase19extract_opt_addressB5_
FNDA:0,_RNvXINICs2edAa8LGkSL_14liquid_stakingsB_0pEINtB5_5ProxypENtNtNtCsd0DXYhglbat_13multiversx_sc13contract_base14proxy_obj_base12ProxyObjBase16extract_proxy_toB5_
FNDA:0,_RNvXINICs2edAa8LGkSL_14liquid_stakingsC_0pEINtB5_5ProxypENtNtNtCsd0DXYhglbat_13multiversx_sc13contract_base14proxy_obj_base11ProxyObjNew13new_proxy_objB5_
FNDA:0,_RNvXINICs2edAa8LGkSL_14liquid_stakingsC_0pEINtB5_5ProxypENtNtNtCsd0DXYhglbat_13multiversx_sc13contract_base14proxy_obj_base11ProxyObjNew8contractB5_
FNDA:0,_RNvXINICs2edAa8LGkSL_14liquid_stakingsD_0pEINtB5_7ProxyTopENtNtNtCsd0DXYhglbat_13multiversx_sc13contract_base14proxy_obj_base12ProxyObjBase19extract_opt_addressB5_
FNDA:0,_RNvXINICs2edAa8LGkSL_14liquid_stakingsD_0pEINtB5_7ProxyTopENtNtNtCsd0DXYhglbat_13multiversx_sc13contract_base14proxy_obj_base12ProxyObjBase15extract_addressB5_
FNDA:0,_RNvXINICs2edAa8LGkSL_14liquid_stakingsD_0pEINtB5_7ProxyTopENtNtNtCsd0DXYhglbat_13multiversx_sc13contract_base14proxy_obj_base12ProxyObjBase16extract_proxy_toB5_
FNDA:5,_RNvYINtNtNtCsd0DXYhglbat_13multiversx_sc13contract_base22universal_contract_obj20UniversalContractObjINtNtNtNtCs2614o7AVePg_22multiversx_sc_scenario3api7impl_vh12vm_hooks_api10VMHooksApiNtNtB1G_9debug_api15DebugApiBackendEENtCs141FUTAEp3L_14liquid_staking13LiquidStaking11un_delegateCs25HLPETZpNm_4test
FNDA:5,_RNvYINtNtNtCsd0DXYhglbat_13multiversx_sc13contract_base22universal_contract_obj20UniversalContractObjINtNtNtNtCs2614o7AVePg_22multiversx_sc_scenario3api7impl_vh12vm_hooks_api10VMHooksApiNtNtB1G_9debug_api15DebugApiBackendEENtCs141FUTAEp3L_14liquid_staking13LiquidStaking4initCs25HLPETZpNm_4test
FNDA:0,_RNvYINtNtNtCsd0DXYhglbat_13multiversx_sc13contract_base22universal_contract_obj20UniversalContractObjINtNtNtNtCs2614o7AVePg_22multiversx_sc_scenario3api7impl_vh12vm_hooks_api10VMHooksApiNtNtB1G_9debug_api15DebugApiBackendEENtCs141FUTAEp3L_14liquid_staking13LiquidStaking7upgradeCs25HLPETZpNm_4test
FNDA:9,_RNvYINtNtNtCsd0DXYhglbat_13multiversx_sc13contract_base22universal_contract_obj20UniversalContractObjINtNtNtNtCs2614o7AVePg_22multiversx_sc_scenario3api7impl_vh12vm_hooks_api10VMHooksApiNtNtB1G_9debug_api15DebugApiBackendEENtCs141FUTAEp3L_14liquid_staking13LiquidStaking8delegateCs25HLPETZpNm_4test
FNDA:2,_RNvYINtNtNtCsd0DXYhglbat_13multiversx_sc13contract_base22universal_contract_obj20UniversalContractObjINtNtNtNtCs2614o7AVePg_22multiversx_sc_scenario3api7impl_vh12vm_hooks_api10VMHooksApiNtNtB1G_9debug_api15DebugApiBackendEENtCs141FUTAEp3L_14liquid_staking13LiquidStaking8withdrawCs25HLPETZpNm_4test
FNDA:0,_RNvYINtNtNtCsd0DXYhglbat_13multiversx_sc13contract_base22universal_contract_obj20UniversalContractObjINtNtNtNtCs2614o7AVePg_22multiversx_sc_scenario3api7impl_vh12vm_hooks_api10VMHooksApiNtNtB1G_9debug_api15DebugApiBackendEENtCs141FUTAEp3L_14liquid_staking16EndpointWrappers12call_upgradeCs25HLPETZpNm_4test
FNDA:9,_RNvYINtNtNtCsd0DXYhglbat_13multiversx_sc13contract_base22universal_contract_obj20UniversalContractObjINtNtNtNtCs2614o7AVePg_22multiversx_sc_scenario3api7impl_vh12vm_hooks_api10VMHooksApiNtNtB1G_9debug_api15DebugApiBackendEENtCs141FUTAEp3L_14liquid_staking16EndpointWrappers13call_delegateCs25HLPETZpNm_4test
FNDA:2,_RNvYINtNtNtCsd0DXYhglbat_13multiversx_sc13contract_base22universal_contract_obj20UniversalContractObjINtNtNtNtCs2614o7AVePg_22multiversx_sc_scenario3api7impl_vh12vm_hooks_api10VMHooksApiNtNtB1G_9debug_api15DebugApiBackendEENtCs141FUTAEp3L_14liquid_staking16EndpointWrappers13call_withdrawCs25HLPETZpNm_4test
FNDA:5,_RNvYINtNtNtCsd0DXYhglbat_13multiversx_sc13contract_base22universal_contract_obj20UniversalContractObjINtNtNtNtCs2614o7AVePg_22multiversx_sc_scenario3api7impl_vh12vm_hooks_api10VMHooksApiNtNtB1G_9debug_api15DebugApiBackendEENtCs141FUTAEp3L_14liquid_staking16EndpointWrappers16call_un_delegateCs25HLPETZpNm_4test
FNDA:0,_RNvYINtNtNtCsd0DXYhglbat_13multiversx_sc13contract_base22universal_contract_obj20UniversalContractObjINtNtNtNtCs2614o7AVePg_22multiversx_sc_scenario3api7impl_vh12vm_hooks_api10VMHooksApiNtNtB1G_9debug_api15DebugApiBackendEENtCs141FUTAEp3L_14liquid_staking16EndpointWrappers17callback_selectorCs25HLPETZpNm_4test
FNDA:120,_RNvYINtNtNtCsd0DXYhglbat_13multiversx_sc13contract_base22universal_contract_obj20UniversalContractObjINtNtNtNtCs2614o7AVePg_22multiversx_sc_scenario3api7impl_vh12vm_hooks_api10VMHooksApiNtNtB1G_9debug_api15DebugApiBackendEENtCs141FUTAEp3L_14liquid_staking16EndpointWrappers4callCs25HLPETZpNm_4test
FNDA:0,_RNvYINtNtNtCsd0DXYhglbat_13multiversx_sc13contract_base22universal_contract_obj20UniversalContractObjINtNtNtNtCs2614o7AVePg_22multiversx_sc_scenario3api7impl_vh12vm_hooks_api10VMHooksApiNtNtB1G_9debug_api15DebugApiBackendEENtCs141FUTAEp3L_14liquid_staking16EndpointWrappers8callbackCs25HLPETZpNm_4test
FNDA:5,_RNvYINtNtNtCsd0DXYhglbat_13multiversx_sc13contract_base22universal_contract_obj20UniversalContractObjINtNtNtNtCs2614o7AVePg_22multiversx_sc_scenario3api7impl_vh12vm_hooks_api10VMHooksApiNtNtB1G_9debug_api15DebugApiBackendEENtCs141FUTAEp3L_14liquid_staking16EndpointWrappers9call_initCs25HLPETZpNm_4test
FNDA:10,_RINvCs141FUTAEp3L_14liquid_staking12contract_objINtNtNtNtCs2614o7AVePg_22multiversx_sc_scenario3api7impl_vh12vm_hooks_api10VMHooksApiNtNtBP_9debug_api15DebugApiBackendEECs25HLPETZpNm_4test
FNDA:5,_RINvXsA_Cs141FUTAEp3L_14liquid_stakingNtB6_15ContractBuilderNtNtNtCsd0DXYhglbat_13multiversx_sc13contract_base17callable_contract23CallableContractBuilder16new_contract_objINtNtNtNtCs2614o7AVePg_22multiversx_sc_scenario3api7impl_vh12vm_hooks_api10VMHooksApiNtNtB2P_9debug_api15DebugApiBackendEECs25HLPETZpNm_4test
FNDA:120,_RNvXsz_Cs141FUTAEp3L_14liquid_stakingINtB5_11ContractObjINtNtNtNtCs2614o7AVePg_22multiversx_sc_scenario3api7impl_vh12vm_hooks_api10VMHooksApiNtNtBX_9debug_api15DebugApiBackendEENtNtNtCsd0DXYhglbat_13multiversx_sc13contract_base17callable_contract16CallableContract4callCs25HLPETZpNm_4test
FNDA:38,_RINvCs141FUTAEp3L_14liquid_staking12contract_objINtNtNtNtCs2614o7AVePg_22multiversx_sc_scenario3api7impl_vh12vm_hooks_api10VMHooksApiNtNtBP_9debug_api15DebugApiBackendEECsgub9DQDg2s9_15unDelegate_test
FNDA:19,_RINvXsA_Cs141FUTAEp3L_14liquid_stakingNtB6_15ContractBuilderNtNtNtCsd0DXYhglbat_13multiversx_sc13contract_base17callable_contract23CallableContractBuilder16new_contract_objINtNtNtNtCs2614o7AVePg_22multiversx_sc_scenario3api7impl_vh12vm_hooks_api10VMHooksApiNtNtB2P_9debug_api15DebugApiBackendEECsgub9DQDg2s9_15unDelegate_test
FNDA:1443,_RNvXsz_Cs141FUTAEp3L_14liquid_stakingINtB5_11ContractObjINtNtNtNtCs2614o7AVePg_22multiversx_sc_scenario3api7impl_vh12vm_hooks_api10VMHooksApiNtNtBX_9debug_api15DebugApiBackendEENtNtNtCsd0DXYhglbat_13multiversx_sc13contract_base17callable_contract16CallableContract4callCsgub9DQDg2s9_15unDelegate_test
FNDA:20,_RNvYINtNtNtCsd0DXYhglbat_13multiversx_sc13contract_base22universal_contract_obj20UniversalContractObjINtNtNtNtCs2614o7AVePg_22multiversx_sc_scenario3api7impl_vh12vm_hooks_api10VMHooksApiNtNtB1G_9debug_api15DebugApiBackendEENtCs141FUTAEp3L_14liquid_staking13LiquidStaking11un_delegateCsgub9DQDg2s9_15unDelegate_test
FNDA:19,_RNvYINtNtNtCsd0DXYhglbat_13multiversx_sc13contract_base22universal_contract_obj20UniversalContractObjINtNtNtNtCs2614o7AVePg_22multiversx_sc_scenario3api7impl_vh12vm_hooks_api10VMHooksApiNtNtB1G_9debug_api15DebugApiBackendEENtCs141FUTAEp3L_14liquid_staking13LiquidStaking4initCsgub9DQDg2s9_15unDelegate_test
FNDA:0,_RNvYINtNtNtCsd0DXYhglbat_13multiversx_sc13contract_base22universal_contract_obj20UniversalContractObjINtNtNtNtCs2614o7AVePg_22multiversx_sc_scenario3api7impl_vh12vm_hooks_api10VMHooksApiNtNtB1G_9debug_api15DebugApiBackendEENtCs141FUTAEp3L_14liquid_staking13LiquidStaking7upgradeCsgub9DQDg2s9_15unDelegate_test
FNDA:36,_RNvYINtNtNtCsd0DXYhglbat_13multiversx_sc13contract_base22universal_contract_obj20UniversalContractObjINtNtNtNtCs2614o7AVePg_22multiversx_sc_scenario3api7impl_vh12vm_hooks_api10VMHooksApiNtNtB1G_9debug_api15DebugApiBackendEENtCs141FUTAEp3L_14liquid_staking13LiquidStaking8delegateCsgub9DQDg2s9_15unDelegate_test
FNDA:0,_RNvYINtNtNtCsd0DXYhglbat_13multiversx_sc13contract_base22universal_contract_obj20UniversalContractObjINtNtNtNtCs2614o7AVePg_22multiversx_sc_scenario3api7impl_vh12vm_hooks_api10VMHooksApiNtNtB1G_9debug_api15DebugApiBackendEENtCs141FUTAEp3L_14liquid_staking13LiquidStaking8withdrawCsgub9DQDg2s9_15unDelegate_test
FNDA:0,_RNvYINtNtNtCsd0DXYhglbat_13multiversx_sc13contract_base22universal_contract_obj20UniversalContractObjINtNtNtNtCs2614o7AVePg_22multiversx_sc_scenario3api7impl_vh12vm_hooks_api10VMHooksApiNtNtB1G_9debug_api15DebugApiBackendEENtCs141FUTAEp3L_14liquid_staking16EndpointWrappers12call_upgradeCsgub9DQDg2s9_15unDelegate_test
FNDA:36,_RNvYINtNtNtCsd0DXYhglbat_13multiversx_sc13contract_base22universal_contract_obj20UniversalContractObjINtNtNtNtCs2614o7AVePg_22multiversx_sc_scenario3api7impl_vh12vm_hooks_api10VMHooksApiNtNtB1G_9debug_api15DebugApiBackendEENtCs141FUTAEp3L_14liquid_staking16EndpointWrappers13call_delegateCsgub9DQDg2s9_15unDelegate_test
FNDA:0,_RNvYINtNtNtCsd0DXYhglbat_13multiversx_sc13contract_base22universal_contract_obj20UniversalContractObjINtNtNtNtCs2614o7AVePg_22multiversx_sc_scenario3api7impl_vh12vm_hooks_api10VMHooksApiNtNtB1G_9debug_api15DebugApiBackendEENtCs141FUTAEp3L_14liquid_staking16EndpointWrappers13call_withdrawCsgub9DQDg2s9_15unDelegate_test
FNDA:20,_RNvYINtNtNtCsd0DXYhglbat_13multiversx_sc13contract_base22universal_contract_obj20UniversalContractObjINtNtNtNtCs2614o7AVePg_22multiversx_sc_scenario3api7impl_vh12vm_hooks_api10VMHooksApiNtNtB1G_9debug_api15DebugApiBackendEENtCs141FUTAEp3L_14liquid_staking16EndpointWrappers16call_un_delegateCsgub9DQDg2s9_15unDelegate_test
FNDA:0,_RNvYINtNtNtCsd0DXYhglbat_13multiversx_sc13contract_base22universal_contract_obj20UniversalContractObjINtNtNtNtCs2614o7AVePg_22multiversx_sc_scenario3api7impl_vh12vm_hooks_api10VMHooksApiNtNtB1G_9debug_api15DebugApiBackendEENtCs141FUTAEp3L_14liquid_staking16EndpointWrappers17callback_selectorCsgub9DQDg2s9_15unDelegate_test
FNDA:1443,_RNvYINtNtNtCsd0DXYhglbat_13multiversx_sc13contract_base22universal_contract_obj20UniversalContractObjINtNtNtNtCs2614o7AVePg_22multiversx_sc_scenario3api7impl_vh12vm_hooks_api10VMHooksApiNtNtB1G_9debug_api15DebugApiBackendEENtCs141FUTAEp3L_14liquid_staking16EndpointWrappers4callCsgub9DQDg2s9_15unDelegate_test
FNDA:0,_RNvYINtNtNtCsd0DXYhglbat_13multiversx_sc13contract_base22universal_contract_obj20UniversalContractObjINtNtNtNtCs2614o7AVePg_22multiversx_sc_scenario3api7impl_vh12vm_hooks_api10VMHooksApiNtNtB1G_9debug_api15DebugApiBackendEENtCs141FUTAEp3L_14liquid_staking16EndpointWrappers8callbackCsgub9DQDg2s9_15unDelegate_test
FNDA:19,_RNvYINtNtNtCsd0DXYhglbat_13multiversx_sc13contract_base22universal_contract_obj20UniversalContractObjINtNtNtNtCs2614o7AVePg_22multiversx_sc_scenario3api7impl_vh12vm_hooks_api10VMHooksApiNtNtB1G_9debug_api15DebugApiBackendEENtCs141FUTAEp3L_14liquid_staking16EndpointWrappers9call_initCsgub9DQDg2s9_15unDelegate_test
FNDA:8,_RNvYINtNtNtCsd0DXYhglbat_13multiversx_sc13contract_base22universal_contract_obj20UniversalContractObjINtNtNtNtCs2614o7AVePg_22multiversx_sc_scenario3api7impl_vh12vm_hooks_api10VMHooksApiNtNtB1G_9debug_api15DebugApiBackendEENtCs141FUTAEp3L_14liquid_staking13LiquidStaking11un_delegateCscNyXpV1vtNq_11unbond_test
FNDA:7,_RNvYINtNtNtCsd0DXYhglbat_13multiversx_sc13contract_base22universal_contract_obj20UniversalContractObjINtNtNtNtCs2614o7AVePg_22multiversx_sc_scenario3api7impl_vh12vm_hooks_api10VMHooksApiNtNtB1G_9debug_api15DebugApiBackendEENtCs141FUTAEp3L_14liquid_staking13LiquidStaking4initCscNyXpV1vtNq_11unbond_test
FNDA:0,_RNvYINtNtNtCsd0DXYhglbat_13multiversx_sc13contract_base22universal_contract_obj20UniversalContractObjINtNtNtNtCs2614o7AVePg_22multiversx_sc_scenario3api7impl_vh12vm_hooks_api10VMHooksApiNtNtB1G_9debug_api15DebugApiBackendEENtCs141FUTAEp3L_14liquid_staking13LiquidStaking7upgradeCscNyXpV1vtNq_11unbond_test
FNDA:8,_RNvYINtNtNtCsd0DXYhglbat_13multiversx_sc13contract_base22universal_contract_obj20UniversalContractObjINtNtNtNtCs2614o7AVePg_22multiversx_sc_scenario3api7impl_vh12vm_hooks_api10VMHooksApiNtNtB1G_9debug_api15DebugApiBackendEENtCs141FUTAEp3L_14liquid_staking13LiquidStaking8delegateCscNyXpV1vtNq_11unbond_test
FNDA:8,_RNvYINtNtNtCsd0DXYhglbat_13multiversx_sc13contract_base22universal_contract_obj20UniversalContractObjINtNtNtNtCs2614o7AVePg_22multiversx_sc_scenario3api7impl_vh12vm_hooks_api10VMHooksApiNtNtB1G_9debug_api15DebugApiBackendEENtCs141FUTAEp3L_14liquid_staking13LiquidStaking8withdrawCscNyXpV1vtNq_11unbond_test
FNDA:0,_RNvYINtNtNtCsd0DXYhglbat_13multiversx_sc13contract_base22universal_contract_obj20UniversalContractObjINtNtNtNtCs2614o7AVePg_22multiversx_sc_scenario3api7impl_vh12vm_hooks_api10VMHooksApiNtNtB1G_9debug_api15DebugApiBackendEENtCs141FUTAEp3L_14liquid_staking16EndpointWrappers12call_upgradeCscNyXpV1vtNq_11unbond_test
FNDA:8,_RNvYINtNtNtCsd0DXYhglbat_13multiversx_sc13contract_base22universal_contract_obj20UniversalContractObjINtNtNtNtCs2614o7AVePg_22multiversx_sc_scenario3api7impl_vh12vm_hooks_api10VMHooksApiNtNtB1G_9debug_api15DebugApiBackendEENtCs141FUTAEp3L_14liquid_staking16EndpointWrappers13call_delegateCscNyXpV1vtNq_11unbond_test
FNDA:8,_RNvYINtNtNtCsd0DXYhglbat_13multiversx_sc13contract_base22universal_contract_obj20UniversalContractObjINtNtNtNtCs2614o7AVePg_22multiversx_sc_scenario3api7impl_vh12vm_hooks_api10VMHooksApiNtNtB1G_9debug_api15DebugApiBackendEENtCs141FUTAEp3L_14liquid_staking16EndpointWrappers13call_withdrawCscNyXpV1vtNq_11unbond_test
FNDA:8,_RNvYINtNtNtCsd0DXYhglbat_13multiversx_sc13contract_base22universal_contract_obj20UniversalContractObjINtNtNtNtCs2614o7AVePg_22multiversx_sc_scenario3api7impl_vh12vm_hooks_api10VMHooksApiNtNtB1G_9debug_api15DebugApiBackendEENtCs141FUTAEp3L_14liquid_staking16EndpointWrappers16call_un_delegateCscNyXpV1vtNq_11unbond_test
FNDA:0,_RNvYINtNtNtCsd0DXYhglbat_13multiversx_sc13contract_base22universal_contract_obj20UniversalContractObjINtNtNtNtCs2614o7AVePg_22multiversx_sc_scenario3api7impl_vh12vm_hooks_api10VMHooksApiNtNtB1G_9debug_api15DebugApiBackendEENtCs141FUTAEp3L_14liquid_staking16EndpointWrappers17callback_selectorCscNyXpV1vtNq_11unbond_test
FNDA:114,_RNvYINtNtNtCsd0DXYhglbat_13multiversx_sc13contract_base22universal_contract_obj20UniversalContractObjINtNtNtNtCs2614o7AVePg_22multiversx_sc_scenario3api7impl_vh12vm_hooks_api10VMHooksApiNtNtB1G_9debug_api15DebugApiBackendEENtCs141FUTAEp3L_14liquid_staking16EndpointWrappers4callCscNyXpV1vtNq_11unbond_test
FNDA:0,_RNvYINtNtNtCsd0DXYhglbat_13multiversx_sc13contract_base22universal_contract_obj20UniversalContractObjINtNtNtNtCs2614o7AVePg_22multiversx_sc_scenario3api7impl_vh12vm_hooks_api10VMHooksApiNtNtB1G_9debug_api15DebugApiBackendEENtCs141FUTAEp3L_14liquid_staking16EndpointWrappers8callbackCscNyXpV1vtNq_11unbond_test
FNDA:7,_RNvYINtNtNtCsd0DXYhglbat_13multiversx_sc13contract_base22universal_contract_obj20UniversalContractObjINtNtNtNtCs2614o7AVePg_22multiversx_sc_scenario3api7impl_vh12vm_hooks_api10VMHooksApiNtNtB1G_9debug_api15DebugApiBackendEENtCs141FUTAEp3L_14liquid_staking16EndpointWrappers9call_initCscNyXpV1vtNq_11unbond_test
FNDA:14,_RINvCs141FUTAEp3L_14liquid_staking12contract_objINtNtNtNtCs2614o7AVePg_22multiversx_sc_scenario3api7impl_vh12vm_hooks_api10VMHooksApiNtNtBP_9debug_api15DebugApiBackendEECscNyXpV1vtNq_11unbond_test
FNDA:7,_RINvXsA_Cs141FUTAEp3L_14liquid_stakingNtB6_15ContractBuilderNtNtNtCsd0DXYhglbat_13multiversx_sc13contract_base17callable_contract23CallableContractBuilder16new_contract_objINtNtNtNtCs2614o7AVePg_22multiversx_sc_scenario3api7impl_vh12vm_hooks_api10VMHooksApiNtNtB2P_9debug_api15DebugApiBackendEECscNyXpV1vtNq_11unbond_test
FNDA:114,_RNvXsz_Cs141FUTAEp3L_14liquid_stakingINtB5_11ContractObjINtNtNtNtCs2614o7AVePg_22multiversx_sc_scenario3api7impl_vh12vm_hooks_api10VMHooksApiNtNtBX_9debug_api15DebugApiBackendEENtNtNtCsd0DXYhglbat_13multiversx_sc13contract_base17callable_contract16CallableContract4callCscNyXpV1vtNq_11unbond_test
FNF:6
FNH:5
DA:31,1902
DA:50,0
DA:51,0
DA:71,47
DA:72,47
DA:73,47
DA:74,47
DA:76,47
DA:77,47
DA:78,0
DA:81,47
DA:82,47
DA:83,47
DA:84,47
DA:85,47
DA:86,47
DA:87,47
DA:98,75
DA:99,75
DA:100,75
DA:101,75
DA:102,75
DA:103,75
DA:104,75
DA:105,75
DA:107,75
DA:108,4
DA:109,4
DA:110,4
DA:111,4
DA:112,4
DA:113,0
DA:116,4
DA:117,4
DA:118,4
DA:120,3
DA:121,3
DA:122,1
DA:125,2
DA:127,1
DA:128,1
DA:129,1
DA:130,1
DA:131,1
DA:132,1
DA:133,1
DA:134,1
DA:135,1
DA:136,1
DA:137,1
DA:138,1
DA:139,1
DA:140,1
DA:141,1
DA:143,71
DA:144,71
DA:145,71
DA:146,71
DA:155,38
DA:156,38
DA:157,38
DA:158,38
DA:159,38
DA:160,38
DA:161,38
DA:162,38
DA:163,38
DA:164,38
DA:165,38
DA:166,38
DA:167,38
DA:168,38
DA:176,10
DA:177,10
DA:178,10
DA:179,10
DA:180,10
DA:181,10
DA:182,10
DA:183,10
DA:184,10
DA:185,10
DA:187,10
DA:188,9
DA:189,9
DA:190,1
DA:193,8
DA:195,7
DA:196,7
DA:197,7
DA:198,7
DA:199,7
DA:200,7
DA:201,1
DA:204,6
DA:205,3
DA:206,3
DA:207,3
DA:208,3
DA:209,3
DA:210,3
DA:211,1
DA:212,1
DA:213,1
DA:214,1
DA:215,1
DA:216,1
DA:217,1
DA:218,1
DA:219,1
DA:220,1
DA:221,1
DA:222,1
DA:223,1
DA:224,1
DA:225,1
DA:226,1
DA:227,1
DA:228,1
DA:229,1
DA:230,1
DA:231,1
DA:232,1
DA:233,1
DA:234,1
DA:235,1
DA:236,1
DA:237,2
DA:242,4
DA:243,4
BRF:0
BRH:0
LF:130
LH:126
end_of_record
SF:/Users/mihaieremia/GitHub/rs-egld-liquid-staking/liquid-staking/src/liquidity_pool.rs
FN:86,_RINvYINtNtNtCsd0DXYhglbat_13multiversx_sc13contract_base22universal_contract_obj20UniversalContractObjINtNtNtNtCs2614o7AVePg_22multiversx_sc_scenario3api7impl_vh12vm_hooks_api10VMHooksApiNtNtB1H_9debug_api15DebugApiBackendEENtNtCs141FUTAEp3L_14liquid_staking14liquidity_pool19LiquidityPoolModule19mint_unstake_tokensNtNtB3E_7structs22UnstakeTokenAttributesECsbv7vZMOU1ip_13delegate_test
FN:13,_RNvYINtNtNtCsd0DXYhglbat_13multiversx_sc13contract_base22universal_contract_obj20UniversalContractObjINtNtNtNtCs2614o7AVePg_22multiversx_sc_scenario3api7impl_vh12vm_hooks_api10VMHooksApiNtNtB1G_9debug_api15DebugApiBackendEENtNtCs141FUTAEp3L_14liquid_staking14liquidity_pool16EndpointWrappers17callback_selectorCsbv7vZMOU1ip_13delegate_test
FN:13,_RNvYINtNtNtCsd0DXYhglbat_13multiversx_sc13contract_base22universal_contract_obj20UniversalContractObjINtNtNtNtCs2614o7AVePg_22multiversx_sc_scenario3api7impl_vh12vm_hooks_api10VMHooksApiNtNtB1G_9debug_api15DebugApiBackendEENtNtCs141FUTAEp3L_14liquid_staking14liquidity_pool16EndpointWrappers4callCsbv7vZMOU1ip_13delegate_test
FN:13,_RNvYINtNtNtCsd0DXYhglbat_13multiversx_sc13contract_base22universal_contract_obj20UniversalContractObjINtNtNtNtCs2614o7AVePg_22multiversx_sc_scenario3api7impl_vh12vm_hooks_api10VMHooksApiNtNtB1G_9debug_api15DebugApiBackendEENtNtCs141FUTAEp3L_14liquid_staking14liquidity_pool16EndpointWrappers8callbackCsbv7vZMOU1ip_13delegate_test
FN:76,_RNvYINtNtNtCsd0DXYhglbat_13multiversx_sc13contract_base22universal_contract_obj20UniversalContractObjINtNtNtNtCs2614o7AVePg_22multiversx_sc_scenario3api7impl_vh12vm_hooks_api10VMHooksApiNtNtB1G_9debug_api15DebugApiBackendEENtNtCs141FUTAEp3L_14liquid_staking14liquidity_pool19LiquidityPoolModule13burn_ls_tokenCsbv7vZMOU1ip_13delegate_test
FN:59,_RNvYINtNtNtCsd0DXYhglbat_13multiversx_sc13contract_base22universal_contract_obj20UniversalContractObjINtNtNtNtCs2614o7AVePg_22multiversx_sc_scenario3api7impl_vh12vm_hooks_api10VMHooksApiNtNtB1G_9debug_api15DebugApiBackendEENtNtCs141FUTAEp3L_14liquid_staking14liquidity_pool19LiquidityPoolModule13get_ls_amountCsbv7vZMOU1ip_13delegate_test
FN:72,_RNvYINtNtNtCsd0DXYhglbat_13multiversx_sc13contract_base22universal_contract_obj20UniversalContractObjINtNtNtNtCs2614o7AVePg_22multiversx_sc_scenario3api7impl_vh12vm_hooks_api10VMHooksApiNtNtB1G_9debug_api15DebugApiBackendEENtNtCs141FUTAEp3L_14liquid_staking14liquidity_pool19LiquidityPoolModule13mint_ls_tokenCsbv7vZMOU1ip_13delegate_test
FN:45,_RNvYINtNtNtCsd0DXYhglbat_13multiversx_sc13contract_base22universal_contract_obj20UniversalContractObjINtNtNtNtCs2614o7AVePg_22multiversx_sc_scenario3api7impl_vh12vm_hooks_api10VMHooksApiNtNtB1G_9debug_api15DebugApiBackendEENtNtCs141FUTAEp3L_14liquid_staking14liquidity_pool19LiquidityPoolModule15get_egld_amountCsbv7vZMOU1ip_13delegate_test
FN:19,_RNvYINtNtNtCsd0DXYhglbat_13multiversx_sc13contract_base22universal_contract_obj20UniversalContractObjINtNtNtNtCs2614o7AVePg_22multiversx_sc_scenario3api7impl_vh12vm_hooks_api10VMHooksApiNtNtB1G_9debug_api15DebugApiBackendEENtNtCs141FUTAEp3L_14liquid_staking14liquidity_pool19LiquidityPoolModule18pool_add_liquidityCsbv7vZMOU1ip_13delegate_test
FN:119,_RNvYINtNtNtCsd0DXYhglbat_13multiversx_sc13contract_base22universal_contract_obj20UniversalContractObjINtNtNtNtCs2614o7AVePg_22multiversx_sc_scenario3api7impl_vh12vm_hooks_api10VMHooksApiNtNtB1G_9debug_api15DebugApiBackendEENtNtCs141FUTAEp3L_14liquid_staking14liquidity_pool19LiquidityPoolModule19burn_unstake_tokensCsbv7vZMOU1ip_13delegate_test
FN:32,_RNvYINtNtNtCsd0DXYhglbat_13multiversx_sc13contract_base22universal_contract_obj20UniversalContractObjINtNtNtNtCs2614o7AVePg_22multiversx_sc_scenario3api7impl_vh12vm_hooks_api10VMHooksApiNtNtB1G_9debug_api15DebugApiBackendEENtNtCs141FUTAEp3L_14liquid_staking14liquidity_pool19LiquidityPoolModule21pool_remove_liquidityCsbv7vZMOU1ip_13delegate_test
FN:123,_RNvYINtNtNtCsd0DXYhglbat_13multiversx_sc13contract_base22universal_contract_obj20UniversalContractObjINtNtNtNtCs2614o7AVePg_22multiversx_sc_scenario3api7impl_vh12vm_hooks_api10VMHooksApiNtNtB1G_9debug_api15DebugApiBackendEENtNtCs141FUTAEp3L_14liquid_staking14liquidity_pool19LiquidityPoolModule23clean_old_unbond_epochsCsbv7vZMOU1ip_13delegate_test
FN:19,_RNvYpNtNtCs2edAa8LGkSL_14liquid_staking14liquidity_pool19LiquidityPoolModule18pool_add_liquidityB7_
FN:32,_RNvYpNtNtCs2edAa8LGkSL_14liquid_staking14liquidity_pool19LiquidityPoolModule21pool_remove_liquidityB7_
FN:45,_RNvYpNtNtCs2edAa8LGkSL_14liquid_staking14liquidity_pool19LiquidityPoolModule15get_egld_amountB7_
FN:59,_RNvYpNtNtCs2edAa8LGkSL_14liquid_staking14liquidity_pool19LiquidityPoolModule13get_ls_amountB7_
FN:72,_RNvYpNtNtCs2edAa8LGkSL_14liquid_staking14liquidity_pool19LiquidityPoolModule13mint_ls_tokenB7_
FN:76,_RNvYpNtNtCs2edAa8LGkSL_14liquid_staking14liquidity_pool19LiquidityPoolModule13burn_ls_tokenB7_
FN:86,_RINvYpNtNtCs2edAa8LGkSL_14liquid_staking14liquidity_pool19LiquidityPoolModule19mint_unstake_tokenspEB8_
FN:119,_RNvYpNtNtCs2edAa8LGkSL_14liquid_staking14liquidity_pool19LiquidityPoolModule19burn_unstake_tokensB7_
FN:123,_RNvYpNtNtCs2edAa8LGkSL_14liquid_staking14liquidity_pool19LiquidityPoolModule23clean_old_unbond_epochsB7_
FN:13,_RNvYpNtNtCs2edAa8LGkSL_14liquid_staking14liquidity_pool16EndpointWrappers4callB7_
FN:13,_RNvYpNtNtCs2edAa8LGkSL_14liquid_staking14liquidity_pool16EndpointWrappers17callback_selectorB7_
FN:13,_RNvYpNtNtCs2edAa8LGkSL_14liquid_staking14liquidity_pool16EndpointWrappers8callbackB7_
FN:13,_RNvXs1_NtCs2edAa8LGkSL_14liquid_staking14liquidity_poolNtB5_11AbiProviderNtNtNtCsd0DXYhglbat_13multiversx_sc13contract_base21contract_abi_provider19ContractAbiProvider3abi
FN:13,_RNvXININtCs2edAa8LGkSL_14liquid_staking14liquidity_pools9_0pEINtB5_11ContractObjpENtNtNtCsd0DXYhglbat_13multiversx_sc13contract_base17callable_contract16CallableContract4callB7_
FN:13,_RINvNtCs2edAa8LGkSL_14liquid_staking14liquidity_pool12contract_objpEB4_
FN:13,_RINvXsa_NtCs2edAa8LGkSL_14liquid_staking14liquidity_poolNtB6_15ContractBuilderNtNtNtCsd0DXYhglbat_13multiversx_sc13contract_base17callable_contract23CallableContractBuilder16new_contract_objpEB8_
FN:86,_RINvYINtNtNtCsd0DXYhglbat_13multiversx_sc13contract_base22universal_contract_obj20UniversalContractObjINtNtNtNtCs2614o7AVePg_22multiversx_sc_scenario3api7impl_vh12vm_hooks_api10VMHooksApiNtNtB1H_9debug_api15DebugApiBackendEENtNtCs141FUTAEp3L_14liquid_staking14liquidity_pool19LiquidityPoolModule19mint_unstake_tokensNtNtB3E_7structs22UnstakeTokenAttributesECs25HLPETZpNm_4test
FN:13,_RNvYINtNtNtCsd0DXYhglbat_13multiversx_sc13contract_base22universal_contract_obj20UniversalContractObjINtNtNtNtCs2614o7AVePg_22multiversx_sc_scenario3api7impl_vh12vm_hooks_api10VMHooksApiNtNtB1G_9debug_api15DebugApiBackendEENtNtCs141FUTAEp3L_14liquid_staking14liquidity_pool16EndpointWrappers17callback_selectorCs25HLPETZpNm_4test
FN:13,_RNvYINtNtNtCsd0DXYhglbat_13multiversx_sc13contract_base22universal_contract_obj20UniversalContractObjINtNtNtNtCs2614o7AVePg_22multiversx_sc_scenario3api7impl_vh12vm_hooks_api10VMHooksApiNtNtB1G_9debug_api15DebugApiBackendEENtNtCs141FUTAEp3L_14liquid_staking14liquidity_pool16EndpointWrappers4callCs25HLPETZpNm_4test
FN:13,_RNvYINtNtNtCsd0DXYhglbat_13multiversx_sc13contract_base22universal_contract_obj20UniversalContractObjINtNtNtNtCs2614o7AVePg_22multiversx_sc_scenario3api7impl_vh12vm_hooks_api10VMHooksApiNtNtB1G_9debug_api15DebugApiBackendEENtNtCs141FUTAEp3L_14liquid_staking14liquidity_pool16EndpointWrappers8callbackCs25HLPETZpNm_4test
FN:76,_RNvYINtNtNtCsd0DXYhglbat_13multiversx_sc13contract_base22universal_contract_obj20UniversalContractObjINtNtNtNtCs2614o7AVePg_22multiversx_sc_scenario3api7impl_vh12vm_hooks_api10VMHooksApiNtNtB1G_9debug_api15DebugApiBackendEENtNtCs141FUTAEp3L_14liquid_staking14liquidity_pool19LiquidityPoolModule13burn_ls_tokenCs25HLPETZpNm_4test
FN:59,_RNvYINtNtNtCsd0DXYhglbat_13multiversx_sc13contract_base22universal_contract_obj20UniversalContractObjINtNtNtNtCs2614o7AVePg_22multiversx_sc_scenario3api7impl_vh12vm_hooks_api10VMHooksApiNtNtB1G_9debug_api15DebugApiBackendEENtNtCs141FUTAEp3L_14liquid_staking14liquidity_pool19LiquidityPoolModule13get_ls_amountCs25HLPETZpNm_4test
FN:72,_RNvYINtNtNtCsd0DXYhglbat_13multiversx_sc13contract_base22universal_contract_obj20UniversalContractObjINtNtNtNtCs2614o7AVePg_22multiversx_sc_scenario3api7impl_vh12vm_hooks_api10VMHooksApiNtNtB1G_9debug_api15DebugApiBackendEENtNtCs141FUTAEp3L_14liquid_staking14liquidity_pool19LiquidityPoolModule13mint_ls_tokenCs25HLPETZpNm_4test
FN:45,_RNvYINtNtNtCsd0DXYhglbat_13multiversx_sc13contract_base22universal_contract_obj20UniversalContractObjINtNtNtNtCs2614o7AVePg_22multiversx_sc_scenario3api7impl_vh12vm_hooks_api10VMHooksApiNtNtB1G_9debug_api15DebugApiBackendEENtNtCs141FUTAEp3L_14liquid_staking14liquidity_pool19LiquidityPoolModule15get_egld_amountCs25HLPETZpNm_4test
FN:19,_RNvYINtNtNtCsd0DXYhglbat_13multiversx_sc13contract_base22universal_contract_obj20UniversalContractObjINtNtNtNtCs2614o7AVePg_22multiversx_sc_scenario3api7impl_vh12vm_hooks_api10VMHooksApiNtNtB1G_9debug_api15DebugApiBackendEENtNtCs141FUTAEp3L_14liquid_staking14liquidity_pool19LiquidityPoolModule18pool_add_liquidityCs25HLPETZpNm_4test
FN:119,_RNvYINtNtNtCsd0DXYhglbat_13multiversx_sc13contract_base22universal_contract_obj20UniversalContractObjINtNtNtNtCs2614o7AVePg_22multiversx_sc_scenario3api7impl_vh12vm_hooks_api10VMHooksApiNtNtB1G_9debug_api15DebugApiBackendEENtNtCs141FUTAEp3L_14liquid_staking14liquidity_pool19LiquidityPoolModule19burn_unstake_tokensCs25HLPETZpNm_4test
FN:32,_RNvYINtNtNtCsd0DXYhglbat_13multiversx_sc13contract_base22universal_contract_obj20UniversalContractObjINtNtNtNtCs2614o7AVePg_22multiversx_sc_scenario3api7impl_vh12vm_hooks_api10VMHooksApiNtNtB1G_9debug_api15DebugApiBackendEENtNtCs141FUTAEp3L_14liquid_staking14liquidity_pool19LiquidityPoolModule21pool_remove_liquidityCs25HLPETZpNm_4test
FN:123,_RNvYINtNtNtCsd0DXYhglbat_13multiversx_sc13contract_base22universal_contract_obj20UniversalContractObjINtNtNtNtCs2614o7AVePg_22multiversx_sc_scenario3api7impl_vh12vm_hooks_api10VMHooksApiNtNtB1G_9debug_api15DebugApiBackendEENtNtCs141FUTAEp3L_14liquid_staking14liquidity_pool19LiquidityPoolModule23clean_old_unbond_epochsCs25HLPETZpNm_4test
FN:86,_RINvYINtNtNtCsd0DXYhglbat_13multiversx_sc13contract_base22universal_contract_obj20UniversalContractObjINtNtNtNtCs2614o7AVePg_22multiversx_sc_scenario3api7impl_vh12vm_hooks_api10VMHooksApiNtNtB1H_9debug_api15DebugApiBackendEENtNtCs141FUTAEp3L_14liquid_staking14liquidity_pool19LiquidityPoolModule19mint_unstake_tokensNtNtB3E_7structs22UnstakeTokenAttributesECsgub9DQDg2s9_15unDelegate_test
FN:13,_RNvYINtNtNtCsd0DXYhglbat_13multiversx_sc13contract_base22universal_contract_obj20UniversalContractObjINtNtNtNtCs2614o7AVePg_22multiversx_sc_scenario3api7impl_vh12vm_hooks_api10VMHooksApiNtNtB1G_9debug_api15DebugApiBackendEENtNtCs141FUTAEp3L_14liquid_staking14liquidity_pool16EndpointWrappers17callback_selectorCsgub9DQDg2s9_15unDelegate_test
FN:13,_RNvYINtNtNtCsd0DXYhglbat_13multiversx_sc13contract_base22universal_contract_obj20UniversalContractObjINtNtNtNtCs2614o7AVePg_22multiversx_sc_scenario3api7impl_vh12vm_hooks_api10VMHooksApiNtNtB1G_9debug_api15DebugApiBackendEENtNtCs141FUTAEp3L_14liquid_staking14liquidity_pool16EndpointWrappers4callCsgub9DQDg2s9_15unDelegate_test
FN:13,_RNvYINtNtNtCsd0DXYhglbat_13multiversx_sc13contract_base22universal_contract_obj20UniversalContractObjINtNtNtNtCs2614o7AVePg_22multiversx_sc_scenario3api7impl_vh12vm_hooks_api10VMHooksApiNtNtB1G_9debug_api15DebugApiBackendEENtNtCs141FUTAEp3L_14liquid_staking14liquidity_pool16EndpointWrappers8callbackCsgub9DQDg2s9_15unDelegate_test
FN:76,_RNvYINtNtNtCsd0DXYhglbat_13multiversx_sc13contract_base22universal_contract_obj20UniversalContractObjINtNtNtNtCs2614o7AVePg_22multiversx_sc_scenario3api7impl_vh12vm_hooks_api10VMHooksApiNtNtB1G_9debug_api15DebugApiBackendEENtNtCs141FUTAEp3L_14liquid_staking14liquidity_pool19LiquidityPoolModule13burn_ls_tokenCsgub9DQDg2s9_15unDelegate_test
FN:59,_RNvYINtNtNtCsd0DXYhglbat_13multiversx_sc13contract_base22universal_contract_obj20UniversalContractObjINtNtNtNtCs2614o7AVePg_22multiversx_sc_scenario3api7impl_vh12vm_hooks_api10VMHooksApiNtNtB1G_9debug_api15DebugApiBackendEENtNtCs141FUTAEp3L_14liquid_staking14liquidity_pool19LiquidityPoolModule13get_ls_amountCsgub9DQDg2s9_15unDelegate_test
FN:72,_RNvYINtNtNtCsd0DXYhglbat_13multiversx_sc13contract_base22universal_contract_obj20UniversalContractObjINtNtNtNtCs2614o7AVePg_22multiversx_sc_scenario3api7impl_vh12vm_hooks_api10VMHooksApiNtNtB1G_9debug_api15DebugApiBackendEENtNtCs141FUTAEp3L_14liquid_staking14liquidity_pool19LiquidityPoolModule13mint_ls_tokenCsgub9DQDg2s9_15unDelegate_test
FN:45,_RNvYINtNtNtCsd0DXYhglbat_13multiversx_sc13contract_base22universal_contract_obj20UniversalContractObjINtNtNtNtCs2614o7AVePg_22multiversx_sc_scenario3api7impl_vh12vm_hooks_api10VMHooksApiNtNtB1G_9debug_api15DebugApiBackendEENtNtCs141FUTAEp3L_14liquid_staking14liquidity_pool19LiquidityPoolModule15get_egld_amountCsgub9DQDg2s9_15unDelegate_test
FN:19,_RNvYINtNtNtCsd0DXYhglbat_13multiversx_sc13contract_base22universal_contract_obj20UniversalContractObjINtNtNtNtCs2614o7AVePg_22multiversx_sc_scenario3api7impl_vh12vm_hooks_api10VMHooksApiNtNtB1G_9debug_api15DebugApiBackendEENtNtCs141FUTAEp3L_14liquid_staking14liquidity_pool19LiquidityPoolModule18pool_add_liquidityCsgub9DQDg2s9_15unDelegate_test
FN:119,_RNvYINtNtNtCsd0DXYhglbat_13multiversx_sc13contract_base22universal_contract_obj20UniversalContractObjINtNtNtNtCs2614o7AVePg_22multiversx_sc_scenario3api7impl_vh12vm_hooks_api10VMHooksApiNtNtB1G_9debug_api15DebugApiBackendEENtNtCs141FUTAEp3L_14liquid_staking14liquidity_pool19LiquidityPoolModule19burn_unstake_tokensCsgub9DQDg2s9_15unDelegate_test
FN:32,_RNvYINtNtNtCsd0DXYhglbat_13multiversx_sc13contract_base22universal_contract_obj20UniversalContractObjINtNtNtNtCs2614o7AVePg_22multiversx_sc_scenario3api7impl_vh12vm_hooks_api10VMHooksApiNtNtB1G_9debug_api15DebugApiBackendEENtNtCs141FUTAEp3L_14liquid_staking14liquidity_pool19LiquidityPoolModule21pool_remove_liquidityCsgub9DQDg2s9_15unDelegate_test
FN:123,_RNvYINtNtNtCsd0DXYhglbat_13multiversx_sc13contract_base22universal_contract_obj20UniversalContractObjINtNtNtNtCs2614o7AVePg_22multiversx_sc_scenario3api7impl_vh12vm_hooks_api10VMHooksApiNtNtB1G_9debug_api15DebugApiBackendEENtNtCs141FUTAEp3L_14liquid_staking14liquidity_pool19LiquidityPoolModule23clean_old_unbond_epochsCsgub9DQDg2s9_15unDelegate_test
FN:86,_RINvYINtNtNtCsd0DXYhglbat_13multiversx_sc13contract_base22universal_contract_obj20UniversalContractObjINtNtNtNtCs2614o7AVePg_22multiversx_sc_scenario3api7impl_vh12vm_hooks_api10VMHooksApiNtNtB1H_9debug_api15DebugApiBackendEENtNtCs141FUTAEp3L_14liquid_staking14liquidity_pool19LiquidityPoolModule19mint_unstake_tokensNtNtB3E_7structs22UnstakeTokenAttributesECscNyXpV1vtNq_11unbond_test
FN:13,_RNvYINtNtNtCsd0DXYhglbat_13multiversx_sc13contract_base22universal_contract_obj20UniversalContractObjINtNtNtNtCs2614o7AVePg_22multiversx_sc_scenario3api7impl_vh12vm_hooks_api10VMHooksApiNtNtB1G_9debug_api15DebugApiBackendEENtNtCs141FUTAEp3L_14liquid_staking14liquidity_pool16EndpointWrappers17callback_selectorCscNyXpV1vtNq_11unbond_test
FN:13,_RNvYINtNtNtCsd0DXYhglbat_13multiversx_sc13contract_base22universal_contract_obj20UniversalContractObjINtNtNtNtCs2614o7AVePg_22multiversx_sc_scenario3api7impl_vh12vm_hooks_api10VMHooksApiNtNtB1G_9debug_api15DebugApiBackendEENtNtCs141FUTAEp3L_14liquid_staking14liquidity_pool16EndpointWrappers4callCscNyXpV1vtNq_11unbond_test
FN:13,_RNvYINtNtNtCsd0DXYhglbat_13multiversx_sc13contract_base22universal_contract_obj20UniversalContractObjINtNtNtNtCs2614o7AVePg_22multiversx_sc_scenario3api7impl_vh12vm_hooks_api10VMHooksApiNtNtB1G_9debug_api15DebugApiBackendEENtNtCs141FUTAEp3L_14liquid_staking14liquidity_pool16EndpointWrappers8callbackCscNyXpV1vtNq_11unbond_test
FN:76,_RNvYINtNtNtCsd0DXYhglbat_13multiversx_sc13contract_base22universal_contract_obj20UniversalContractObjINtNtNtNtCs2614o7AVePg_22multiversx_sc_scenario3api7impl_vh12vm_hooks_api10VMHooksApiNtNtB1G_9debug_api15DebugApiBackendEENtNtCs141FUTAEp3L_14liquid_staking14liquidity_pool19LiquidityPoolModule13burn_ls_tokenCscNyXpV1vtNq_11unbond_test
FN:59,_RNvYINtNtNtCsd0DXYhglbat_13multiversx_sc13contract_base22universal_contract_obj20UniversalContractObjINtNtNtNtCs2614o7AVePg_22multiversx_sc_scenario3api7impl_vh12vm_hooks_api10VMHooksApiNtNtB1G_9debug_api15DebugApiBackendEENtNtCs141FUTAEp3L_14liquid_staking14liquidity_pool19LiquidityPoolModule13get_ls_amountCscNyXpV1vtNq_11unbond_test
FN:72,_RNvYINtNtNtCsd0DXYhglbat_13multiversx_sc13contract_base22universal_contract_obj20UniversalContractObjINtNtNtNtCs2614o7AVePg_22multiversx_sc_scenario3api7impl_vh12vm_hooks_api10VMHooksApiNtNtB1G_9debug_api15DebugApiBackendEENtNtCs141FUTAEp3L_14liquid_staking14liquidity_pool19LiquidityPoolModule13mint_ls_tokenCscNyXpV1vtNq_11unbond_test
FN:45,_RNvYINtNtNtCsd0DXYhglbat_13multiversx_sc13contract_base22universal_contract_obj20UniversalContractObjINtNtNtNtCs2614o7AVePg_22multiversx_sc_scenario3api7impl_vh12vm_hooks_api10VMHooksApiNtNtB1G_9debug_api15DebugApiBackendEENtNtCs141FUTAEp3L_14liquid_staking14liquidity_pool19LiquidityPoolModule15get_egld_amountCscNyXpV1vtNq_11unbond_test
FN:19,_RNvYINtNtNtCsd0DXYhglbat_13multiversx_sc13contract_base22universal_contract_obj20UniversalContractObjINtNtNtNtCs2614o7AVePg_22multiversx_sc_scenario3api7impl_vh12vm_hooks_api10VMHooksApiNtNtB1G_9debug_api15DebugApiBackendEENtNtCs141FUTAEp3L_14liquid_staking14liquidity_pool19LiquidityPoolModule18pool_add_liquidityCscNyXpV1vtNq_11unbond_test
FN:119,_RNvYINtNtNtCsd0DXYhglbat_13multiversx_sc13contract_base22universal_contract_obj20UniversalContractObjINtNtNtNtCs2614o7AVePg_22multiversx_sc_scenario3api7impl_vh12vm_hooks_api10VMHooksApiNtNtB1G_9debug_api15DebugApiBackendEENtNtCs141FUTAEp3L_14liquid_staking14liquidity_pool19LiquidityPoolModule19burn_unstake_tokensCscNyXpV1vtNq_11unbond_test
FN:32,_RNvYINtNtNtCsd0DXYhglbat_13multiversx_sc13contract_base22universal_contract_obj20UniversalContractObjINtNtNtNtCs2614o7AVePg_22multiversx_sc_scenario3api7impl_vh12vm_hooks_api10VMHooksApiNtNtB1G_9debug_api15DebugApiBackendEENtNtCs141FUTAEp3L_14liquid_staking14liquidity_pool19LiquidityPoolModule21pool_remove_liquidityCscNyXpV1vtNq_11unbond_test
FN:123,_RNvYINtNtNtCsd0DXYhglbat_13multiversx_sc13contract_base22universal_contract_obj20UniversalContractObjINtNtNtNtCs2614o7AVePg_22multiversx_sc_scenario3api7impl_vh12vm_hooks_api10VMHooksApiNtNtB1G_9debug_api15DebugApiBackendEENtNtCs141FUTAEp3L_14liquid_staking14liquidity_pool19LiquidityPoolModule23clean_old_unbond_epochsCscNyXpV1vtNq_11unbond_test
FNDA:5,_RINvYINtNtNtCsd0DXYhglbat_13multiversx_sc13contract_base22universal_contract_obj20UniversalContractObjINtNtNtNtCs2614o7AVePg_22multiversx_sc_scenario3api7impl_vh12vm_hooks_api10VMHooksApiNtNtB1H_9debug_api15DebugApiBackendEENtNtCs141FUTAEp3L_14liquid_staking14liquidity_pool19LiquidityPoolModule19mint_unstake_tokensNtNtB3E_7structs22UnstakeTokenAttributesECsbv7vZMOU1ip_13delegate_test
FNDA:0,_RNvYINtNtNtCsd0DXYhglbat_13multiversx_sc13contract_base22universal_contract_obj20UniversalContractObjINtNtNtNtCs2614o7AVePg_22multiversx_sc_scenario3api7impl_vh12vm_hooks_api10VMHooksApiNtNtB1G_9debug_api15DebugApiBackendEENtNtCs141FUTAEp3L_14liquid_staking14liquidity_pool16EndpointWrappers17callback_selectorCsbv7vZMOU1ip_13delegate_test
FNDA:66,_RNvYINtNtNtCsd0DXYhglbat_13multiversx_sc13contract_base22universal_contract_obj20UniversalContractObjINtNtNtNtCs2614o7AVePg_22multiversx_sc_scenario3api7impl_vh12vm_hooks_api10VMHooksApiNtNtB1G_9debug_api15DebugApiBackendEENtNtCs141FUTAEp3L_14liquid_staking14liquidity_pool16EndpointWrappers4callCsbv7vZMOU1ip_13delegate_test
FNDA:0,_RNvYINtNtNtCsd0DXYhglbat_13multiversx_sc13contract_base22universal_contract_obj20UniversalContractObjINtNtNtNtCs2614o7AVePg_22multiversx_sc_scenario3api7impl_vh12vm_hooks_api10VMHooksApiNtNtB1G_9debug_api15DebugApiBackendEENtNtCs141FUTAEp3L_14liquid_staking14liquidity_pool16EndpointWrappers8callbackCsbv7vZMOU1ip_13delegate_test
FNDA:5,_RNvYINtNtNtCsd0DXYhglbat_13multiversx_sc13contract_base22universal_contract_obj20UniversalContractObjINtNtNtNtCs2614o7AVePg_22multiversx_sc_scenario3api7impl_vh12vm_hooks_api10VMHooksApiNtNtB1G_9debug_api15DebugApiBackendEENtNtCs141FUTAEp3L_14liquid_staking14liquidity_pool19LiquidityPoolModule13burn_ls_tokenCsbv7vZMOU1ip_13delegate_test
FNDA:17,_RNvYINtNtNtCsd0DXYhglbat_13multiversx_sc13contract_base22universal_contract_obj20UniversalContractObjINtNtNtNtCs2614o7AVePg_22multiversx_sc_scenario3api7impl_vh12vm_hooks_api10VMHooksApiNtNtB1G_9debug_api15DebugApiBackendEENtNtCs141FUTAEp3L_14liquid_staking14liquidity_pool19LiquidityPoolModule13get_ls_amountCsbv7vZMOU1ip_13delegate_test
FNDA:17,_RNvYINtNtNtCsd0DXYhglbat_13multiversx_sc13contract_base22universal_contract_obj20UniversalContractObjINtNtNtNtCs2614o7AVePg_22multiversx_sc_scenario3api7impl_vh12vm_hooks_api10VMHooksApiNtNtB1G_9debug_api15DebugApiBackendEENtNtCs141FUTAEp3L_14liquid_staking14liquidity_pool19LiquidityPoolModule13mint_ls_tokenCsbv7vZMOU1ip_13delegate_test
FNDA:5,_RNvYINtNtNtCsd0DXYhglbat_13multiversx_sc13contract_base22universal_contract_obj20UniversalContractObjINtNtNtNtCs2614o7AVePg_22multiversx_sc_scenario3api7impl_vh12vm_hooks_api10VMHooksApiNtNtB1G_9debug_api15DebugApiBackendEENtNtCs141FUTAEp3L_14liquid_staking14liquidity_pool19LiquidityPoolModule15get_egld_amountCsbv7vZMOU1ip_13delegate_test
FNDA:17,_RNvYINtNtNtCsd0DXYhglbat_13multiversx_sc13contract_base22universal_contract_obj20UniversalContractObjINtNtNtNtCs2614o7AVePg_22multiversx_sc_scenario3api7impl_vh12vm_hooks_api10VMHooksApiNtNtB1G_9debug_api15DebugApiBackendEENtNtCs141FUTAEp3L_14liquid_staking14liquidity_pool19LiquidityPoolModule18pool_add_liquidityCsbv7vZMOU1ip_13delegate_test
FNDA:0,_RNvYINtNtNtCsd0DXYhglbat_13multiversx_sc13contract_base22universal_contract_obj20UniversalContractObjINtNtNtNtCs2614o7AVePg_22multiversx_sc_scenario3api7impl_vh12vm_hooks_api10VMHooksApiNtNtB1G_9debug_api15DebugApiBackendEENtNtCs141FUTAEp3L_14liquid_staking14liquidity_pool19LiquidityPoolModule19burn_unstake_tokensCsbv7vZMOU1ip_13delegate_test
FNDA:5,_RNvYINtNtNtCsd0DXYhglbat_13multiversx_sc13contract_base22universal_contract_obj20UniversalContractObjINtNtNtNtCs2614o7AVePg_22multiversx_sc_scenario3api7impl_vh12vm_hooks_api10VMHooksApiNtNtB1G_9debug_api15DebugApiBackendEENtNtCs141FUTAEp3L_14liquid_staking14liquidity_pool19LiquidityPoolModule21pool_remove_liquidityCsbv7vZMOU1ip_13delegate_test
FNDA:0,_RNvYINtNtNtCsd0DXYhglbat_13multiversx_sc13contract_base22universal_contract_obj20UniversalContractObjINtNtNtNtCs2614o7AVePg_22multiversx_sc_scenario3api7impl_vh12vm_hooks_api10VMHooksApiNtNtB1G_9debug_api15DebugApiBackendEENtNtCs141FUTAEp3L_14liquid_staking14liquidity_pool19LiquidityPoolModule23clean_old_unbond_epochsCsbv7vZMOU1ip_13delegate_test
FNDA:0,_RNvYpNtNtCs2edAa8LGkSL_14liquid_staking14liquidity_pool19LiquidityPoolModule18pool_add_liquidityB7_
FNDA:0,_RNvYpNtNtCs2edAa8LGkSL_14liquid_staking14liquidity_pool19LiquidityPoolModule21pool_remove_liquidityB7_
FNDA:0,_RNvYpNtNtCs2edAa8LGkSL_14liquid_staking14liquidity_pool19LiquidityPoolModule15get_egld_amountB7_
FNDA:0,_RNvYpNtNtCs2edAa8LGkSL_14liquid_staking14liquidity_pool19LiquidityPoolModule13get_ls_amountB7_
FNDA:0,_RNvYpNtNtCs2edAa8LGkSL_14liquid_staking14liquidity_pool19LiquidityPoolModule13mint_ls_tokenB7_
FNDA:0,_RNvYpNtNtCs2edAa8LGkSL_14liquid_staking14liquidity_pool19LiquidityPoolModule13burn_ls_tokenB7_
FNDA:0,_RINvYpNtNtCs2edAa8LGkSL_14liquid_staking14liquidity_pool19LiquidityPoolModule19mint_unstake_tokenspEB8_
FNDA:0,_RNvYpNtNtCs2edAa8LGkSL_14liquid_staking14liquidity_pool19LiquidityPoolModule19burn_unstake_tokensB7_
FNDA:0,_RNvYpNtNtCs2edAa8LGkSL_14liquid_staking14liquidity_pool19LiquidityPoolModule23clean_old_unbond_epochsB7_
FNDA:0,_RNvYpNtNtCs2edAa8LGkSL_14liquid_staking14liquidity_pool16EndpointWrappers4callB7_
FNDA:0,_RNvYpNtNtCs2edAa8LGkSL_14liquid_staking14liquidity_pool16EndpointWrappers17callback_selectorB7_
FNDA:0,_RNvYpNtNtCs2edAa8LGkSL_14liquid_staking14liquidity_pool16EndpointWrappers8callbackB7_
FNDA:0,_RNvXs1_NtCs2edAa8LGkSL_14liquid_staking14liquidity_poolNtB5_11AbiProviderNtNtNtCsd0DXYhglbat_13multiversx_sc13contract_base21contract_abi_provider19ContractAbiProvider3abi
FNDA:0,_RNvXININtCs2edAa8LGkSL_14liquid_staking14liquidity_pools9_0pEINtB5_11ContractObjpENtNtNtCsd0DXYhglbat_13multiversx_sc13contract_base17callable_contract16CallableContract4callB7_
FNDA:0,_RINvNtCs2edAa8LGkSL_14liquid_staking14liquidity_pool12contract_objpEB4_
FNDA:0,_RINvXsa_NtCs2edAa8LGkSL_14liquid_staking14liquidity_poolNtB6_15ContractBuilderNtNtNtCsd0DXYhglbat_13multiversx_sc13contract_base17callable_contract23CallableContractBuilder16new_contract_objpEB8_
FNDA:5,_RINvYINtNtNtCsd0DXYhglbat_13multiversx_sc13contract_base22universal_contract_obj20UniversalContractObjINtNtNtNtCs2614o7AVePg_22multiversx_sc_scenario3api7impl_vh12vm_hooks_api10VMHooksApiNtNtB1H_9debug_api15DebugApiBackendEENtNtCs141FUTAEp3L_14liquid_staking14liquidity_pool19LiquidityPoolModule19mint_unstake_tokensNtNtB3E_7structs22UnstakeTokenAttributesECs25HLPETZpNm_4test
FNDA:0,_RNvYINtNtNtCsd0DXYhglbat_13multiversx_sc13contract_base22universal_contract_obj20UniversalContractObjINtNtNtNtCs2614o7AVePg_22multiversx_sc_scenario3api7impl_vh12vm_hooks_api10VMHooksApiNtNtB1G_9debug_api15DebugApiBackendEENtNtCs141FUTAEp3L_14liquid_staking14liquidity_pool16EndpointWrappers17callback_selectorCs25HLPETZpNm_4test
FNDA:64,_RNvYINtNtNtCsd0DXYhglbat_13multiversx_sc13contract_base22universal_contract_obj20UniversalContractObjINtNtNtNtCs2614o7AVePg_22multiversx_sc_scenario3api7impl_vh12vm_hooks_api10VMHooksApiNtNtB1G_9debug_api15DebugApiBackendEENtNtCs141FUTAEp3L_14liquid_staking14liquidity_pool16EndpointWrappers4callCs25HLPETZpNm_4test
FNDA:0,_RNvYINtNtNtCsd0DXYhglbat_13multiversx_sc13contract_base22universal_contract_obj20UniversalContractObjINtNtNtNtCs2614o7AVePg_22multiversx_sc_scenario3api7impl_vh12vm_hooks_api10VMHooksApiNtNtB1G_9debug_api15DebugApiBackendEENtNtCs141FUTAEp3L_14liquid_staking14liquidity_pool16EndpointWrappers8callbackCs25HLPETZpNm_4test
FNDA:5,_RNvYINtNtNtCsd0DXYhglbat_13multiversx_sc13contract_base22universal_contract_obj20UniversalContractObjINtNtNtNtCs2614o7AVePg_22multiversx_sc_scenario3api7impl_vh12vm_hooks_api10VMHooksApiNtNtB1G_9debug_api15DebugApiBackendEENtNtCs141FUTAEp3L_14liquid_staking14liquidity_pool19LiquidityPoolModule13burn_ls_tokenCs25HLPETZpNm_4test
FNDA:9,_RNvYINtNtNtCsd0DXYhglbat_13multiversx_sc13contract_base22universal_contract_obj20UniversalContractObjINtNtNtNtCs2614o7AVePg_22multiversx_sc_scenario3api7impl_vh12vm_hooks_api10VMHooksApiNtNtB1G_9debug_api15DebugApiBackendEENtNtCs141FUTAEp3L_14liquid_staking14liquidity_pool19LiquidityPoolModule13get_ls_amountCs25HLPETZpNm_4test
FNDA:9,_RNvYINtNtNtCsd0DXYhglbat_13multiversx_sc13contract_base22universal_contract_obj20UniversalContractObjINtNtNtNtCs2614o7AVePg_22multiversx_sc_scenario3api7impl_vh12vm_hooks_api10VMHooksApiNtNtB1G_9debug_api15DebugApiBackendEENtNtCs141FUTAEp3L_14liquid_staking14liquidity_pool19LiquidityPoolModule13mint_ls_tokenCs25HLPETZpNm_4test
FNDA:5,_RNvYINtNtNtCsd0DXYhglbat_13multiversx_sc13contract_base22universal_contract_obj20UniversalContractObjINtNtNtNtCs2614o7AVePg_22multiversx_sc_scenario3api7impl_vh12vm_hooks_api10VMHooksApiNtNtB1G_9debug_api15DebugApiBackendEENtNtCs141FUTAEp3L_14liquid_staking14liquidity_pool19LiquidityPoolModule15get_egld_amountCs25HLPETZpNm_4test
FNDA:9,_RNvYINtNtNtCsd0DXYhglbat_13multiversx_sc13contract_base22universal_contract_obj20UniversalContractObjINtNtNtNtCs2614o7AVePg_22multiversx_sc_scenario3api7impl_vh12vm_hooks_api10VMHooksApiNtNtB1G_9debug_api15DebugApiBackendEENtNtCs141FUTAEp3L_14liquid_staking14liquidity_pool19LiquidityPoolModule18pool_add_liquidityCs25HLPETZpNm_4test
FNDA:2,_RNvYINtNtNtCsd0DXYhglbat_13multiversx_sc13contract_base22universal_contract_obj20UniversalContractObjINtNtNtNtCs2614o7AVePg_22multiversx_sc_scenario3api7impl_vh12vm_hooks_api10VMHooksApiNtNtB1G_9debug_api15DebugApiBackendEENtNtCs141FUTAEp3L_14liquid_staking14liquidity_pool19LiquidityPoolModule19burn_unstake_tokensCs25HLPETZpNm_4test
FNDA:5,_RNvYINtNtNtCsd0DXYhglbat_13multiversx_sc13contract_base22universal_contract_obj20UniversalContractObjINtNtNtNtCs2614o7AVePg_22multiversx_sc_scenario3api7impl_vh12vm_hooks_api10VMHooksApiNtNtB1G_9debug_api15DebugApiBackendEENtNtCs141FUTAEp3L_14liquid_staking14liquidity_pool19LiquidityPoolModule21pool_remove_liquidityCs25HLPETZpNm_4test
FNDA:0,_RNvYINtNtNtCsd0DXYhglbat_13multiversx_sc13contract_base22universal_contract_obj20UniversalContractObjINtNtNtNtCs2614o7AVePg_22multiversx_sc_scenario3api7impl_vh12vm_hooks_api10VMHooksApiNtNtB1G_9debug_api15DebugApiBackendEENtNtCs141FUTAEp3L_14liquid_staking14liquidity_pool19LiquidityPoolModule23clean_old_unbond_epochsCs25HLPETZpNm_4test
FNDA:18,_RINvYINtNtNtCsd0DXYhglbat_13multiversx_sc13contract_base22universal_contract_obj20UniversalContractObjINtNtNtNtCs2614o7AVePg_22multiversx_sc_scenario3api7impl_vh12vm_hooks_api10VMHooksApiNtNtB1H_9debug_api15DebugApiBackendEENtNtCs141FUTAEp3L_14liquid_staking14liquidity_pool19LiquidityPoolModule19mint_unstake_tokensNtNtB3E_7structs22UnstakeTokenAttributesECsgub9DQDg2s9_15unDelegate_test
FNDA:0,_RNvYINtNtNtCsd0DXYhglbat_13multiversx_sc13contract_base22universal_contract_obj20UniversalContractObjINtNtNtNtCs2614o7AVePg_22multiversx_sc_scenario3api7impl_vh12vm_hooks_api10VMHooksApiNtNtB1G_9debug_api15DebugApiBackendEENtNtCs141FUTAEp3L_14liquid_staking14liquidity_pool16EndpointWrappers17callback_selectorCsgub9DQDg2s9_15unDelegate_test
FNDA:1642,_RNvYINtNtNtCsd0DXYhglbat_13multiversx_sc13contract_base22universal_contract_obj20UniversalContractObjINtNtNtNtCs2614o7AVePg_22multiversx_sc_scenario3api7impl_vh12vm_hooks_api10VMHooksApiNtNtB1G_9debug_api15DebugApiBackendEENtNtCs141FUTAEp3L_14liquid_staking14liquidity_pool16EndpointWrappers4callCsgub9DQDg2s9_15unDelegate_test
FNDA:0,_RNvYINtNtNtCsd0DXYhglbat_13multiversx_sc13contract_base22universal_contract_obj20UniversalContractObjINtNtNtNtCs2614o7AVePg_22multiversx_sc_scenario3api7impl_vh12vm_hooks_api10VMHooksApiNtNtB1G_9debug_api15DebugApiBackendEENtNtCs141FUTAEp3L_14liquid_staking14liquidity_pool16EndpointWrappers8callbackCsgub9DQDg2s9_15unDelegate_test
FNDA:20,_RNvYINtNtNtCsd0DXYhglbat_13multiversx_sc13contract_base22universal_contract_obj20UniversalContractObjINtNtNtNtCs2614o7AVePg_22multiversx_sc_scenario3api7impl_vh12vm_hooks_api10VMHooksApiNtNtB1G_9debug_api15DebugApiBackendEENtNtCs141FUTAEp3L_14liquid_staking14liquidity_pool19LiquidityPoolModule13burn_ls_tokenCsgub9DQDg2s9_15unDelegate_test
FNDA:36,_RNvYINtNtNtCsd0DXYhglbat_13multiversx_sc13contract_base22universal_contract_obj20UniversalContractObjINtNtNtNtCs2614o7AVePg_22multiversx_sc_scenario3api7impl_vh12vm_hooks_api10VMHooksApiNtNtB1G_9debug_api15DebugApiBackendEENtNtCs141FUTAEp3L_14liquid_staking14liquidity_pool19LiquidityPoolModule13get_ls_amountCsgub9DQDg2s9_15unDelegate_test
FNDA:36,_RNvYINtNtNtCsd0DXYhglbat_13multiversx_sc13contract_base22universal_contract_obj20UniversalContractObjINtNtNtNtCs2614o7AVePg_22multiversx_sc_scenario3api7impl_vh12vm_hooks_api10VMHooksApiNtNtB1G_9debug_api15DebugApiBackendEENtNtCs141FUTAEp3L_14liquid_staking14liquidity_pool19LiquidityPoolModule13mint_ls_tokenCsgub9DQDg2s9_15unDelegate_test
FNDA:20,_RNvYINtNtNtCsd0DXYhglbat_13multiversx_sc13contract_base22universal_contract_obj20UniversalContractObjINtNtNtNtCs2614o7AVePg_22multiversx_sc_scenario3api7impl_vh12vm_hooks_api10VMHooksApiNtNtB1G_9debug_api15DebugApiBackendEENtNtCs141FUTAEp3L_14liquid_staking14liquidity_pool19LiquidityPoolModule15get_egld_amountCsgub9DQDg2s9_15unDelegate_test
FNDA:36,_RNvYINtNtNtCsd0DXYhglbat_13multiversx_sc13contract_base22universal_contract_obj20UniversalContractObjINtNtNtNtCs2614o7AVePg_22multiversx_sc_scenario3api7impl_vh12vm_hooks_api10VMHooksApiNtNtB1G_9debug_api15DebugApiBackendEENtNtCs141FUTAEp3L_14liquid_staking14liquidity_pool19LiquidityPoolModule18pool_add_liquidityCsgub9DQDg2s9_15unDelegate_test
FNDA:0,_RNvYINtNtNtCsd0DXYhglbat_13multiversx_sc13contract_base22universal_contract_obj20UniversalContractObjINtNtNtNtCs2614o7AVePg_22multiversx_sc_scenario3api7impl_vh12vm_hooks_api10VMHooksApiNtNtB1G_9debug_api15DebugApiBackendEENtNtCs141FUTAEp3L_14liquid_staking14liquidity_pool19LiquidityPoolModule19burn_unstake_tokensCsgub9DQDg2s9_15unDelegate_test
FNDA:20,_RNvYINtNtNtCsd0DXYhglbat_13multiversx_sc13contract_base22universal_contract_obj20UniversalContractObjINtNtNtNtCs2614o7AVePg_22multiversx_sc_scenario3api7impl_vh12vm_hooks_api10VMHooksApiNtNtB1G_9debug_api15DebugApiBackendEENtNtCs141FUTAEp3L_14liquid_staking14liquidity_pool19LiquidityPoolModule21pool_remove_liquidityCsgub9DQDg2s9_15unDelegate_test
FNDA:1,_RNvYINtNtNtCsd0DXYhglbat_13multiversx_sc13contract_base22universal_contract_obj20UniversalContractObjINtNtNtNtCs2614o7AVePg_22multiversx_sc_scenario3api7impl_vh12vm_hooks_api10VMHooksApiNtNtB1G_9debug_api15DebugApiBackendEENtNtCs141FUTAEp3L_14liquid_staking14liquidity_pool19LiquidityPoolModule23clean_old_unbond_epochsCsgub9DQDg2s9_15unDelegate_test
FNDA:8,_RINvYINtNtNtCsd0DXYhglbat_13multiversx_sc13contract_base22universal_contract_obj20UniversalContractObjINtNtNtNtCs2614o7AVePg_22multiversx_sc_scenario3api7impl_vh12vm_hooks_api10VMHooksApiNtNtB1H_9debug_api15DebugApiBackendEENtNtCs141FUTAEp3L_14liquid_staking14liquidity_pool19LiquidityPoolModule19mint_unstake_tokensNtNtB3E_7structs22UnstakeTokenAttributesECscNyXpV1vtNq_11unbond_test
FNDA:0,_RNvYINtNtNtCsd0DXYhglbat_13multiversx_sc13contract_base22universal_contract_obj20UniversalContractObjINtNtNtNtCs2614o7AVePg_22multiversx_sc_scenario3api7impl_vh12vm_hooks_api10VMHooksApiNtNtB1G_9debug_api15DebugApiBackendEENtNtCs141FUTAEp3L_14liquid_staking14liquidity_pool16EndpointWrappers17callback_selectorCscNyXpV1vtNq_11unbond_test
FNDA:61,_RNvYINtNtNtCsd0DXYhglbat_13multiversx_sc13contract_base22universal_contract_obj20UniversalContractObjINtNtNtNtCs2614o7AVePg_22multiversx_sc_scenario3api7impl_vh12vm_hooks_api10VMHooksApiNtNtB1G_9debug_api15DebugApiBackendEENtNtCs141FUTAEp3L_14liquid_staking14liquidity_pool16EndpointWrappers4callCscNyXpV1vtNq_11unbond_test
FNDA:0,_RNvYINtNtNtCsd0DXYhglbat_13multiversx_sc13contract_base22universal_contract_obj20UniversalContractObjINtNtNtNtCs2614o7AVePg_22multiversx_sc_scenario3api7impl_vh12vm_hooks_api10VMHooksApiNtNtB1G_9debug_api15DebugApiBackendEENtNtCs141FUTAEp3L_14liquid_staking14liquidity_pool16EndpointWrappers8callbackCscNyXpV1vtNq_11unbond_test
FNDA:8,_RNvYINtNtNtCsd0DXYhglbat_13multiversx_sc13contract_base22universal_contract_obj20UniversalContractObjINtNtNtNtCs2614o7AVePg_22multiversx_sc_scenario3api7impl_vh12vm_hooks_api10VMHooksApiNtNtB1G_9debug_api15DebugApiBackendEENtNtCs141FUTAEp3L_14liquid_staking14liquidity_pool19LiquidityPoolModule13burn_ls_tokenCscNyXpV1vtNq_11unbond_test
FNDA:8,_RNvYINtNtNtCsd0DXYhglbat_13multiversx_sc13contract_base22universal_contract_obj20UniversalContractObjINtNtNtNtCs2614o7AVePg_22multiversx_sc_scenario3api7impl_vh12vm_hooks_api10VMHooksApiNtNtB1G_9debug_api15DebugApiBackendEENtNtCs141FUTAEp3L_14liquid_staking14liquidity_pool19LiquidityPoolModule13get_ls_amountCscNyXpV1vtNq_11unbond_test
FNDA:8,_RNvYINtNtNtCsd0DXYhglbat_13multiversx_sc13contract_base22universal_contract_obj20UniversalContractObjINtNtNtNtCs2614o7AVePg_22multiversx_sc_scenario3api7impl_vh12vm_hooks_api10VMHooksApiNtNtB1G_9debug_api15DebugApiBackendEENtNtCs141FUTAEp3L_14liquid_staking14liquidity_pool19LiquidityPoolModule13mint_ls_tokenCscNyXpV1vtNq_11unbond_test
FNDA:8,_RNvYINtNtNtCsd0DXYhglbat_13multiversx_sc13contract_base22universal_contract_obj20UniversalContractObjINtNtNtNtCs2614o7AVePg_22multiversx_sc_scenario3api7impl_vh12vm_hooks_api10VMHooksApiNtNtB1G_9debug_api15DebugApiBackendEENtNtCs141FUTAEp3L_14liquid_staking14liquidity_pool19LiquidityPoolModule15get_egld_amountCscNyXpV1vtNq_11unbond_test
FNDA:8,_RNvYINtNtNtCsd0DXYhglbat_13multiversx_sc13contract_base22universal_contract_obj20UniversalContractObjINtNtNtNtCs2614o7AVePg_22multiversx_sc_scenario3api7impl_vh12vm_hooks_api10VMHooksApiNtNtB1G_9debug_api15DebugApiBackendEENtNtCs141FUTAEp3L_14liquid_staking14liquidity_pool19LiquidityPoolModule18pool_add_liquidityCscNyXpV1vtNq_11unbond_test
FNDA:2,_RNvYINtNtNtCsd0DXYhglbat_13multiversx_sc13contract_base22universal_contract_obj20UniversalContractObjINtNtNtNtCs2614o7AVePg_22multiversx_sc_scenario3api7impl_vh12vm_hooks_api10VMHooksApiNtNtB1G_9debug_api15DebugApiBackendEENtNtCs141FUTAEp3L_14liquid_staking14liquidity_pool19LiquidityPoolModule19burn_unstake_tokensCscNyXpV1vtNq_11unbond_test
FNDA:8,_RNvYINtNtNtCsd0DXYhglbat_13multiversx_sc13contract_base22universal_contract_obj20UniversalContractObjINtNtNtNtCs2614o7AVePg_22multiversx_sc_scenario3api7impl_vh12vm_hooks_api10VMHooksApiNtNtB1G_9debug_api15DebugApiBackendEENtNtCs141FUTAEp3L_14liquid_staking14liquidity_pool19LiquidityPoolModule21pool_remove_liquidityCscNyXpV1vtNq_11unbond_test
FNDA:1,_RNvYINtNtNtCsd0DXYhglbat_13multiversx_sc13contract_base22universal_contract_obj20UniversalContractObjINtNtNtNtCs2614o7AVePg_22multiversx_sc_scenario3api7impl_vh12vm_hooks_api10VMHooksApiNtNtB1G_9debug_api15DebugApiBackendEENtNtCs141FUTAEp3L_14liquid_staking14liquidity_pool19LiquidityPoolModule23clean_old_unbond_epochsCscNyXpV1vtNq_11unbond_test
FNF:10
FNH:10
DA:13,1833
DA:19,70
DA:20,70
DA:21,70
DA:22,70
DA:23,70
DA:24,70
DA:25,70
DA:32,38
DA:33,38
DA:34,38
DA:35,38
DA:36,38
DA:37,38
DA:38,38
DA:45,38
DA:46,38
DA:47,38
DA:48,0
DA:51,38
DA:52,38
DA:53,38
DA:54,38
DA:56,38
DA:59,70
DA:60,70
DA:61,28
DA:62,28
DA:64,42
DA:67,70
DA:69,70
DA:72,70
DA:73,70
DA:76,38
DA:77,38
DA:86,36
DA:87,36
DA:88,36
DA:89,31
DA:90,31
DA:91,31
DA:92,31
DA:93,31
DA:94,31
DA:95,31
DA:96,31
DA:97,31
DA:98,31
DA:99,31
DA:100,31
DA:101,31
DA:102,31
DA:103,31
DA:104,31
DA:105,31
DA:106,31
DA:107,2
DA:108,29
DA:110,31
DA:112,5
DA:113,5
DA:114,5
DA:115,5
DA:119,4
DA:120,4
DA:123,2
DA:124,2
DA:125,2
DA:126,2
DA:127,2
DA:128,2
DA:129,2
DA:130,2
DA:131,2
DA:132,2
BRF:0
BRH:0
LF:75
LH:74
end_of_record
SF:/Users/mihaieremia/GitHub/rs-egld-liquid-staking/liquid-staking/src/manage.rs
FN:237,_RNvYINtNtNtCsd0DXYhglbat_13multiversx_sc13contract_base22universal_contract_obj20UniversalContractObjINtNtNtNtCs2614o7AVePg_22multiversx_sc_scenario3api7impl_vh12vm_hooks_api10VMHooksApiNtNtB1G_9debug_api15DebugApiBackendEENtNtCs141FUTAEp3L_14liquid_staking6manage12ManageModule10claim_feesCsbv7vZMOU1ip_13delegate_test
