SF:/Users/mihaieremia/GitHub/rs-egld-liquid-staking/delegation-mock/src/delegation.rs
FN:11,_RINvCseuY2Hdvmkl_15delegation_mock12contract_objINtNtNtNtCseUmQFO6d1K9_22multiversx_sc_scenario3api7impl_vh12vm_hooks_api10VMHooksApiNtNtBP_9debug_api15DebugApiBackendEECskEhliFuVTlV_13delegate_test
FN:46,_RNCNvYINtCseuY2Hdvmkl_15delegation_mock11ContractObjINtNtNtNtCseUmQFO6d1K9_22multiversx_sc_scenario3api7impl_vh12vm_hooks_api10VMHooksApiNtNtBT_9debug_api15DebugApiBackendEENtB7_14DelegationMock10undelegate0CskEhliFuVTlV_13delegate_test
FN:48,_RNCNvYINtCseuY2Hdvmkl_15delegation_mock11ContractObjINtNtNtNtCseUmQFO6d1K9_22multiversx_sc_scenario3api7impl_vh12vm_hooks_api10VMHooksApiNtNtBT_9debug_api15DebugApiBackendEENtB7_14DelegationMock10undelegates_0CskEhliFuVTlV_13delegate_test
FN:22,_RNCNvYINtCseuY2Hdvmkl_15delegation_mock11ContractObjINtNtNtNtCseUmQFO6d1K9_22multiversx_sc_scenario3api7impl_vh12vm_hooks_api10VMHooksApiNtNtBT_9debug_api15DebugApiBackendEENtB7_14DelegationMock12deposit_egld0CskEhliFuVTlV_13delegate_test
FN:92,_RNCNvYINtCseuY2Hdvmkl_15delegation_mock11ContractObjINtNtNtNtCseUmQFO6d1K9_22multiversx_sc_scenario3api7impl_vh12vm_hooks_api10VMHooksApiNtNtBT_9debug_api15DebugApiBackendEENtB7_14DelegationMock13claim_rewards0CskEhliFuVTlV_13delegate_test
FN:31,_RNCNvYINtCseuY2Hdvmkl_15delegation_mock11ContractObjINtNtNtNtCseUmQFO6d1K9_22multiversx_sc_scenario3api7impl_vh12vm_hooks_api10VMHooksApiNtNtBT_9debug_api15DebugApiBackendEENtB7_14DelegationMock8delegate0CskEhliFuVTlV_13delegate_test
FN:33,_RNCNvYINtCseuY2Hdvmkl_15delegation_mock11ContractObjINtNtNtNtCseUmQFO6d1K9_22multiversx_sc_scenario3api7impl_vh12vm_hooks_api10VMHooksApiNtNtBT_9debug_api15DebugApiBackendEENtB7_14DelegationMock8delegates_0CskEhliFuVTlV_13delegate_test
FN:67,_RNCNvYINtCseuY2Hdvmkl_15delegation_mock11ContractObjINtNtNtNtCseUmQFO6d1K9_22multiversx_sc_scenario3api7impl_vh12vm_hooks_api10VMHooksApiNtNtBT_9debug_api15DebugApiBackendEENtB7_14DelegationMock8withdraw0CskEhliFuVTlV_13delegate_test
FN:11,_RNvXCseuY2Hdvmkl_15delegation_mockINtB2_11ContractObjINtNtNtNtCseUmQFO6d1K9_22multiversx_sc_scenario3api7impl_vh12vm_hooks_api10VMHooksApiNtNtBU_9debug_api15DebugApiBackendEENtB2_14DelegationMock15address_depositCskEhliFuVTlV_13delegate_test
FN:11,_RNvXCseuY2Hdvmkl_15delegation_mockINtB2_11ContractObjINtNtNtNtCseUmQFO6d1K9_22multiversx_sc_scenario3api7impl_vh12vm_hooks_api10VMHooksApiNtNtBU_9debug_api15DebugApiBackendEENtB2_14DelegationMock17egld_token_supplyCskEhliFuVTlV_13delegate_test
FN:11,_RNvXCseuY2Hdvmkl_15delegation_mockINtB2_11ContractObjINtNtNtNtCseUmQFO6d1K9_22multiversx_sc_scenario3api7impl_vh12vm_hooks_api10VMHooksApiNtNtBU_9debug_api15DebugApiBackendEENtB2_14DelegationMock24address_last_claim_epochCskEhliFuVTlV_13delegate_test
FN:11,_RNvXCseuY2Hdvmkl_15delegation_mockINtB2_11ContractObjINtNtNtNtCseUmQFO6d1K9_22multiversx_sc_scenario3api7impl_vh12vm_hooks_api10VMHooksApiNtNtBU_9debug_api15DebugApiBackendEENtB2_14DelegationMock24address_undelegate_epochCskEhliFuVTlV_13delegate_test
FN:11,_RNvXCseuY2Hdvmkl_15delegation_mockINtB2_11ContractObjINtNtNtNtCseUmQFO6d1K9_22multiversx_sc_scenario3api7impl_vh12vm_hooks_api10VMHooksApiNtNtBU_9debug_api15DebugApiBackendEENtB2_14DelegationMock25address_undelegate_amountCskEhliFuVTlV_13delegate_test
FN:11,_RNvXs5_CseuY2Hdvmkl_15delegation_mockINtB5_11ContractObjINtNtNtNtCseUmQFO6d1K9_22multiversx_sc_scenario3api7impl_vh12vm_hooks_api10VMHooksApiNtNtBX_9debug_api15DebugApiBackendEENtNtNtCs4WmCETBkTZ5_13multiversx_sc13contract_base17callable_contract16CallableContract4callCskEhliFuVTlV_13delegate_test
FN:37,_RNvYINtCseuY2Hdvmkl_15delegation_mock11ContractObjINtNtNtNtCseUmQFO6d1K9_22multiversx_sc_scenario3api7impl_vh12vm_hooks_api10VMHooksApiNtNtBR_9debug_api15DebugApiBackendEENtB5_14DelegationMock10undelegateCskEhliFuVTlV_13delegate_test
FN:19,_RNvYINtCseuY2Hdvmkl_15delegation_mock11ContractObjINtNtNtNtCseUmQFO6d1K9_22multiversx_sc_scenario3api7impl_vh12vm_hooks_api10VMHooksApiNtNtBR_9debug_api15DebugApiBackendEENtB5_14DelegationMock12deposit_egldCskEhliFuVTlV_13delegate_test
FN:75,_RNvYINtCseuY2Hdvmkl_15delegation_mock11ContractObjINtNtNtNtCseUmQFO6d1K9_22multiversx_sc_scenario3api7impl_vh12vm_hooks_api10VMHooksApiNtNtBR_9debug_api15DebugApiBackendEENtB5_14DelegationMock13claim_rewardsCskEhliFuVTlV_13delegate_test
FN:27,_RNvYINtCseuY2Hdvmkl_15delegation_mock11ContractObjINtNtNtNtCseUmQFO6d1K9_22multiversx_sc_scenario3api7impl_vh12vm_hooks_api10VMHooksApiNtNtBR_9debug_api15DebugApiBackendEENtB5_14DelegationMock8delegateCskEhliFuVTlV_13delegate_test
FN:54,_RNvYINtCseuY2Hdvmkl_15delegation_mock11ContractObjINtNtNtNtCseUmQFO6d1K9_22multiversx_sc_scenario3api7impl_vh12vm_hooks_api10VMHooksApiNtNtBR_9debug_api15DebugApiBackendEENtB5_14DelegationMock8withdrawCskEhliFuVTlV_13delegate_test
FN:11,_RNvYINtCseuY2Hdvmkl_15delegation_mock11ContractObjINtNtNtNtCseUmQFO6d1K9_22multiversx_sc_scenario3api7impl_vh12vm_hooks_api10VMHooksApiNtNtBR_9debug_api15DebugApiBackendEENtB5_16EndpointWrappers13call_delegateCskEhliFuVTlV_13delegate_test
FN:11,_RNvYINtCseuY2Hdvmkl_15delegation_mock11ContractObjINtNtNtNtCseUmQFO6d1K9_22multiversx_sc_scenario3api7impl_vh12vm_hooks_api10VMHooksApiNtNtBR_9debug_api15DebugApiBackendEENtB5_16EndpointWrappers13call_withdrawCskEhliFuVTlV_13delegate_test
FN:11,_RNvYINtCseuY2Hdvmkl_15delegation_mock11ContractObjINtNtNtNtCseUmQFO6d1K9_22multiversx_sc_scenario3api7impl_vh12vm_hooks_api10VMHooksApiNtNtBR_9debug_api15DebugApiBackendEENtB5_16EndpointWrappers15call_undelegateCskEhliFuVTlV_13delegate_test
FN:11,_RNvYINtCseuY2Hdvmkl_15delegation_mock11ContractObjINtNtNtNtCseUmQFO6d1K9_22multiversx_sc_scenario3api7impl_vh12vm_hooks_api10VMHooksApiNtNtBR_9debug_api15DebugApiBackendEENtB5_16EndpointWrappers17call_deposit_egldCskEhliFuVTlV_13delegate_test
FN:11,_RNvYINtCseuY2Hdvmkl_15delegation_mock11ContractObjINtNtNtNtCseUmQFO6d1K9_22multiversx_sc_scenario3api7impl_vh12vm_hooks_api10VMHooksApiNtNtBR_9debug_api15DebugApiBackendEENtB5_16EndpointWrappers18call_claim_rewardsCskEhliFuVTlV_13delegate_test
FN:11,_RNvYINtCseuY2Hdvmkl_15delegation_mock11ContractObjINtNtNtNtCseUmQFO6d1K9_22multiversx_sc_scenario3api7impl_vh12vm_hooks_api10VMHooksApiNtNtBR_9debug_api15DebugApiBackendEENtB5_16EndpointWrappers4callCskEhliFuVTlV_13delegate_test
FN:11,_RNvYINtCseuY2Hdvmkl_15delegation_mock11ContractObjINtNtNtNtCseUmQFO6d1K9_22multiversx_sc_scenario3api7impl_vh12vm_hooks_api10VMHooksApiNtNtBR_9debug_api15DebugApiBackendEENtB5_16EndpointWrappers8callbackCskEhliFuVTlV_13delegate_test
FN:11,_RNvYINtCseuY2Hdvmkl_15delegation_mock11ContractObjINtNtNtNtCseUmQFO6d1K9_22multiversx_sc_scenario3api7impl_vh12vm_hooks_api10VMHooksApiNtNtBR_9debug_api15DebugApiBackendEENtB5_16EndpointWrappers9call_initCskEhliFuVTlV_13delegate_test
FN:11,_RINvCseuY2Hdvmkl_15delegation_mock12contract_objINtNtNtNtCseUmQFO6d1K9_22multiversx_sc_scenario3api7impl_vh12vm_hooks_api10VMHooksApiNtNtBP_9debug_api15DebugApiBackendEECsaR2MVHtCDM0_4test
FN:46,_RNCNvYINtCseuY2Hdvmkl_15delegation_mock11ContractObjINtNtNtNtCseUmQFO6d1K9_22multiversx_sc_scenario3api7impl_vh12vm_hooks_api10VMHooksApiNtNtBT_9debug_api15DebugApiBackendEENtB7_14DelegationMock10undelegate0CsaR2MVHtCDM0_4test
FN:48,_RNCNvYINtCseuY2Hdvmkl_15delegation_mock11ContractObjINtNtNtNtCseUmQFO6d1K9_22multiversx_sc_scenario3api7impl_vh12vm_hooks_api10VMHooksApiNtNtBT_9debug_api15DebugApiBackendEENtB7_14DelegationMock10undelegates_0CsaR2MVHtCDM0_4test
FN:22,_RNCNvYINtCseuY2Hdvmkl_15delegation_mock11ContractObjINtNtNtNtCseUmQFO6d1K9_22multiversx_sc_scenario3api7impl_vh12vm_hooks_api10VMHooksApiNtNtBT_9debug_api15DebugApiBackendEENtB7_14DelegationMock12deposit_egld0CsaR2MVHtCDM0_4test
FN:92,_RNCNvYINtCseuY2Hdvmkl_15delegation_mock11ContractObjINtNtNtNtCseUmQFO6d1K9_22multiversx_sc_scenario3api7impl_vh12vm_hooks_api10VMHooksApiNtNtBT_9debug_api15DebugApiBackendEENtB7_14DelegationMock13claim_rewards0CsaR2MVHtCDM0_4test
FN:31,_RNCNvYINtCseuY2Hdvmkl_15delegation_mock11ContractObjINtNtNtNtCseUmQFO6d1K9_22multiversx_sc_scenario3api7impl_vh12vm_hooks_api10VMHooksApiNtNtBT_9debug_api15DebugApiBackendEENtB7_14DelegationMock8delegate0CsaR2MVHtCDM0_4test
FN:33,_RNCNvYINtCseuY2Hdvmkl_15delegation_mock11ContractObjINtNtNtNtCseUmQFO6d1K9_22multiversx_sc_scenario3api7impl_vh12vm_hooks_api10VMHooksApiNtNtBT_9debug_api15DebugApiBackendEENtB7_14DelegationMock8delegates_0CsaR2MVHtCDM0_4test
FN:67,_RNCNvYINtCseuY2Hdvmkl_15delegation_mock11ContractObjINtNtNtNtCseUmQFO6d1K9_22multiversx_sc_scenario3api7impl_vh12vm_hooks_api10VMHooksApiNtNtBT_9debug_api15DebugApiBackendEENtB7_14DelegationMock8withdraw0CsaR2MVHtCDM0_4test
FN:11,_RNvXCseuY2Hdvmkl_15delegation_mockINtB2_11ContractObjINtNtNtNtCseUmQFO6d1K9_22multiversx_sc_scenario3api7impl_vh12vm_hooks_api10VMHooksApiNtNtBU_9debug_api15DebugApiBackendEENtB2_14DelegationMock15address_depositCsaR2MVHtCDM0_4test
FN:11,_RNvXCseuY2Hdvmkl_15delegation_mockINtB2_11ContractObjINtNtNtNtCseUmQFO6d1K9_22multiversx_sc_scenario3api7impl_vh12vm_hooks_api10VMHooksApiNtNtBU_9debug_api15DebugApiBackendEENtB2_14DelegationMock17egld_token_supplyCsaR2MVHtCDM0_4test
FN:11,_RNvXCseuY2Hdvmkl_15delegation_mockINtB2_11ContractObjINtNtNtNtCseUmQFO6d1K9_22multiversx_sc_scenario3api7impl_vh12vm_hooks_api10VMHooksApiNtNtBU_9debug_api15DebugApiBackendEENtB2_14DelegationMock24address_last_claim_epochCsaR2MVHtCDM0_4test
FN:11,_RNvXCseuY2Hdvmkl_15delegation_mockINtB2_11ContractObjINtNtNtNtCseUmQFO6d1K9_22multiversx_sc_scenario3api7impl_vh12vm_hooks_api10VMHooksApiNtNtBU_9debug_api15DebugApiBackendEENtB2_14DelegationMock24address_undelegate_epochCsaR2MVHtCDM0_4test
FN:11,_RNvXCseuY2Hdvmkl_15delegation_mockINtB2_11ContractObjINtNtNtNtCseUmQFO6d1K9_22multiversx_sc_scenario3api7impl_vh12vm_hooks_api10VMHooksApiNtNtBU_9debug_api15DebugApiBackendEENtB2_14DelegationMock25address_undelegate_amountCsaR2MVHtCDM0_4test
FN:11,_RNvXs5_CseuY2Hdvmkl_15delegation_mockINtB5_11ContractObjINtNtNtNtCseUmQFO6d1K9_22multiversx_sc_scenario3api7impl_vh12vm_hooks_api10VMHooksApiNtNtBX_9debug_api15DebugApiBackendEENtNtNtCs4WmCETBkTZ5_13multiversx_sc13contract_base17callable_contract16CallableContract4callCsaR2MVHtCDM0_4test
FN:37,_RNvYINtCseuY2Hdvmkl_15delegation_mock11ContractObjINtNtNtNtCseUmQFO6d1K9_22multiversx_sc_scenario3api7impl_vh12vm_hooks_api10VMHooksApiNtNtBR_9debug_api15DebugApiBackendEENtB5_14DelegationMock10undelegateCsaR2MVHtCDM0_4test
FN:19,_RNvYINtCseuY2Hdvmkl_15delegation_mock11ContractObjINtNtNtNtCseUmQFO6d1K9_22multiversx_sc_scenario3api7impl_vh12vm_hooks_api10VMHooksApiNtNtBR_9debug_api15DebugApiBackendEENtB5_14DelegationMock12deposit_egldCsaR2MVHtCDM0_4test
FN:75,_RNvYINtCseuY2Hdvmkl_15delegation_mock11ContractObjINtNtNtNtCseUmQFO6d1K9_22multiversx_sc_scenario3api7impl_vh12vm_hooks_api10VMHooksApiNtNtBR_9debug_api15DebugApiBackendEENtB5_14DelegationMock13claim_rewardsCsaR2MVHtCDM0_4test
FN:27,_RNvYINtCseuY2Hdvmkl_15delegation_mock11ContractObjINtNtNtNtCseUmQFO6d1K9_22multiversx_sc_scenario3api7impl_vh12vm_hooks_api10VMHooksApiNtNtBR_9debug_api15DebugApiBackendEENtB5_14DelegationMock8delegateCsaR2MVHtCDM0_4test
FN:54,_RNvYINtCseuY2Hdvmkl_15delegation_mock11ContractObjINtNtNtNtCseUmQFO6d1K9_22multiversx_sc_scenario3api7impl_vh12vm_hooks_api10VMHooksApiNtNtBR_9debug_api15DebugApiBackendEENtB5_14DelegationMock8withdrawCsaR2MVHtCDM0_4test
FN:11,_RNvYINtCseuY2Hdvmkl_15delegation_mock11ContractObjINtNtNtNtCseUmQFO6d1K9_22multiversx_sc_scenario3api7impl_vh12vm_hooks_api10VMHooksApiNtNtBR_9debug_api15DebugApiBackendEENtB5_16EndpointWrappers13call_delegateCsaR2MVHtCDM0_4test
FN:11,_RNvYINtCseuY2Hdvmkl_15delegation_mock11ContractObjINtNtNtNtCseUmQFO6d1K9_22multiversx_sc_scenario3api7impl_vh12vm_hooks_api10VMHooksApiNtNtBR_9debug_api15DebugApiBackendEENtB5_16EndpointWrappers13call_withdrawCsaR2MVHtCDM0_4test
FN:11,_RNvYINtCseuY2Hdvmkl_15delegation_mock11ContractObjINtNtNtNtCseUmQFO6d1K9_22multiversx_sc_scenario3api7impl_vh12vm_hooks_api10VMHooksApiNtNtBR_9debug_api15DebugApiBackendEENtB5_16EndpointWrappers15call_undelegateCsaR2MVHtCDM0_4test
FN:11,_RNvYINtCseuY2Hdvmkl_15delegation_mock11ContractObjINtNtNtNtCseUmQFO6d1K9_22multiversx_sc_scenario3api7impl_vh12vm_hooks_api10VMHooksApiNtNtBR_9debug_api15DebugApiBackendEENtB5_16EndpointWrappers17call_deposit_egldCsaR2MVHtCDM0_4test
FN:11,_RNvYINtCseuY2Hdvmkl_15delegation_mock11ContractObjINtNtNtNtCseUmQFO6d1K9_22multiversx_sc_scenario3api7impl_vh12vm_hooks_api10VMHooksApiNtNtBR_9debug_api15DebugApiBackendEENtB5_16EndpointWrappers18call_claim_rewardsCsaR2MVHtCDM0_4test
FN:11,_RNvYINtCseuY2Hdvmkl_15delegation_mock11ContractObjINtNtNtNtCseUmQFO6d1K9_22multiversx_sc_scenario3api7impl_vh12vm_hooks_api10VMHooksApiNtNtBR_9debug_api15DebugApiBackendEENtB5_16EndpointWrappers4callCsaR2MVHtCDM0_4test
FN:11,_RNvYINtCseuY2Hdvmkl_15delegation_mock11ContractObjINtNtNtNtCseUmQFO6d1K9_22multiversx_sc_scenario3api7impl_vh12vm_hooks_api10VMHooksApiNtNtBR_9debug_api15DebugApiBackendEENtB5_16EndpointWrappers8callbackCsaR2MVHtCDM0_4test
FN:11,_RNvYINtCseuY2Hdvmkl_15delegation_mock11ContractObjINtNtNtNtCseUmQFO6d1K9_22multiversx_sc_scenario3api7impl_vh12vm_hooks_api10VMHooksApiNtNtBR_9debug_api15DebugApiBackendEENtB5_16EndpointWrappers9call_initCsaR2MVHtCDM0_4test
FN:11,_RINvCseuY2Hdvmkl_15delegation_mock12contract_objINtNtNtNtCseUmQFO6d1K9_22multiversx_sc_scenario3api7impl_vh12vm_hooks_api10VMHooksApiNtNtBP_9debug_api15DebugApiBackendEECsVH6ELXPoQD_15unDelegate_test
FN:46,_RNCNvYINtCseuY2Hdvmkl_15delegation_mock11ContractObjINtNtNtNtCseUmQFO6d1K9_22multiversx_sc_scenario3api7impl_vh12vm_hooks_api10VMHooksApiNtNtBT_9debug_api15DebugApiBackendEENtB7_14DelegationMock10undelegate0CsVH6ELXPoQD_15unDelegate_test
FN:48,_RNCNvYINtCseuY2Hdvmkl_15delegation_mock11ContractObjINtNtNtNtCseUmQFO6d1K9_22multiversx_sc_scenario3api7impl_vh12vm_hooks_api10VMHooksApiNtNtBT_9debug_api15DebugApiBackendEENtB7_14DelegationMock10undelegates_0CsVH6ELXPoQD_15unDelegate_test
FN:22,_RNCNvYINtCseuY2Hdvmkl_15delegation_mock11ContractObjINtNtNtNtCseUmQFO6d1K9_22multiversx_sc_scenario3api7impl_vh12vm_hooks_api10VMHooksApiNtNtBT_9debug_api15DebugApiBackendEENtB7_14DelegationMock12deposit_egld0CsVH6ELXPoQD_15unDelegate_test
FN:92,_RNCNvYINtCseuY2Hdvmkl_15delegation_mock11ContractObjINtNtNtNtCseUmQFO6d1K9_22multiversx_sc_scenario3api7impl_vh12vm_hooks_api10VMHooksApiNtNtBT_9debug_api15DebugApiBackendEENtB7_14DelegationMock13claim_rewards0CsVH6ELXPoQD_15unDelegate_test
FN:31,_RNCNvYINtCseuY2Hdvmkl_15delegation_mock11ContractObjINtNtNtNtCseUmQFO6d1K9_22multiversx_sc_scenario3api7impl_vh12vm_hooks_api10VMHooksApiNtNtBT_9debug_api15DebugApiBackendEENtB7_14DelegationMock8delegate0CsVH6ELXPoQD_15unDelegate_test
FN:33,_RNCNvYINtCseuY2Hdvmkl_15delegation_mock11ContractObjINtNtNtNtCseUmQFO6d1K9_22multiversx_sc_scenario3api7impl_vh12vm_hooks_api10VMHooksApiNtNtBT_9debug_api15DebugApiBackendEENtB7_14DelegationMock8delegates_0CsVH6ELXPoQD_15unDelegate_test
FN:67,_RNCNvYINtCseuY2Hdvmkl_15delegation_mock11ContractObjINtNtNtNtCseUmQFO6d1K9_22multiversx_sc_scenario3api7impl_vh12vm_hooks_api10VMHooksApiNtNtBT_9debug_api15DebugApiBackendEENtB7_14DelegationMock8withdraw0CsVH6ELXPoQD_15unDelegate_test
FN:11,_RNvXCseuY2Hdvmkl_15delegation_mockINtB2_11ContractObjINtNtNtNtCseUmQFO6d1K9_22multiversx_sc_scenario3api7impl_vh12vm_hooks_api10VMHooksApiNtNtBU_9debug_api15DebugApiBackendEENtB2_14DelegationMock15address_depositCsVH6ELXPoQD_15unDelegate_test
FN:11,_RNvXCseuY2Hdvmkl_15delegation_mockINtB2_11ContractObjINtNtNtNtCseUmQFO6d1K9_22multiversx_sc_scenario3api7impl_vh12vm_hooks_api10VMHooksApiNtNtBU_9debug_api15DebugApiBackendEENtB2_14DelegationMock17egld_token_supplyCsVH6ELXPoQD_15unDelegate_test
FN:11,_RNvXCseuY2Hdvmkl_15delegation_mockINtB2_11ContractObjINtNtNtNtCseUmQFO6d1K9_22multiversx_sc_scenario3api7impl_vh12vm_hooks_api10VMHooksApiNtNtBU_9debug_api15DebugApiBackendEENtB2_14DelegationMock24address_last_claim_epochCsVH6ELXPoQD_15unDelegate_test
FN:11,_RNvXCseuY2Hdvmkl_15delegation_mockINtB2_11ContractObjINtNtNtNtCseUmQFO6d1K9_22multiversx_sc_scenario3api7impl_vh12vm_hooks_api10VMHooksApiNtNtBU_9debug_api15DebugApiBackendEENtB2_14DelegationMock24address_undelegate_epochCsVH6ELXPoQD_15unDelegate_test
FN:11,_RNvXCseuY2Hdvmkl_15delegation_mockINtB2_11ContractObjINtNtNtNtCseUmQFO6d1K9_22multiversx_sc_scenario3api7impl_vh12vm_hooks_api10VMHooksApiNtNtBU_9debug_api15DebugApiBackendEENtB2_14DelegationMock25address_undelegate_amountCsVH6ELXPoQD_15unDelegate_test
FN:11,_RNvXs5_CseuY2Hdvmkl_15delegation_mockINtB5_11ContractObjINtNtNtNtCseUmQFO6d1K9_22multiversx_sc_scenario3api7impl_vh12vm_hooks_api10VMHooksApiNtNtBX_9debug_api15DebugApiBackendEENtNtNtCs4WmCETBkTZ5_13multiversx_sc13contract_base17callable_contract16CallableContract4callCsVH6ELXPoQD_15unDelegate_test
FN:37,_RNvYINtCseuY2Hdvmkl_15delegation_mock11ContractObjINtNtNtNtCseUmQFO6d1K9_22multiversx_sc_scenario3api7impl_vh12vm_hooks_api10VMHooksApiNtNtBR_9debug_api15DebugApiBackendEENtB5_14DelegationMock10undelegateCsVH6ELXPoQD_15unDelegate_test
FN:19,_RNvYINtCseuY2Hdvmkl_15delegation_mock11ContractObjINtNtNtNtCseUmQFO6d1K9_22multiversx_sc_scenario3api7impl_vh12vm_hooks_api10VMHooksApiNtNtBR_9debug_api15DebugApiBackendEENtB5_14DelegationMock12deposit_egldCsVH6ELXPoQD_15unDelegate_test
FN:75,_RNvYINtCseuY2Hdvmkl_15delegation_mock11ContractObjINtNtNtNtCseUmQFO6d1K9_22multiversx_sc_scenario3api7impl_vh12vm_hooks_api10VMHooksApiNtNtBR_9debug_api15DebugApiBackendEENtB5_14DelegationMock13claim_rewardsCsVH6ELXPoQD_15unDelegate_test
FN:27,_RNvYINtCseuY2Hdvmkl_15delegation_mock11ContractObjINtNtNtNtCseUmQFO6d1K9_22multiversx_sc_scenario3api7impl_vh12vm_hooks_api10VMHooksApiNtNtBR_9debug_api15DebugApiBackendEENtB5_14DelegationMock8delegateCsVH6ELXPoQD_15unDelegate_test
FN:54,_RNvYINtCseuY2Hdvmkl_15delegation_mock11ContractObjINtNtNtNtCseUmQFO6d1K9_22multiversx_sc_scenario3api7impl_vh12vm_hooks_api10VMHooksApiNtNtBR_9debug_api15DebugApiBackendEENtB5_14DelegationMock8withdrawCsVH6ELXPoQD_15unDelegate_test
FN:11,_RNvYINtCseuY2Hdvmkl_15delegation_mock11ContractObjINtNtNtNtCseUmQFO6d1K9_22multiversx_sc_scenario3api7impl_vh12vm_hooks_api10VMHooksApiNtNtBR_9debug_api15DebugApiBackendEENtB5_16EndpointWrappers13call_delegateCsVH6ELXPoQD_15unDelegate_test
FN:11,_RNvYINtCseuY2Hdvmkl_15delegation_mock11ContractObjINtNtNtNtCseUmQFO6d1K9_22multiversx_sc_scenario3api7impl_vh12vm_hooks_api10VMHooksApiNtNtBR_9debug_api15DebugApiBackendEENtB5_16EndpointWrappers13call_withdrawCsVH6ELXPoQD_15unDelegate_test
FN:11,_RNvYINtCseuY2Hdvmkl_15delegation_mock11ContractObjINtNtNtNtCseUmQFO6d1K9_22multiversx_sc_scenario3api7impl_vh12vm_hooks_api10VMHooksApiNtNtBR_9debug_api15DebugApiBackendEENtB5_16EndpointWrappers15call_undelegateCsVH6ELXPoQD_15unDelegate_test
FN:11,_RNvYINtCseuY2Hdvmkl_15delegation_mock11ContractObjINtNtNtNtCseUmQFO6d1K9_22multiversx_sc_scenario3api7impl_vh12vm_hooks_api10VMHooksApiNtNtBR_9debug_api15DebugApiBackendEENtB5_16EndpointWrappers17call_deposit_egldCsVH6ELXPoQD_15unDelegate_test
FN:11,_RNvYINtCseuY2Hdvmkl_15delegation_mock11ContractObjINtNtNtNtCseUmQFO6d1K9_22multiversx_sc_scenario3api7impl_vh12vm_hooks_api10VMHooksApiNtNtBR_9debug_api15DebugApiBackendEENtB5_16EndpointWrappers18call_claim_rewardsCsVH6ELXPoQD_15unDelegate_test
FN:11,_RNvYINtCseuY2Hdvmkl_15delegation_mock11ContractObjINtNtNtNtCseUmQFO6d1K9_22multiversx_sc_scenario3api7impl_vh12vm_hooks_api10VMHooksApiNtNtBR_9debug_api15DebugApiBackendEENtB5_16EndpointWrappers4callCsVH6ELXPoQD_15unDelegate_test
FN:11,_RNvYINtCseuY2Hdvmkl_15delegation_mock11ContractObjINtNtNtNtCseUmQFO6d1K9_22multiversx_sc_scenario3api7impl_vh12vm_hooks_api10VMHooksApiNtNtBR_9debug_api15DebugApiBackendEENtB5_16EndpointWrappers8callbackCsVH6ELXPoQD_15unDelegate_test
FN:11,_RNvYINtCseuY2Hdvmkl_15delegation_mock11ContractObjINtNtNtNtCseUmQFO6d1K9_22multiversx_sc_scenario3api7impl_vh12vm_hooks_api10VMHooksApiNtNtBR_9debug_api15DebugApiBackendEENtB5_16EndpointWrappers9call_initCsVH6ELXPoQD_15unDelegate_test
FN:11,_RINvCseuY2Hdvmkl_15delegation_mock12contract_objINtNtNtNtCseUmQFO6d1K9_22multiversx_sc_scenario3api7impl_vh12vm_hooks_api10VMHooksApiNtNtBP_9debug_api15DebugApiBackendEECshHwHQpnfuGH_11unbond_test
FN:46,_RNCNvYINtCseuY2Hdvmkl_15delegation_mock11ContractObjINtNtNtNtCseUmQFO6d1K9_22multiversx_sc_scenario3api7impl_vh12vm_hooks_api10VMHooksApiNtNtBT_9debug_api15DebugApiBackendEENtB7_14DelegationMock10undelegate0CshHwHQpnfuGH_11unbond_test
FN:48,_RNCNvYINtCseuY2Hdvmkl_15delegation_mock11ContractObjINtNtNtNtCseUmQFO6d1K9_22multiversx_sc_scenario3api7impl_vh12vm_hooks_api10VMHooksApiNtNtBT_9debug_api15DebugApiBackendEENtB7_14DelegationMock10undelegates_0CshHwHQpnfuGH_11unbond_test
FN:22,_RNCNvYINtCseuY2Hdvmkl_15delegation_mock11ContractObjINtNtNtNtCseUmQFO6d1K9_22multiversx_sc_scenario3api7impl_vh12vm_hooks_api10VMHooksApiNtNtBT_9debug_api15DebugApiBackendEENtB7_14DelegationMock12deposit_egld0CshHwHQpnfuGH_11unbond_test
FN:92,_RNCNvYINtCseuY2Hdvmkl_15delegation_mock11ContractObjINtNtNtNtCseUmQFO6d1K9_22multiversx_sc_scenario3api7impl_vh12vm_hooks_api10VMHooksApiNtNtBT_9debug_api15DebugApiBackendEENtB7_14DelegationMock13claim_rewards0CshHwHQpnfuGH_11unbond_test
FN:31,_RNCNvYINtCseuY2Hdvmkl_15delegation_mock11ContractObjINtNtNtNtCseUmQFO6d1K9_22multiversx_sc_scenario3api7impl_vh12vm_hooks_api10VMHooksApiNtNtBT_9debug_api15DebugApiBackendEENtB7_14DelegationMock8delegate0CshHwHQpnfuGH_11unbond_test
FN:33,_RNCNvYINtCseuY2Hdvmkl_15delegation_mock11ContractObjINtNtNtNtCseUmQFO6d1K9_22multiversx_sc_scenario3api7impl_vh12vm_hooks_api10VMHooksApiNtNtBT_9debug_api15DebugApiBackendEENtB7_14DelegationMock8delegates_0CshHwHQpnfuGH_11unbond_test
FN:67,_RNCNvYINtCseuY2Hdvmkl_15delegation_mock11ContractObjINtNtNtNtCseUmQFO6d1K9_22multiversx_sc_scenario3api7impl_vh12vm_hooks_api10VMHooksApiNtNtBT_9debug_api15DebugApiBackendEENtB7_14DelegationMock8withdraw0CshHwHQpnfuGH_11unbond_test
FN:11,_RNvXCseuY2Hdvmkl_15delegation_mockINtB2_11ContractObjINtNtNtNtCseUmQFO6d1K9_22multiversx_sc_scenario3api7impl_vh12vm_hooks_api10VMHooksApiNtNtBU_9debug_api15DebugApiBackendEENtB2_14DelegationMock15address_depositCshHwHQpnfuGH_11unbond_test
FN:11,_RNvXCseuY2Hdvmkl_15delegation_mockINtB2_11ContractObjINtNtNtNtCseUmQFO6d1K9_22multiversx_sc_scenario3api7impl_vh12vm_hooks_api10VMHooksApiNtNtBU_9debug_api15DebugApiBackendEENtB2_14DelegationMock17egld_token_supplyCshHwHQpnfuGH_11unbond_test
FN:11,_RNvXCseuY2Hdvmkl_15delegation_mockINtB2_11ContractObjINtNtNtNtCseUmQFO6d1K9_22multiversx_sc_scenario3api7impl_vh12vm_hooks_api10VMHooksApiNtNtBU_9debug_api15DebugApiBackendEENtB2_14DelegationMock24address_last_claim_epochCshHwHQpnfuGH_11unbond_test
FN:11,_RNvXCseuY2Hdvmkl_15delegation_mockINtB2_11ContractObjINtNtNtNtCseUmQFO6d1K9_22multiversx_sc_scenario3api7impl_vh12vm_hooks_api10VMHooksApiNtNtBU_9debug_api15DebugApiBackendEENtB2_14DelegationMock24address_undelegate_epochCshHwHQpnfuGH_11unbond_test
FN:11,_RNvXCseuY2Hdvmkl_15delegation_mockINtB2_11ContractObjINtNtNtNtCseUmQFO6d1K9_22multiversx_sc_scenario3api7impl_vh12vm_hooks_api10VMHooksApiNtNtBU_9debug_api15DebugApiBackendEENtB2_14DelegationMock25address_undelegate_amountCshHwHQpnfuGH_11unbond_test
FN:11,_RNvXs5_CseuY2Hdvmkl_15delegation_mockINtB5_11ContractObjINtNtNtNtCseUmQFO6d1K9_22multiversx_sc_scenario3api7impl_vh12vm_hooks_api10VMHooksApiNtNtBX_9debug_api15DebugApiBackendEENtNtNtCs4WmCETBkTZ5_13multiversx_sc13contract_base17callable_contract16CallableContract4callCshHwHQpnfuGH_11unbond_test
FN:37,_RNvYINtCseuY2Hdvmkl_15delegation_mock11ContractObjINtNtNtNtCseUmQFO6d1K9_22multiversx_sc_scenario3api7impl_vh12vm_hooks_api10VMHooksApiNtNtBR_9debug_api15DebugApiBackendEENtB5_14DelegationMock10undelegateCshHwHQpnfuGH_11unbond_test
FN:19,_RNvYINtCseuY2Hdvmkl_15delegation_mock11ContractObjINtNtNtNtCseUmQFO6d1K9_22multiversx_sc_scenario3api7impl_vh12vm_hooks_api10VMHooksApiNtNtBR_9debug_api15DebugApiBackendEENtB5_14DelegationMock12deposit_egldCshHwHQpnfuGH_11unbond_test
FN:75,_RNvYINtCseuY2Hdvmkl_15delegation_mock11ContractObjINtNtNtNtCseUmQFO6d1K9_22multiversx_sc_scenario3api7impl_vh12vm_hooks_api10VMHooksApiNtNtBR_9debug_api15DebugApiBackendEENtB5_14DelegationMock13claim_rewardsCshHwHQpnfuGH_11unbond_test
FN:27,_RNvYINtCseuY2Hdvmkl_15delegation_mock11ContractObjINtNtNtNtCseUmQFO6d1K9_22multiversx_sc_scenario3api7impl_vh12vm_hooks_api10VMHooksApiNtNtBR_9debug_api15DebugApiBackendEENtB5_14DelegationMock8delegateCshHwHQpnfuGH_11unbond_test
FN:54,_RNvYINtCseuY2Hdvmkl_15delegation_mock11ContractObjINtNtNtNtCseUmQFO6d1K9_22multiversx_sc_scenario3api7impl_vh12vm_hooks_api10VMHooksApiNtNtBR_9debug_api15DebugApiBackendEENtB5_14DelegationMock8withdrawCshHwHQpnfuGH_11unbond_test
FN:11,_RNvYINtCseuY2Hdvmkl_15delegation_mock11ContractObjINtNtNtNtCseUmQFO6d1K9_22multiversx_sc_scenario3api7impl_vh12vm_hooks_api10VMHooksApiNtNtBR_9debug_api15DebugApiBackendEENtB5_16EndpointWrappers13call_delegateCshHwHQpnfuGH_11unbond_test
FN:11,_RNvYINtCseuY2Hdvmkl_15delegation_mock11ContractObjINtNtNtNtCseUmQFO6d1K9_22multiversx_sc_scenario3api7impl_vh12vm_hooks_api10VMHooksApiNtNtBR_9debug_api15DebugApiBackendEENtB5_16EndpointWrappers13call_withdrawCshHwHQpnfuGH_11unbond_test
FN:11,_RNvYINtCseuY2Hdvmkl_15delegation_mock11ContractObjINtNtNtNtCseUmQFO6d1K9_22multiversx_sc_scenario3api7impl_vh12vm_hooks_api10VMHooksApiNtNtBR_9debug_api15DebugApiBackendEENtB5_16EndpointWrappers15call_undelegateCshHwHQpnfuGH_11unbond_test
FN:11,_RNvYINtCseuY2Hdvmkl_15delegation_mock11ContractObjINtNtNtNtCseUmQFO6d1K9_22multiversx_sc_scenario3api7impl_vh12vm_hooks_api10VMHooksApiNtNtBR_9debug_api15DebugApiBackendEENtB5_16EndpointWrappers17call_deposit_egldCshHwHQpnfuGH_11unbond_test
FN:11,_RNvYINtCseuY2Hdvmkl_15delegation_mock11ContractObjINtNtNtNtCseUmQFO6d1K9_22multiversx_sc_scenario3api7impl_vh12vm_hooks_api10VMHooksApiNtNtBR_9debug_api15DebugApiBackendEENtB5_16EndpointWrappers18call_claim_rewardsCshHwHQpnfuGH_11unbond_test
FN:11,_RNvYINtCseuY2Hdvmkl_15delegation_mock11ContractObjINtNtNtNtCseUmQFO6d1K9_22multiversx_sc_scenario3api7impl_vh12vm_hooks_api10VMHooksApiNtNtBR_9debug_api15DebugApiBackendEENtB5_16EndpointWrappers4callCshHwHQpnfuGH_11unbond_test
FN:11,_RNvYINtCseuY2Hdvmkl_15delegation_mock11ContractObjINtNtNtNtCseUmQFO6d1K9_22multiversx_sc_scenario3api7impl_vh12vm_hooks_api10VMHooksApiNtNtBR_9debug_api15DebugApiBackendEENtB5_16EndpointWrappers8callbackCshHwHQpnfuGH_11unbond_test
FN:11,_RNvYINtCseuY2Hdvmkl_15delegation_mock11ContractObjINtNtNtNtCseUmQFO6d1K9_22multiversx_sc_scenario3api7impl_vh12vm_hooks_api10VMHooksApiNtNtBR_9debug_api15DebugApiBackendEENtB5_16EndpointWrappers9call_initCshHwHQpnfuGH_11unbond_test
FNDA:27,_RINvCseuY2Hdvmkl_15delegation_mock12contract_objINtNtNtNtCseUmQFO6d1K9_22multiversx_sc_scenario3api7impl_vh12vm_hooks_api10VMHooksApiNtNtBP_9debug_api15DebugApiBackendEECskEhliFuVTlV_13delegate_test
FNDA:0,_RNCNvYINtCseuY2Hdvmkl_15delegation_mock11ContractObjINtNtNtNtCseUmQFO6d1K9_22multiversx_sc_scenario3api7impl_vh12vm_hooks_api10VMHooksApiNtNtBT_9debug_api15DebugApiBackendEENtB7_14DelegationMock10undelegate0CskEhliFuVTlV_13delegate_test
FNDA:0,_RNCNvYINtCseuY2Hdvmkl_15delegation_mock11ContractObjINtNtNtNtCseUmQFO6d1K9_22multiversx_sc_scenario3api7impl_vh12vm_hooks_api10VMHooksApiNtNtBT_9debug_api15DebugApiBackendEENtB7_14DelegationMock10undelegates_0CskEhliFuVTlV_13delegate_test
FNDA:9,_RNCNvYINtCseuY2Hdvmkl_15delegation_mock11ContractObjINtNtNtNtCseUmQFO6d1K9_22multiversx_sc_scenario3api7impl_vh12vm_hooks_api10VMHooksApiNtNtBT_9debug_api15DebugApiBackendEENtB7_14DelegationMock12deposit_egld0CskEhliFuVTlV_13delegate_test
FNDA:0,_RNCNvYINtCseuY2Hdvmkl_15delegation_mock11ContractObjINtNtNtNtCseUmQFO6d1K9_22multiversx_sc_scenario3api7impl_vh12vm_hooks_api10VMHooksApiNtNtBT_9debug_api15DebugApiBackendEENtB7_14DelegationMock13claim_rewards0CskEhliFuVTlV_13delegate_test
FNDA:4,_RNCNvYINtCseuY2Hdvmkl_15delegation_mock11ContractObjINtNtNtNtCseUmQFO6d1K9_22multiversx_sc_scenario3api7impl_vh12vm_hooks_api10VMHooksApiNtNtBT_9debug_api15DebugApiBackendEENtB7_14DelegationMock8delegate0CskEhliFuVTlV_13delegate_test
FNDA:4,_RNCNvYINtCseuY2Hdvmkl_15delegation_mock11ContractObjINtNtNtNtCseUmQFO6d1K9_22multiversx_sc_scenario3api7impl_vh12vm_hooks_api10VMHooksApiNtNtBT_9debug_api15DebugApiBackendEENtB7_14DelegationMock8delegates_0CskEhliFuVTlV_13delegate_test
FNDA:0,_RNCNvYINtCseuY2Hdvmkl_15delegation_mock11ContractObjINtNtNtNtCseUmQFO6d1K9_22multiversx_sc_scenario3api7impl_vh12vm_hooks_api10VMHooksApiNtNtBT_9debug_api15DebugApiBackendEENtB7_14DelegationMock8withdraw0CskEhliFuVTlV_13delegate_test
FNDA:4,_RNvXCseuY2Hdvmkl_15delegation_mockINtB2_11ContractObjINtNtNtNtCseUmQFO6d1K9_22multiversx_sc_scenario3api7impl_vh12vm_hooks_api10VMHooksApiNtNtBU_9debug_api15DebugApiBackendEENtB2_14DelegationMock15address_depositCskEhliFuVTlV_13delegate_test
FNDA:13,_RNvXCseuY2Hdvmkl_15delegation_mockINtB2_11ContractObjINtNtNtNtCseUmQFO6d1K9_22multiversx_sc_scenario3api7impl_vh12vm_hooks_api10VMHooksApiNtNtBU_9debug_api15DebugApiBackendEENtB2_14DelegationMock17egld_token_supplyCskEhliFuVTlV_13delegate_test
FNDA:0,_RNvXCseuY2Hdvmkl_15delegation_mockINtB2_11ContractObjINtNtNtNtCseUmQFO6d1K9_22multiversx_sc_scenario3api7impl_vh12vm_hooks_api10VMHooksApiNtNtBU_9debug_api15DebugApiBackendEENtB2_14DelegationMock24address_last_claim_epochCskEhliFuVTlV_13delegate_test
FNDA:0,_RNvXCseuY2Hdvmkl_15delegation_mockINtB2_11ContractObjINtNtNtNtCseUmQFO6d1K9_22multiversx_sc_scenario3api7impl_vh12vm_hooks_api10VMHooksApiNtNtBU_9debug_api15DebugApiBackendEENtB2_14DelegationMock24address_undelegate_epochCskEhliFuVTlV_13delegate_test
FNDA:0,_RNvXCseuY2Hdvmkl_15delegation_mockINtB2_11ContractObjINtNtNtNtCseUmQFO6d1K9_22multiversx_sc_scenario3api7impl_vh12vm_hooks_api10VMHooksApiNtNtBU_9debug_api15DebugApiBackendEENtB2_14DelegationMock25address_undelegate_amountCskEhliFuVTlV_13delegate_test
FNDA:4,_RNvXs5_CseuY2Hdvmkl_15delegation_mockINtB5_11ContractObjINtNtNtNtCseUmQFO6d1K9_22multiversx_sc_scenario3api7impl_vh12vm_hooks_api10VMHooksApiNtNtBX_9debug_api15DebugApiBackendEENtNtNtCs4WmCETBkTZ5_13multiversx_sc13contract_base17callable_contract16CallableContract4callCskEhliFuVTlV_13delegate_test
FNDA:0,_RNvYINtCseuY2Hdvmkl_15delegation_mock11ContractObjINtNtNtNtCseUmQFO6d1K9_22multiversx_sc_scenario3api7impl_vh12vm_hooks_api10VMHooksApiNtNtBR_9debug_api15DebugApiBackendEENtB5_14DelegationMock10undelegateCskEhliFuVTlV_13delegate_test
FNDA:9,_RNvYINtCseuY2Hdvmkl_15delegation_mock11ContractObjINtNtNtNtCseUmQFO6d1K9_22multiversx_sc_scenario3api7impl_vh12vm_hooks_api10VMHooksApiNtNtBR_9debug_api15DebugApiBackendEENtB5_14DelegationMock12deposit_egldCskEhliFuVTlV_13delegate_test
FNDA:0,_RNvYINtCseuY2Hdvmkl_15delegation_mock11ContractObjINtNtNtNtCseUmQFO6d1K9_22multiversx_sc_scenario3api7impl_vh12vm_hooks_api10VMHooksApiNtNtBR_9debug_api15DebugApiBackendEENtB5_14DelegationMock13claim_rewardsCskEhliFuVTlV_13delegate_test
FNDA:4,_RNvYINtCseuY2Hdvmkl_15delegation_mock11ContractObjINtNtNtNtCseUmQFO6d1K9_22multiversx_sc_scenario3api7impl_vh12vm_hooks_api10VMHooksApiNtNtBR_9debug_api15DebugApiBackendEENtB5_14DelegationMock8delegateCskEhliFuVTlV_13delegate_test
FNDA:0,_RNvYINtCseuY2Hdvmkl_15delegation_mock11ContractObjINtNtNtNtCseUmQFO6d1K9_22multiversx_sc_scenario3api7impl_vh12vm_hooks_api10VMHooksApiNtNtBR_9debug_api15DebugApiBackendEENtB5_14DelegationMock8withdrawCskEhliFuVTlV_13delegate_test
FNDA:4,_RNvYINtCseuY2Hdvmkl_15delegation_mock11ContractObjINtNtNtNtCseUmQFO6d1K9_22multiversx_sc_scenario3api7impl_vh12vm_hooks_api10VMHooksApiNtNtBR_9debug_api15DebugApiBackendEENtB5_16EndpointWrappers13call_delegateCskEhliFuVTlV_13delegate_test
FNDA:0,_RNvYINtCseuY2Hdvmkl_15delegation_mock11ContractObjINtNtNtNtCseUmQFO6d1K9_22multiversx_sc_scenario3api7impl_vh12vm_hooks_api10VMHooksApiNtNtBR_9debug_api15DebugApiBackendEENtB5_16EndpointWrappers13call_withdrawCskEhliFuVTlV_13delegate_test
FNDA:0,_RNvYINtCseuY2Hdvmkl_15delegation_mock11ContractObjINtNtNtNtCseUmQFO6d1K9_22multiversx_sc_scenario3api7impl_vh12vm_hooks_api10VMHooksApiNtNtBR_9debug_api15DebugApiBackendEENtB5_16EndpointWrappers15call_undelegateCskEhliFuVTlV_13delegate_test
FNDA:0,_RNvYINtCseuY2Hdvmkl_15delegation_mock11ContractObjINtNtNtNtCseUmQFO6d1K9_22multiversx_sc_scenario3api7impl_vh12vm_hooks_api10VMHooksApiNtNtBR_9debug_api15DebugApiBackendEENtB5_16EndpointWrappers17call_deposit_egldCskEhliFuVTlV_13delegate_test
FNDA:0,_RNvYINtCseuY2Hdvmkl_15delegation_mock11ContractObjINtNtNtNtCseUmQFO6d1K9_22multiversx_sc_scenario3api7impl_vh12vm_hooks_api10VMHooksApiNtNtBR_9debug_api15DebugApiBackendEENtB5_16EndpointWrappers18call_claim_rewardsCskEhliFuVTlV_13delegate_test
FNDA:4,_RNvYINtCseuY2Hdvmkl_15delegation_mock11ContractObjINtNtNtNtCseUmQFO6d1K9_22multiversx_sc_scenario3api7impl_vh12vm_hooks_api10VMHooksApiNtNtBR_9debug_api15DebugApiBackendEENtB5_16EndpointWrappers4callCskEhliFuVTlV_13delegate_test
FNDA:0,_RNvYINtCseuY2Hdvmkl_15delegation_mock11ContractObjINtNtNtNtCseUmQFO6d1K9_22multiversx_sc_scenario3api7impl_vh12vm_hooks_api10VMHooksApiNtNtBR_9debug_api15DebugApiBackendEENtB5_16EndpointWrappers8callbackCskEhliFuVTlV_13delegate_test
FNDA:0,_RNvYINtCseuY2Hdvmkl_15delegation_mock11ContractObjINtNtNtNtCseUmQFO6d1K9_22multiversx_sc_scenario3api7impl_vh12vm_hooks_api10VMHooksApiNtNtBR_9debug_api15DebugApiBackendEENtB5_16EndpointWrappers9call_initCskEhliFuVTlV_13delegate_test
FNDA:15,_RINvCseuY2Hdvmkl_15delegation_mock12contract_objINtNtNtNtCseUmQFO6d1K9_22multiversx_sc_scenario3api7impl_vh12vm_hooks_api10VMHooksApiNtNtBP_9debug_api15DebugApiBackendEECsaR2MVHtCDM0_4test
FNDA:2,_RNCNvYINtCseuY2Hdvmkl_15delegation_mock11ContractObjINtNtNtNtCseUmQFO6d1K9_22multiversx_sc_scenario3api7impl_vh12vm_hooks_api10VMHooksApiNtNtBT_9debug_api15DebugApiBackendEENtB7_14DelegationMock10undelegate0CsaR2MVHtCDM0_4test
FNDA:2,_RNCNvYINtCseuY2Hdvmkl_15delegation_mock11ContractObjINtNtNtNtCseUmQFO6d1K9_22multiversx_sc_scenario3api7impl_vh12vm_hooks_api10VMHooksApiNtNtBT_9debug_api15DebugApiBackendEENtB7_14DelegationMock10undelegates_0CsaR2MVHtCDM0_4test
FNDA:6,_RNCNvYINtCseuY2Hdvmkl_15delegation_mock11ContractObjINtNtNtNtCseUmQFO6d1K9_22multiversx_sc_scenario3api7impl_vh12vm_hooks_api10VMHooksApiNtNtBT_9debug_api15DebugApiBackendEENtB7_14DelegationMock12deposit_egld0CsaR2MVHtCDM0_4test
FNDA:5,_RNCNvYINtCseuY2Hdvmkl_15delegation_mock11ContractObjINtNtNtNtCseUmQFO6d1K9_22multiversx_sc_scenario3api7impl_vh12vm_hooks_api10VMHooksApiNtNtBT_9debug_api15DebugApiBackendEENtB7_14DelegationMock13claim_rewards0CsaR2MVHtCDM0_4test
FNDA:19,_RNCNvYINtCseuY2Hdvmkl_15delegation_mock11ContractObjINtNtNtNtCseUmQFO6d1K9_22multiversx_sc_scenario3api7impl_vh12vm_hooks_api10VMHooksApiNtNtBT_9debug_api15DebugApiBackendEENtB7_14DelegationMock8delegate0CsaR2MVHtCDM0_4test
FNDA:19,_RNCNvYINtCseuY2Hdvmkl_15delegation_mock11ContractObjINtNtNtNtCseUmQFO6d1K9_22multiversx_sc_scenario3api7impl_vh12vm_hooks_api10VMHooksApiNtNtBT_9debug_api15DebugApiBackendEENtB7_14DelegationMock8delegates_0CsaR2MVHtCDM0_4test
FNDA:2,_RNCNvYINtCseuY2Hdvmkl_15delegation_mock11ContractObjINtNtNtNtCseUmQFO6d1K9_22multiversx_sc_scenario3api7impl_vh12vm_hooks_api10VMHooksApiNtNtBT_9debug_api15DebugApiBackendEENtB7_14DelegationMock8withdraw0CsaR2MVHtCDM0_4test
FNDA:28,_RNvXCseuY2Hdvmkl_15delegation_mockINtB2_11ContractObjINtNtNtNtCseUmQFO6d1K9_22multiversx_sc_scenario3api7impl_vh12vm_hooks_api10VMHooksApiNtNtBU_9debug_api15DebugApiBackendEENtB2_14DelegationMock15address_depositCsaR2MVHtCDM0_4test
FNDA:32,_RNvXCseuY2Hdvmkl_15delegation_mockINtB2_11ContractObjINtNtNtNtCseUmQFO6d1K9_22multiversx_sc_scenario3api7impl_vh12vm_hooks_api10VMHooksApiNtNtBU_9debug_api15DebugApiBackendEENtB2_14DelegationMock17egld_token_supplyCsaR2MVHtCDM0_4test
FNDA:10,_RNvXCseuY2Hdvmkl_15delegation_mockINtB2_11ContractObjINtNtNtNtCseUmQFO6d1K9_22multiversx_sc_scenario3api7impl_vh12vm_hooks_api10VMHooksApiNtNtBU_9debug_api15DebugApiBackendEENtB2_14DelegationMock24address_last_claim_epochCsaR2MVHtCDM0_4test
FNDA:6,_RNvXCseuY2Hdvmkl_15delegation_mockINtB2_11ContractObjINtNtNtNtCseUmQFO6d1K9_22multiversx_sc_scenario3api7impl_vh12vm_hooks_api10VMHooksApiNtNtBU_9debug_api15DebugApiBackendEENtB2_14DelegationMock24address_undelegate_epochCsaR2MVHtCDM0_4test
FNDA:6,_RNvXCseuY2Hdvmkl_15delegation_mockINtB2_11ContractObjINtNtNtNtCseUmQFO6d1K9_22multiversx_sc_scenario3api7impl_vh12vm_hooks_api10VMHooksApiNtNtBU_9debug_api15DebugApiBackendEENtB2_14DelegationMock25address_undelegate_amountCsaR2MVHtCDM0_4test
FNDA:28,_RNvXs5_CseuY2Hdvmkl_15delegation_mockINtB5_11ContractObjINtNtNtNtCseUmQFO6d1K9_22multiversx_sc_scenario3api7impl_vh12vm_hooks_api10VMHooksApiNtNtBX_9debug_api15DebugApiBackendEENtNtNtCs4WmCETBkTZ5_13multiversx_sc13contract_base17callable_contract16CallableContract4callCsaR2MVHtCDM0_4test
FNDA:2,_RNvYINtCseuY2Hdvmkl_15delegation_mock11ContractObjINtNtNtNtCseUmQFO6d1K9_22multiversx_sc_scenario3api7impl_vh12vm_hooks_api10VMHooksApiNtNtBR_9debug_api15DebugApiBackendEENtB5_14DelegationMock10undelegateCsaR2MVHtCDM0_4test
FNDA:6,_RNvYINtCseuY2Hdvmkl_15delegation_mock11ContractObjINtNtNtNtCseUmQFO6d1K9_22multiversx_sc_scenario3api7impl_vh12vm_hooks_api10VMHooksApiNtNtBR_9debug_api15DebugApiBackendEENtB5_14DelegationMock12deposit_egldCsaR2MVHtCDM0_4test
FNDA:5,_RNvYINtCseuY2Hdvmkl_15delegation_mock11ContractObjINtNtNtNtCseUmQFO6d1K9_22multiversx_sc_scenario3api7impl_vh12vm_hooks_api10VMHooksApiNtNtBR_9debug_api15DebugApiBackendEENtB5_14DelegationMock13claim_rewardsCsaR2MVHtCDM0_4test
FNDA:19,_RNvYINtCseuY2Hdvmkl_15delegation_mock11ContractObjINtNtNtNtCseUmQFO6d1K9_22multiversx_sc_scenario3api7impl_vh12vm_hooks_api10VMHooksApiNtNtBR_9debug_api15DebugApiBackendEENtB5_14DelegationMock8delegateCsaR2MVHtCDM0_4test
FNDA:2,_RNvYINtCseuY2Hdvmkl_15delegation_mock11ContractObjINtNtNtNtCseUmQFO6d1K9_22multiversx_sc_scenario3api7impl_vh12vm_hooks_api10VMHooksApiNtNtBR_9debug_api15DebugApiBackendEENtB5_14DelegationMock8withdrawCsaR2MVHtCDM0_4test
FNDA:19,_RNvYINtCseuY2Hdvmkl_15delegation_mock11ContractObjINtNtNtNtCseUmQFO6d1K9_22multiversx_sc_scenario3api7impl_vh12vm_hooks_api10VMHooksApiNtNtBR_9debug_api15DebugApiBackendEENtB5_16EndpointWrappers13call_delegateCsaR2MVHtCDM0_4test
FNDA:2,_RNvYINtCseuY2Hdvmkl_15delegation_mock11ContractObjINtNtNtNtCseUmQFO6d1K9_22multiversx_sc_scenario3api7impl_vh12vm_hooks_api10VMHooksApiNtNtBR_9debug_api15DebugApiBackendEENtB5_16EndpointWrappers13call_withdrawCsaR2MVHtCDM0_4test
FNDA:2,_RNvYINtCseuY2Hdvmkl_15delegation_mock11ContractObjINtNtNtNtCseUmQFO6d1K9_22multiversx_sc_scenario3api7impl_vh12vm_hooks_api10VMHooksApiNtNtBR_9debug_api15DebugApiBackendEENtB5_16EndpointWrappers15call_undelegateCsaR2MVHtCDM0_4test
FNDA:0,_RNvYINtCseuY2Hdvmkl_15delegation_mock11ContractObjINtNtNtNtCseUmQFO6d1K9_22multiversx_sc_scenario3api7impl_vh12vm_hooks_api10VMHooksApiNtNtBR_9debug_api15DebugApiBackendEENtB5_16EndpointWrappers17call_deposit_egldCsaR2MVHtCDM0_4test
FNDA:5,_RNvYINtCseuY2Hdvmkl_15delegation_mock11ContractObjINtNtNtNtCseUmQFO6d1K9_22multiversx_sc_scenario3api7impl_vh12vm_hooks_api10VMHooksApiNtNtBR_9debug_api15DebugApiBackendEENtB5_16EndpointWrappers18call_claim_rewardsCsaR2MVHtCDM0_4test
FNDA:28,_RNvYINtCseuY2Hdvmkl_15delegation_mock11ContractObjINtNtNtNtCseUmQFO6d1K9_22multiversx_sc_scenario3api7impl_vh12vm_hooks_api10VMHooksApiNtNtBR_9debug_api15DebugApiBackendEENtB5_16EndpointWrappers4callCsaR2MVHtCDM0_4test
FNDA:0,_RNvYINtCseuY2Hdvmkl_15delegation_mock11ContractObjINtNtNtNtCseUmQFO6d1K9_22multiversx_sc_scenario3api7impl_vh12vm_hooks_api10VMHooksApiNtNtBR_9debug_api15DebugApiBackendEENtB5_16EndpointWrappers8callbackCsaR2MVHtCDM0_4test
FNDA:0,_RNvYINtCseuY2Hdvmkl_15delegation_mock11ContractObjINtNtNtNtCseUmQFO6d1K9_22multiversx_sc_scenario3api7impl_vh12vm_hooks_api10VMHooksApiNtNtBR_9debug_api15DebugApiBackendEENtB5_16EndpointWrappers9call_initCsaR2MVHtCDM0_4test
FNDA:17,_RINvCseuY2Hdvmkl_15delegation_mock12contract_objINtNtNtNtCseUmQFO6d1K9_22multiversx_sc_scenario3api7impl_vh12vm_hooks_api10VMHooksApiNtNtBP_9debug_api15DebugApiBackendEECsVH6ELXPoQD_15unDelegate_test
FNDA:0,_RNCNvYINtCseuY2Hdvmkl_15delegation_mock11ContractObjINtNtNtNtCseUmQFO6d1K9_22multiversx_sc_scenario3api7impl_vh12vm_hooks_api10VMHooksApiNtNtBT_9debug_api15DebugApiBackendEENtB7_14DelegationMock10undelegate0CsVH6ELXPoQD_15unDelegate_test
FNDA:0,_RNCNvYINtCseuY2Hdvmkl_15delegation_mock11ContractObjINtNtNtNtCseUmQFO6d1K9_22multiversx_sc_scenario3api7impl_vh12vm_hooks_api10VMHooksApiNtNtBT_9debug_api15DebugApiBackendEENtB7_14DelegationMock10undelegates_0CsVH6ELXPoQD_15unDelegate_test
FNDA:6,_RNCNvYINtCseuY2Hdvmkl_15delegation_mock11ContractObjINtNtNtNtCseUmQFO6d1K9_22multiversx_sc_scenario3api7impl_vh12vm_hooks_api10VMHooksApiNtNtBT_9debug_api15DebugApiBackendEENtB7_14DelegationMock12deposit_egld0CsVH6ELXPoQD_15unDelegate_test
FNDA:0,_RNCNvYINtCseuY2Hdvmkl_15delegation_mock11ContractObjINtNtNtNtCseUmQFO6d1K9_22multiversx_sc_scenario3api7impl_vh12vm_hooks_api10VMHooksApiNtNtBT_9debug_api15DebugApiBackendEENtB7_14DelegationMock13claim_rewards0CsVH6ELXPoQD_15unDelegate_test
FNDA:5,_RNCNvYINtCseuY2Hdvmkl_15delegation_mock11ContractObjINtNtNtNtCseUmQFO6d1K9_22multiversx_sc_scenario3api7impl_vh12vm_hooks_api10VMHooksApiNtNtBT_9debug_api15DebugApiBackendEENtB7_14DelegationMock8delegate0CsVH6ELXPoQD_15unDelegate_test
FNDA:5,_RNCNvYINtCseuY2Hdvmkl_15delegation_mock11ContractObjINtNtNtNtCseUmQFO6d1K9_22multiversx_sc_scenario3api7impl_vh12vm_hooks_api10VMHooksApiNtNtBT_9debug_api15DebugApiBackendEENtB7_14DelegationMock8delegates_0CsVH6ELXPoQD_15unDelegate_test
FNDA:0,_RNCNvYINtCseuY2Hdvmkl_15delegation_mock11ContractObjINtNtNtNtCseUmQFO6d1K9_22multiversx_sc_scenario3api7impl_vh12vm_hooks_api10VMHooksApiNtNtBT_9debug_api15DebugApiBackendEENtB7_14DelegationMock8withdraw0CsVH6ELXPoQD_15unDelegate_test
FNDA:5,_RNvXCseuY2Hdvmkl_15delegation_mockINtB2_11ContractObjINtNtNtNtCseUmQFO6d1K9_22multiversx_sc_scenario3api7impl_vh12vm_hooks_api10VMHooksApiNtNtBU_9debug_api15DebugApiBackendEENtB2_14DelegationMock15address_depositCsVH6ELXPoQD_15unDelegate_test
FNDA:11,_RNvXCseuY2Hdvmkl_15delegation_mockINtB2_11ContractObjINtNtNtNtCseUmQFO6d1K9_22multiversx_sc_scenario3api7impl_vh12vm_hooks_api10VMHooksApiNtNtBU_9debug_api15DebugApiBackendEENtB2_14DelegationMock17egld_token_supplyCsVH6ELXPoQD_15unDelegate_test
FNDA:0,_RNvXCseuY2Hdvmkl_15delegation_mockINtB2_11ContractObjINtNtNtNtCseUmQFO6d1K9_22multiversx_sc_scenario3api7impl_vh12vm_hooks_api10VMHooksApiNtNtBU_9debug_api15DebugApiBackendEENtB2_14DelegationMock24address_last_claim_epochCsVH6ELXPoQD_15unDelegate_test
FNDA:0,_RNvXCseuY2Hdvmkl_15delegation_mockINtB2_11ContractObjINtNtNtNtCseUmQFO6d1K9_22multiversx_sc_scenario3api7impl_vh12vm_hooks_api10VMHooksApiNtNtBU_9debug_api15DebugApiBackendEENtB2_14DelegationMock24address_undelegate_epochCsVH6ELXPoQD_15unDelegate_test
FNDA:0,_RNvXCseuY2Hdvmkl_15delegation_mockINtB2_11ContractObjINtNtNtNtCseUmQFO6d1K9_22multiversx_sc_scenario3api7impl_vh12vm_hooks_api10VMHooksApiNtNtBU_9debug_api15DebugApiBackendEENtB2_14DelegationMock25address_undelegate_amountCsVH6ELXPoQD_15unDelegate_test
FNDA:5,_RNvXs5_CseuY2Hdvmkl_15delegation_mockINtB5_11ContractObjINtNtNtNtCseUmQFO6d1K9_22multiversx_sc_scenario3api7impl_vh12vm_hooks_api10VMHooksApiNtNtBX_9debug_api15DebugApiBackendEENtNtNtCs4WmCETBkTZ5_13multiversx_sc13contract_base17callable_contract16CallableContract4callCsVH6ELXPoQD_15unDelegate_test
FNDA:0,_RNvYINtCseuY2Hdvmkl_15delegation_mock11ContractObjINtNtNtNtCseUmQFO6d1K9_22multiversx_sc_scenario3api7impl_vh12vm_hooks_api10VMHooksApiNtNtBR_9debug_api15DebugApiBackendEENtB5_14DelegationMock10undelegateCsVH6ELXPoQD_15unDelegate_test
FNDA:6,_RNvYINtCseuY2Hdvmkl_15delegation_mock11ContractObjINtNtNtNtCseUmQFO6d1K9_22multiversx_sc_scenario3api7impl_vh12vm_hooks_api10VMHooksApiNtNtBR_9debug_api15DebugApiBackendEENtB5_14DelegationMock12deposit_egldCsVH6ELXPoQD_15unDelegate_test
FNDA:0,_RNvYINtCseuY2Hdvmkl_15delegation_mock11ContractObjINtNtNtNtCseUmQFO6d1K9_22multiversx_sc_scenario3api7impl_vh12vm_hooks_api10VMHooksApiNtNtBR_9debug_api15DebugApiBackendEENtB5_14DelegationMock13claim_rewardsCsVH6ELXPoQD_15unDelegate_test
FNDA:5,_RNvYINtCseuY2Hdvmkl_15delegation_mock11ContractObjINtNtNtNtCseUmQFO6d1K9_22multiversx_sc_scenario3api7impl_vh12vm_hooks_api10VMHooksApiNtNtBR_9debug_api15DebugApiBackendEENtB5_14DelegationMock8delegateCsVH6ELXPoQD_15unDelegate_test
FNDA:0,_RNvYINtCseuY2Hdvmkl_15delegation_mock11ContractObjINtNtNtNtCseUmQFO6d1K9_22multiversx_sc_scenario3api7impl_vh12vm_hooks_api10VMHooksApiNtNtBR_9debug_api15DebugApiBackendEENtB5_14DelegationMock8withdrawCsVH6ELXPoQD_15unDelegate_test
FNDA:5,_RNvYINtCseuY2Hdvmkl_15delegation_mock11ContractObjINtNtNtNtCseUmQFO6d1K9_22multiversx_sc_scenario3api7impl_vh12vm_hooks_api10VMHooksApiNtNtBR_9debug_api15DebugApiBackendEENtB5_16EndpointWrappers13call_delegateCsVH6ELXPoQD_15unDelegate_test
FNDA:0,_RNvYINtCseuY2Hdvmkl_15delegation_mock11ContractObjINtNtNtNtCseUmQFO6d1K9_22multiversx_sc_scenario3api7impl_vh12vm_hooks_api10VMHooksApiNtNtBR_9debug_api15DebugApiBackendEENtB5_16EndpointWrappers13call_withdrawCsVH6ELXPoQD_15unDelegate_test
FNDA:0,_RNvYINtCseuY2Hdvmkl_15delegation_mock11ContractObjINtNtNtNtCseUmQFO6d1K9_22multiversx_sc_scenario3api7impl_vh12vm_hooks_api10VMHooksApiNtNtBR_9debug_api15DebugApiBackendEENtB5_16EndpointWrappers15call_undelegateCsVH6ELXPoQD_15unDelegate_test
FNDA:0,_RNvYINtCseuY2Hdvmkl_15delegation_mock11ContractObjINtNtNtNtCseUmQFO6d1K9_22multiversx_sc_scenario3api7impl_vh12vm_hooks_api10VMHooksApiNtNtBR_9debug_api15DebugApiBackendEENtB5_16EndpointWrappers17call_deposit_egldCsVH6ELXPoQD_15unDelegate_test
FNDA:0,_RNvYINtCseuY2Hdvmkl_15delegation_mock11ContractObjINtNtNtNtCseUmQFO6d1K9_22multiversx_sc_scenario3api7impl_vh12vm_hooks_api10VMHooksApiNtNtBR_9debug_api15DebugApiBackendEENtB5_16EndpointWrappers18call_claim_rewardsCsVH6ELXPoQD_15unDelegate_test
FNDA:5,_RNvYINtCseuY2Hdvmkl_15delegation_mock11ContractObjINtNtNtNtCseUmQFO6d1K9_22multiversx_sc_scenario3api7impl_vh12vm_hooks_api10VMHooksApiNtNtBR_9debug_api15DebugApiBackendEENtB5_16EndpointWrappers4callCsVH6ELXPoQD_15unDelegate_test
FNDA:0,_RNvYINtCseuY2Hdvmkl_15delegation_mock11ContractObjINtNtNtNtCseUmQFO6d1K9_22multiversx_sc_scenario3api7impl_vh12vm_hooks_api10VMHooksApiNtNtBR_9debug_api15DebugApiBackendEENtB5_16EndpointWrappers8callbackCsVH6ELXPoQD_15unDelegate_test
FNDA:0,_RNvYINtCseuY2Hdvmkl_15delegation_mock11ContractObjINtNtNtNtCseUmQFO6d1K9_22multiversx_sc_scenario3api7impl_vh12vm_hooks_api10VMHooksApiNtNtBR_9debug_api15DebugApiBackendEENtB5_16EndpointWrappers9call_initCsVH6ELXPoQD_15unDelegate_test
FNDA:15,_RINvCseuY2Hdvmkl_15delegation_mock12contract_objINtNtNtNtCseUmQFO6d1K9_22multiversx_sc_scenario3api7impl_vh12vm_hooks_api10VMHooksApiNtNtBP_9debug_api15DebugApiBackendEECshHwHQpnfuGH_11unbond_test
FNDA:5,_RNCNvYINtCseuY2Hdvmkl_15delegation_mock11ContractObjINtNtNtNtCseUmQFO6d1K9_22multiversx_sc_scenario3api7impl_vh12vm_hooks_api10VMHooksApiNtNtBT_9debug_api15DebugApiBackendEENtB7_14DelegationMock10undelegate0CshHwHQpnfuGH_11unbond_test
FNDA:5,_RNCNvYINtCseuY2Hdvmkl_15delegation_mock11ContractObjINtNtNtNtCseUmQFO6d1K9_22multiversx_sc_scenario3api7impl_vh12vm_hooks_api10VMHooksApiNtNtBT_9debug_api15DebugApiBackendEENtB7_14DelegationMock10undelegates_0CshHwHQpnfuGH_11unbond_test
FNDA:5,_RNCNvYINtCseuY2Hdvmkl_15delegation_mock11ContractObjINtNtNtNtCseUmQFO6d1K9_22multiversx_sc_scenario3api7impl_vh12vm_hooks_api10VMHooksApiNtNtBT_9debug_api15DebugApiBackendEENtB7_14DelegationMock12deposit_egld0CshHwHQpnfuGH_11unbond_test
FNDA:0,_RNCNvYINtCseuY2Hdvmkl_15delegation_mock11ContractObjINtNtNtNtCseUmQFO6d1K9_22multiversx_sc_scenario3api7impl_vh12vm_hooks_api10VMHooksApiNtNtBT_9debug_api15DebugApiBackendEENtB7_14DelegationMock13claim_rewards0CshHwHQpnfuGH_11unbond_test
FNDA:5,_RNCNvYINtCseuY2Hdvmkl_15delegation_mock11ContractObjINtNtNtNtCseUmQFO6d1K9_22multiversx_sc_scenario3api7impl_vh12vm_hooks_api10VMHooksApiNtNtBT_9debug_api15DebugApiBackendEENtB7_14DelegationMock8delegate0CshHwHQpnfuGH_11unbond_test
FNDA:5,_RNCNvYINtCseuY2Hdvmkl_15delegation_mock11ContractObjINtNtNtNtCseUmQFO6d1K9_22multiversx_sc_scenario3api7impl_vh12vm_hooks_api10VMHooksApiNtNtBT_9debug_api15DebugApiBackendEENtB7_14DelegationMock8delegates_0CshHwHQpnfuGH_11unbond_test
FNDA:3,_RNCNvYINtCseuY2Hdvmkl_15delegation_mock11ContractObjINtNtNtNtCseUmQFO6d1K9_22multiversx_sc_scenario3api7impl_vh12vm_hooks_api10VMHooksApiNtNtBT_9debug_api15DebugApiBackendEENtB7_14DelegationMock8withdraw0CshHwHQpnfuGH_11unbond_test
FNDA:15,_RNvXCseuY2Hdvmkl_15delegation_mockINtB2_11ContractObjINtNtNtNtCseUmQFO6d1K9_22multiversx_sc_scenario3api7impl_vh12vm_hooks_api10VMHooksApiNtNtBU_9debug_api15DebugApiBackendEENtB2_14DelegationMock15address_depositCshHwHQpnfuGH_11unbond_test
FNDA:13,_RNvXCseuY2Hdvmkl_15delegation_mockINtB2_11ContractObjINtNtNtNtCseUmQFO6d1K9_22multiversx_sc_scenario3api7impl_vh12vm_hooks_api10VMHooksApiNtNtBU_9debug_api15DebugApiBackendEENtB2_14DelegationMock17egld_token_supplyCshHwHQpnfuGH_11unbond_test
FNDA:0,_RNvXCseuY2Hdvmkl_15delegation_mockINtB2_11ContractObjINtNtNtNtCseUmQFO6d1K9_22multiversx_sc_scenario3api7impl_vh12vm_hooks_api10VMHooksApiNtNtBU_9debug_api15DebugApiBackendEENtB2_14DelegationMock24address_last_claim_epochCshHwHQpnfuGH_11unbond_test
FNDA:12,_RNvXCseuY2Hdvmkl_15delegation_mockINtB2_11ContractObjINtNtNtNtCseUmQFO6d1K9_22multiversx_sc_scenario3api7impl_vh12vm_hooks_api10VMHooksApiNtNtBU_9debug_api15DebugApiBackendEENtB2_14DelegationMock24address_undelegate_epochCshHwHQpnfuGH_11unbond_test
FNDA:12,_RNvXCseuY2Hdvmkl_15delegation_mockINtB2_11ContractObjINtNtNtNtCseUmQFO6d1K9_22multiversx_sc_scenario3api7impl_vh12vm_hooks_api10VMHooksApiNtNtBU_9debug_api15DebugApiBackendEENtB2_14DelegationMock25address_undelegate_amountCshHwHQpnfuGH_11unbond_test
FNDA:14,_RNvXs5_CseuY2Hdvmkl_15delegation_mockINtB5_11ContractObjINtNtNtNtCseUmQFO6d1K9_22multiversx_sc_scenario3api7impl_vh12vm_hooks_api10VMHooksApiNtNtBX_9debug_api15DebugApiBackendEENtNtNtCs4WmCETBkTZ5_13multiversx_sc13contract_base17callable_contract16CallableContract4callCshHwHQpnfuGH_11unbond_test
FNDA:5,_RNvYINtCseuY2Hdvmkl_15delegation_mock11ContractObjINtNtNtNtCseUmQFO6d1K9_22multiversx_sc_scenario3api7impl_vh12vm_hooks_api10VMHooksApiNtNtBR_9debug_api15DebugApiBackendEENtB5_14DelegationMock10undelegateCshHwHQpnfuGH_11unbond_test
FNDA:5,_RNvYINtCseuY2Hdvmkl_15delegation_mock11ContractObjINtNtNtNtCseUmQFO6d1K9_22multiversx_sc_scenario3api7impl_vh12vm_hooks_api10VMHooksApiNtNtBR_9debug_api15DebugApiBackendEENtB5_14DelegationMock12deposit_egldCshHwHQpnfuGH_11unbond_test
FNDA:0,_RNvYINtCseuY2Hdvmkl_15delegation_mock11ContractObjINtNtNtNtCseUmQFO6d1K9_22multiversx_sc_scenario3api7impl_vh12vm_hooks_api10VMHooksApiNtNtBR_9debug_api15DebugApiBackendEENtB5_14DelegationMock13claim_rewardsCshHwHQpnfuGH_11unbond_test
FNDA:5,_RNvYINtCseuY2Hdvmkl_15delegation_mock11ContractObjINtNtNtNtCseUmQFO6d1K9_22multiversx_sc_scenario3api7impl_vh12vm_hooks_api10VMHooksApiNtNtBR_9debug_api15DebugApiBackendEENtB5_14DelegationMock8delegateCshHwHQpnfuGH_11unbond_test
FNDA:4,_RNvYINtCseuY2Hdvmkl_15delegation_mock11ContractObjINtNtNtNtCseUmQFO6d1K9_22multiversx_sc_scenario3api7impl_vh12vm_hooks_api10VMHooksApiNtNtBR_9debug_api15DebugApiBackendEENtB5_14DelegationMock8withdrawCshHwHQpnfuGH_11unbond_test
FNDA:5,_RNvYINtCseuY2Hdvmkl_15delegation_mock11ContractObjINtNtNtNtCseUmQFO6d1K9_22multiversx_sc_scenario3api7impl_vh12vm_hooks_api10VMHooksApiNtNtBR_9debug_api15DebugApiBackendEENtB5_16EndpointWrappers13call_delegateCshHwHQpnfuGH_11unbond_test
FNDA:4,_RNvYINtCseuY2Hdvmkl_15delegation_mock11ContractObjINtNtNtNtCseUmQFO6d1K9_22multiversx_sc_scenario3api7impl_vh12vm_hooks_api10VMHooksApiNtNtBR_9debug_api15DebugApiBackendEENtB5_16EndpointWrappers13call_withdrawCshHwHQpnfuGH_11unbond_test
FNDA:5,_RNvYINtCseuY2Hdvmkl_15delegation_mock11ContractObjINtNtNtNtCseUmQFO6d1K9_22multiversx_sc_scenario3api7impl_vh12vm_hooks_api10VMHooksApiNtNtBR_9debug_api15DebugApiBackendEENtB5_16EndpointWrappers15call_undelegateCshHwHQpnfuGH_11unbond_test
FNDA:0,_RNvYINtCseuY2Hdvmkl_15delegation_mock11ContractObjINtNtNtNtCseUmQFO6d1K9_22multiversx_sc_scenario3api7impl_vh12vm_hooks_api10VMHooksApiNtNtBR_9debug_api15DebugApiBackendEENtB5_16EndpointWrappers17call_deposit_egldCshHwHQpnfuGH_11unbond_test
FNDA:0,_RNvYINtCseuY2Hdvmkl_15delegation_mock11ContractObjINtNtNtNtCseUmQFO6d1K9_22multiversx_sc_scenario3api7impl_vh12vm_hooks_api10VMHooksApiNtNtBR_9debug_api15DebugApiBackendEENtB5_16EndpointWrappers18call_claim_rewardsCshHwHQpnfuGH_11unbond_test
FNDA:14,_RNvYINtCseuY2Hdvmkl_15delegation_mock11ContractObjINtNtNtNtCseUmQFO6d1K9_22multiversx_sc_scenario3api7impl_vh12vm_hooks_api10VMHooksApiNtNtBR_9debug_api15DebugApiBackendEENtB5_16EndpointWrappers4callCshHwHQpnfuGH_11unbond_test
FNDA:0,_RNvYINtCseuY2Hdvmkl_15delegation_mock11ContractObjINtNtNtNtCseUmQFO6d1K9_22multiversx_sc_scenario3api7impl_vh12vm_hooks_api10VMHooksApiNtNtBR_9debug_api15DebugApiBackendEENtB5_16EndpointWrappers8callbackCshHwHQpnfuGH_11unbond_test
FNDA:0,_RNvYINtCseuY2Hdvmkl_15delegation_mock11ContractObjINtNtNtNtCseUmQFO6d1K9_22multiversx_sc_scenario3api7impl_vh12vm_hooks_api10VMHooksApiNtNtBR_9debug_api15DebugApiBackendEENtB5_16EndpointWrappers9call_initCshHwHQpnfuGH_11unbond_test
FNF:13
FNH:13
DA:11,51
DA:19,26
DA:20,26
DA:21,26
DA:22,26
DA:27,33
DA:28,33
DA:29,33
DA:30,33
DA:31,33
DA:32,33
DA:33,33
DA:37,7
DA:38,7
DA:39,7
DA:40,7
DA:41,7
DA:42,7
DA:45,7
DA:46,7
DA:47,7
DA:48,7
DA:49,7
DA:50,7
DA:54,6
DA:55,6
DA:56,6
DA:57,6
DA:58,6
DA:59,6
DA:60,6
DA:61,6
DA:62,6
DA:66,5
DA:67,5
DA:68,5
DA:69,5
DA:70,5
DA:71,5
DA:75,5
DA:76,5
DA:77,5
DA:78,5
DA:79,5
DA:80,5
DA:81,5
DA:82,5
DA:83,5
DA:84,5
DA:85,5
DA:86,5
DA:87,5
DA:88,5
DA:89,5
DA:90,5
DA:91,5
DA:92,5
DA:93,5
DA:94,0
BRF:0
BRH:0
LF:66
LH:65
end_of_record
SF:/Users/mihaieremia/GitHub/rs-egld-liquid-staking/liquid-staking/src/accumulator.rs
FN:122,_RNvMs1_NtCs2WGRDwQOHLQ_14liquid_staking11accumulatorINtB5_23AccumulatorProxyMethodsINtNtNtNtNtCs4WmCETBkTZ5_13multiversx_sc5types11interaction7tx_exec9tx_env_sc7TxScEnvINtNtNtNtCseUmQFO6d1K9_22multiversx_sc_scenario3api7impl_vh12vm_hooks_api10VMHooksApiNtNtB2L_9debug_api15DebugApiBackendEEuRINtNtNtNtB1s_7managed7wrapped15managed_address14ManagedAddressB2G_EuE7depositCskEhliFuVTlV_13delegate_test
FN:23,_RNvXNtCs2WGRDwQOHLQ_14liquid_staking11accumulatorNtB2_16AccumulatorProxyINtNtNtNtCs4WmCETBkTZ5_13multiversx_sc5types11interaction8tx_proxy12TxProxyTraitINtNtNtB1d_7tx_exec9tx_env_sc7TxScEnvINtNtNtNtCseUmQFO6d1K9_22multiversx_sc_scenario3api7impl_vh12vm_hooks_api10VMHooksApiNtNtB36_9debug_api15DebugApiBackendEEuRINtNtNtNtB1f_7managed7wrapped15managed_address14ManagedAddressB31_EuE13proxy_methodsCskEhliFuVTlV_13delegate_test
FN:23,_RNvXININtCsdRzYvL09OST_14liquid_staking11accumulator0ppppENtB5_16AccumulatorProxyINtNtNtNtCs4WmCETBkTZ5_13multiversx_sc5types11interaction8tx_proxy12TxProxyTraitppppE13proxy_methodsB7_
FN:46,_RINvMs_NtCsdRzYvL09OST_14liquid_staking11accumulatorINtB5_23AccumulatorProxyMethodsppupE4initppppppEB7_
FN:84,_RINvMs0_NtCsdRzYvL09OST_14liquid_staking11accumulatorINtB6_23AccumulatorProxyMethodsppppE7upgradeppppppEB8_
FN:122,_RNvMs1_NtCsdRzYvL09OST_14liquid_staking11accumulatorINtB5_23AccumulatorProxyMethodsppppE7depositB7_
FN:130,_RINvMs1_NtCsdRzYvL09OST_14liquid_staking11accumulatorINtB6_23AccumulatorProxyMethodsppppE17deposit_royaltiespEB8_
FN:142,_RINvMs1_NtCsdRzYvL09OST_14liquid_staking11accumulatorINtB6_23AccumulatorProxyMethodsppppE10distributeppppEB8_
FN:164,_RINvMs1_NtCsdRzYvL09OST_14liquid_staking11accumulatorINtB6_23AccumulatorProxyMethodsppppE20distribute_royaltiespppppEB8_
FN:189,_RNvMs1_NtCsdRzYvL09OST_14liquid_staking11accumulatorINtB5_23AccumulatorProxyMethodsppppE23claim_protocol_reservesB7_
FN:198,_RNvMs1_NtCsdRzYvL09OST_14liquid_staking11accumulatorINtB5_23AccumulatorProxyMethodsppppE7reserveB7_
FN:207,_RNvMs1_NtCsdRzYvL09OST_14liquid_staking11accumulatorINtB5_23AccumulatorProxyMethodsppppE12reward_tokenB7_
FN:216,_RNvMs1_NtCsdRzYvL09OST_14liquid_staking11accumulatorINtB5_23AccumulatorProxyMethodsppppE19liquid_reward_tokenB7_
FN:225,_RNvMs1_NtCsdRzYvL09OST_14liquid_staking11accumulatorINtB5_23AccumulatorProxyMethodsppppE9burn_rateB7_
FN:234,_RNvMs1_NtCsdRzYvL09OST_14liquid_staking11accumulatorINtB5_23AccumulatorProxyMethodsppppE10share_rateB7_
FN:243,_RNvMs1_NtCsdRzYvL09OST_14liquid_staking11accumulatorINtB5_23AccumulatorProxyMethodsppppE6tokensB7_
FN:252,_RINvMs1_NtCsdRzYvL09OST_14liquid_staking11accumulatorINtB6_23AccumulatorProxyMethodsppppE13token_balancepEB8_
FN:265,_RNvMs1_NtCsdRzYvL09OST_14liquid_staking11accumulatorINtB5_23AccumulatorProxyMethodsppppE8creatorsB7_
FN:274,_RINvMs1_NtCsdRzYvL09OST_14liquid_staking11accumulatorINtB6_23AccumulatorProxyMethodsppppE14creator_tokenspEB8_
FN:287,_RINvMs1_NtCsdRzYvL09OST_14liquid_staking11accumulatorINtB6_23AccumulatorProxyMethodsppppE17creator_royaltiesppEB8_
FN:303,_RNvMs1_NtCsdRzYvL09OST_14liquid_staking11accumulatorINtB5_23AccumulatorProxyMethodsppppE15xoxno_liquid_scB7_
FN:312,_RNvMs1_NtCsdRzYvL09OST_14liquid_staking11accumulatorINtB5_23AccumulatorProxyMethodsppppE6ash_scB7_
FN:323,_RINvXININtCsdRzYvL09OST_14liquid_staking11accumulators5_0pEINtB6_14AggregatorSteppENtNtNtCsfDk2A4Sq81E_19multiversx_sc_codec6single6top_en9TopEncode24top_encode_or_handle_errppEB8_
FN:323,_RINvXININtCsdRzYvL09OST_14liquid_staking11accumulators6_0pEINtB6_14AggregatorSteppENtNtNtCsfDk2A4Sq81E_19multiversx_sc_codec6single6top_de9TopDecode24top_decode_or_handle_errppEB8_
FN:323,_RINvXININtCsdRzYvL09OST_14liquid_staking11accumulators7_0pEINtB6_14AggregatorSteppENtNtNtCsfDk2A4Sq81E_19multiversx_sc_codec6single9nested_en12NestedEncode24dep_encode_or_handle_errppEB8_
FN:323,_RINvXININtCsdRzYvL09OST_14liquid_staking11accumulators8_0pEINtB6_14AggregatorSteppENtNtNtCsfDk2A4Sq81E_19multiversx_sc_codec6single9nested_de12NestedDecode24dep_decode_or_handle_errppEB8_
FN:323,_RINvXININtCsdRzYvL09OST_14liquid_staking11accumulatorsc_0pEINtB6_14AggregatorSteppENtNtNtNtNtCs4WmCETBkTZ5_13multiversx_sc5types7managed7wrapped16managed_vec_item14ManagedVecItem16from_byte_readerpEB8_
FN:323,_RNCINvXININtCsdRzYvL09OST_14liquid_staking11accumulatorsc_0pEINtB8_14AggregatorSteppENtNtNtNtNtCs4WmCETBkTZ5_13multiversx_sc5types7managed7wrapped16managed_vec_item14ManagedVecItem16from_byte_readerpE0Ba_
FN:323,_RNCINvXININtCsdRzYvL09OST_14liquid_staking11accumulatorsc_0pEINtB8_14AggregatorSteppENtNtNtNtNtCs4WmCETBkTZ5_13multiversx_sc5types7managed7wrapped16managed_vec_item14ManagedVecItem16from_byte_readerpEs_0Ba_
FN:323,_RNCINvXININtCsdRzYvL09OST_14liquid_staking11accumulatorsc_0pEINtB8_14AggregatorSteppENtNtNtNtNtCs4WmCETBkTZ5_13multiversx_sc5types7managed7wrapped16managed_vec_item14ManagedVecItem16from_byte_readerpEs0_0Ba_
FN:323,_RNCINvXININtCsdRzYvL09OST_14liquid_staking11accumulatorsc_0pEINtB8_14AggregatorSteppENtNtNtNtNtCs4WmCETBkTZ5_13multiversx_sc5types7managed7wrapped16managed_vec_item14ManagedVecItem16from_byte_readerpEs1_0Ba_
FN:323,_RNCINvXININtCsdRzYvL09OST_14liquid_staking11accumulatorsc_0pEINtB8_14AggregatorSteppENtNtNtNtNtCs4WmCETBkTZ5_13multiversx_sc5types7managed7wrapped16managed_vec_item14ManagedVecItem16from_byte_readerpEs2_0Ba_
FN:323,_RNCINvXININtCsdRzYvL09OST_14liquid_staking11accumulatorsc_0pEINtB8_14AggregatorSteppENtNtNtNtNtCs4WmCETBkTZ5_13multiversx_sc5types7managed7wrapped16managed_vec_item14ManagedVecItem16from_byte_readerpEs3_0Ba_
FN:323,_RINvXININtCsdRzYvL09OST_14liquid_staking11accumulatorsc_0pEINtB6_14AggregatorSteppENtNtNtNtNtCs4WmCETBkTZ5_13multiversx_sc5types7managed7wrapped16managed_vec_item14ManagedVecItem26from_byte_reader_as_borrowpEB8_
FN:323,_RINvXININtCsdRzYvL09OST_14liquid_staking11accumulatorsc_0pEINtB6_14AggregatorSteppENtNtNtNtNtCs4WmCETBkTZ5_13multiversx_sc5types7managed7wrapped16managed_vec_item14ManagedVecItem14to_byte_writerppEB8_
FN:323,_RNCINvXININtCsdRzYvL09OST_14liquid_staking11accumulatorsc_0pEINtB8_14AggregatorSteppENtNtNtNtNtCs4WmCETBkTZ5_13multiversx_sc5types7managed7wrapped16managed_vec_item14ManagedVecItem14to_byte_writerppE0Ba_
FN:323,_RNCINvXININtCsdRzYvL09OST_14liquid_staking11accumulatorsc_0pEINtB8_14AggregatorSteppENtNtNtNtNtCs4WmCETBkTZ5_13multiversx_sc5types7managed7wrapped16managed_vec_item14ManagedVecItem14to_byte_writerppEs_0Ba_
FN:323,_RNCINvXININtCsdRzYvL09OST_14liquid_staking11accumulatorsc_0pEINtB8_14AggregatorSteppENtNtNtNtNtCs4WmCETBkTZ5_13multiversx_sc5types7managed7wrapped16managed_vec_item14ManagedVecItem14to_byte_writerppEs0_0Ba_
FN:323,_RNCINvXININtCsdRzYvL09OST_14liquid_staking11accumulatorsc_0pEINtB8_14AggregatorSteppENtNtNtNtNtCs4WmCETBkTZ5_13multiversx_sc5types7managed7wrapped16managed_vec_item14ManagedVecItem14to_byte_writerppEs1_0Ba_
FN:323,_RNCINvXININtCsdRzYvL09OST_14liquid_staking11accumulatorsc_0pEINtB8_14AggregatorSteppENtNtNtNtNtCs4WmCETBkTZ5_13multiversx_sc5types7managed7wrapped16managed_vec_item14ManagedVecItem14to_byte_writerppEs2_0Ba_
FN:323,_RNCINvXININtCsdRzYvL09OST_14liquid_staking11accumulatorsc_0pEINtB8_14AggregatorSteppENtNtNtNtNtCs4WmCETBkTZ5_13multiversx_sc5types7managed7wrapped16managed_vec_item14ManagedVecItem14to_byte_writerppEs3_0Ba_
FN:322,_RNvXININtCsdRzYvL09OST_14liquid_staking11accumulators4_0pEINtB5_14AggregatorSteppENtNtNtCs4WmCETBkTZ5_13multiversx_sc3abi8type_abi7TypeAbi9type_nameB7_
FN:322,_RINvXININtCsdRzYvL09OST_14liquid_staking11accumulators4_0pEINtB6_14AggregatorSteppENtNtNtCs4WmCETBkTZ5_13multiversx_sc3abi8type_abi7TypeAbi25provide_type_descriptionspEB8_
FN:337,_RINvXININtCsdRzYvL09OST_14liquid_staking11accumulatorsg_0pEINtB6_11TokenAmountpENtNtNtCsfDk2A4Sq81E_19multiversx_sc_codec6single6top_en9TopEncode24top_encode_or_handle_errppEB8_
FN:337,_RINvXININtCsdRzYvL09OST_14liquid_staking11accumulatorsh_0pEINtB6_11TokenAmountpENtNtNtCsfDk2A4Sq81E_19multiversx_sc_codec6single6top_de9TopDecode24top_decode_or_handle_errppEB8_
FN:337,_RINvXININtCsdRzYvL09OST_14liquid_staking11accumulatorsi_0pEINtB6_11TokenAmountpENtNtNtCsfDk2A4Sq81E_19multiversx_sc_codec6single9nested_en12NestedEncode24dep_encode_or_handle_errppEB8_
FN:337,_RINvXININtCsdRzYvL09OST_14liquid_staking11accumulatorsj_0pEINtB6_11TokenAmountpENtNtNtCsfDk2A4Sq81E_19multiversx_sc_codec6single9nested_de12NestedDecode24dep_decode_or_handle_errppEB8_
FN:337,_RINvXININtCsdRzYvL09OST_14liquid_staking11accumulatorsn_0pEINtB6_11TokenAmountpENtNtNtNtNtCs4WmCETBkTZ5_13multiversx_sc5types7managed7wrapped16managed_vec_item14ManagedVecItem16from_byte_readerpEB8_
FN:337,_RNCINvXININtCsdRzYvL09OST_14liquid_staking11accumulatorsn_0pEINtB8_11TokenAmountpENtNtNtNtNtCs4WmCETBkTZ5_13multiversx_sc5types7managed7wrapped16managed_vec_item14ManagedVecItem16from_byte_readerpE0Ba_
FN:337,_RNCINvXININtCsdRzYvL09OST_14liquid_staking11accumulatorsn_0pEINtB8_11TokenAmountpENtNtNtNtNtCs4WmCETBkTZ5_13multiversx_sc5types7managed7wrapped16managed_vec_item14ManagedVecItem16from_byte_readerpEs_0Ba_
FN:337,_RINvXININtCsdRzYvL09OST_14liquid_staking11accumulatorsn_0pEINtB6_11TokenAmountpENtNtNtNtNtCs4WmCETBkTZ5_13multiversx_sc5types7managed7wrapped16managed_vec_item14ManagedVecItem26from_byte_reader_as_borrowpEB8_
FN:337,_RINvXININtCsdRzYvL09OST_14liquid_staking11accumulatorsn_0pEINtB6_11TokenAmountpENtNtNtNtNtCs4WmCETBkTZ5_13multiversx_sc5types7managed7wrapped16managed_vec_item14ManagedVecItem14to_byte_writerppEB8_
FN:337,_RNCINvXININtCsdRzYvL09OST_14liquid_staking11accumulatorsn_0pEINtB8_11TokenAmountpENtNtNtNtNtCs4WmCETBkTZ5_13multiversx_sc5types7managed7wrapped16managed_vec_item14ManagedVecItem14to_byte_writerppE0Ba_
FN:337,_RNCINvXININtCsdRzYvL09OST_14liquid_staking11accumulatorsn_0pEINtB8_11TokenAmountpENtNtNtNtNtCs4WmCETBkTZ5_13multiversx_sc5types7managed7wrapped16managed_vec_item14ManagedVecItem14to_byte_writerppEs_0Ba_
FN:336,_RNvXININtCsdRzYvL09OST_14liquid_staking11accumulatorsf_0pEINtB5_11TokenAmountpENtNtNtCs4WmCETBkTZ5_13multiversx_sc3abi8type_abi7TypeAbi9type_nameB7_
FN:336,_RINvXININtCsdRzYvL09OST_14liquid_staking11accumulatorsf_0pEINtB6_11TokenAmountpENtNtNtCs4WmCETBkTZ5_13multiversx_sc3abi8type_abi7TypeAbi25provide_type_descriptionspEB8_
FN:122,_RNvMs1_NtCs2WGRDwQOHLQ_14liquid_staking11accumulatorINtB5_23AccumulatorProxyMethodsINtNtNtNtNtCs4WmCETBkTZ5_13multiversx_sc5types11interaction7tx_exec9tx_env_sc7TxScEnvINtNtNtNtCseUmQFO6d1K9_22multiversx_sc_scenario3api7impl_vh12vm_hooks_api10VMHooksApiNtNtB2L_9debug_api15DebugApiBackendEEuRINtNtNtNtB1s_7managed7wrapped15managed_address14ManagedAddressB2G_EuE7depositCsaR2MVHtCDM0_4test
FN:23,_RNvXNtCs2WGRDwQOHLQ_14liquid_staking11accumulatorNtB2_16AccumulatorProxyINtNtNtNtCs4WmCETBkTZ5_13multiversx_sc5types11interaction8tx_proxy12TxProxyTraitINtNtNtB1d_7tx_exec9tx_env_sc7TxScEnvINtNtNtNtCseUmQFO6d1K9_22multiversx_sc_scenario3api7impl_vh12vm_hooks_api10VMHooksApiNtNtB36_9debug_api15DebugApiBackendEEuRINtNtNtNtB1f_7managed7wrapped15managed_address14ManagedAddressB31_EuE13proxy_methodsCsaR2MVHtCDM0_4test
FN:122,_RNvMs1_NtCs2WGRDwQOHLQ_14liquid_staking11accumulatorINtB5_23AccumulatorProxyMethodsINtNtNtNtNtCs4WmCETBkTZ5_13multiversx_sc5types11interaction7tx_exec9tx_env_sc7TxScEnvINtNtNtNtCseUmQFO6d1K9_22multiversx_sc_scenario3api7impl_vh12vm_hooks_api10VMHooksApiNtNtB2L_9debug_api15DebugApiBackendEEuRINtNtNtNtB1s_7managed7wrapped15managed_address14ManagedAddressB2G_EuE7depositCsVH6ELXPoQD_15unDelegate_test
FN:23,_RNvXNtCs2WGRDwQOHLQ_14liquid_staking11accumulatorNtB2_16AccumulatorProxyINtNtNtNtCs4WmCETBkTZ5_13multiversx_sc5types11interaction8tx_proxy12TxProxyTraitINtNtNtB1d_7tx_exec9tx_env_sc7TxScEnvINtNtNtNtCseUmQFO6d1K9_22multiversx_sc_scenario3api7impl_vh12vm_hooks_api10VMHooksApiNtNtB36_9debug_api15DebugApiBackendEEuRINtNtNtNtB1f_7managed7wrapped15managed_address14ManagedAddressB31_EuE13proxy_methodsCsVH6ELXPoQD_15unDelegate_test
FN:122,_RNvMs1_NtCs2WGRDwQOHLQ_14liquid_staking11accumulatorINtB5_23AccumulatorProxyMethodsINtNtNtNtNtCs4WmCETBkTZ5_13multiversx_sc5types11interaction7tx_exec9tx_env_sc7TxScEnvINtNtNtNtCseUmQFO6d1K9_22multiversx_sc_scenario3api7impl_vh12vm_hooks_api10VMHooksApiNtNtB2L_9debug_api15DebugApiBackendEEuRINtNtNtNtB1s_7managed7wrapped15managed_address14ManagedAddressB2G_EuE7depositCshHwHQpnfuGH_11unbond_test
FN:23,_RNvXNtCs2WGRDwQOHLQ_14liquid_staking11accumulatorNtB2_16AccumulatorProxyINtNtNtNtCs4WmCETBkTZ5_13multiversx_sc5types11interaction8tx_proxy12TxProxyTraitINtNtNtB1d_7tx_exec9tx_env_sc7TxScEnvINtNtNtNtCseUmQFO6d1K9_22multiversx_sc_scenario3api7impl_vh12vm_hooks_api10VMHooksApiNtNtB36_9debug_api15DebugApiBackendEEuRINtNtNtNtB1f_7managed7wrapped15managed_address14ManagedAddressB31_EuE13proxy_methodsCshHwHQpnfuGH_11unbond_test
FNDA:0,_RNvMs1_NtCs2WGRDwQOHLQ_14liquid_staking11accumulatorINtB5_23AccumulatorProxyMethodsINtNtNtNtNtCs4WmCETBkTZ5_13multiversx_sc5types11interaction7tx_exec9tx_env_sc7TxScEnvINtNtNtNtCseUmQFO6d1K9_22multiversx_sc_scenario3api7impl_vh12vm_hooks_api10VMHooksApiNtNtB2L_9debug_api15DebugApiBackendEEuRINtNtNtNtB1s_7managed7wrapped15managed_address14ManagedAddressB2G_EuE7depositCskEhliFuVTlV_13delegate_test
FNDA:0,_RNvXNtCs2WGRDwQOHLQ_14liquid_staking11accumulatorNtB2_16AccumulatorProxyINtNtNtNtCs4WmCETBkTZ5_13multiversx_sc5types11interaction8tx_proxy12TxProxyTraitINtNtNtB1d_7tx_exec9tx_env_sc7TxScEnvINtNtNtNtCseUmQFO6d1K9_22multiversx_sc_scenario3api7impl_vh12vm_hooks_api10VMHooksApiNtNtB36_9debug_api15DebugApiBackendEEuRINtNtNtNtB1f_7managed7wrapped15managed_address14ManagedAddressB31_EuE13proxy_methodsCskEhliFuVTlV_13delegate_test
FNDA:0,_RNvXININtCsdRzYvL09OST_14liquid_staking11accumulator0ppppENtB5_16AccumulatorProxyINtNtNtNtCs4WmCETBkTZ5_13multiversx_sc5types11interaction8tx_proxy12TxProxyTraitppppE13proxy_methodsB7_
FNDA:0,_RINvMs_NtCsdRzYvL09OST_14liquid_staking11accumulatorINtB5_23AccumulatorProxyMethodsppupE4initppppppEB7_
FNDA:0,_RINvMs0_NtCsdRzYvL09OST_14liquid_staking11accumulatorINtB6_23AccumulatorProxyMethodsppppE7upgradeppppppEB8_
FNDA:0,_RNvMs1_NtCsdRzYvL09OST_14liquid_staking11accumulatorINtB5_23AccumulatorProxyMethodsppppE7depositB7_
FNDA:0,_RINvMs1_NtCsdRzYvL09OST_14liquid_staking11accumulatorINtB6_23AccumulatorProxyMethodsppppE17deposit_royaltiespEB8_
FNDA:0,_RINvMs1_NtCsdRzYvL09OST_14liquid_staking11accumulatorINtB6_23AccumulatorProxyMethodsppppE10distributeppppEB8_
FNDA:0,_RINvMs1_NtCsdRzYvL09OST_14liquid_staking11accumulatorINtB6_23AccumulatorProxyMethodsppppE20distribute_royaltiespppppEB8_
FNDA:0,_RNvMs1_NtCsdRzYvL09OST_14liquid_staking11accumulatorINtB5_23AccumulatorProxyMethodsppppE23claim_protocol_reservesB7_
FNDA:0,_RNvMs1_NtCsdRzYvL09OST_14liquid_staking11accumulatorINtB5_23AccumulatorProxyMethodsppppE7reserveB7_
FNDA:0,_RNvMs1_NtCsdRzYvL09OST_14liquid_staking11accumulatorINtB5_23AccumulatorProxyMethodsppppE12reward_tokenB7_
FNDA:0,_RNvMs1_NtCsdRzYvL09OST_14liquid_staking11accumulatorINtB5_23AccumulatorProxyMethodsppppE19liquid_reward_tokenB7_
FNDA:0,_RNvMs1_NtCsdRzYvL09OST_14liquid_staking11accumulatorINtB5_23AccumulatorProxyMethodsppppE9burn_rateB7_
FNDA:0,_RNvMs1_NtCsdRzYvL09OST_14liquid_staking11accumulatorINtB5_23AccumulatorProxyMethodsppppE10share_rateB7_
FNDA:0,_RNvMs1_NtCsdRzYvL09OST_14liquid_staking11accumulatorINtB5_23AccumulatorProxyMethodsppppE6tokensB7_
FNDA:0,_RINvMs1_NtCsdRzYvL09OST_14liquid_staking11accumulatorINtB6_23AccumulatorProxyMethodsppppE13token_balancepEB8_
FNDA:0,_RNvMs1_NtCsdRzYvL09OST_14liquid_staking11accumulatorINtB5_23AccumulatorProxyMethodsppppE8creatorsB7_
FNDA:0,_RINvMs1_NtCsdRzYvL09OST_14liquid_staking11accumulatorINtB6_23AccumulatorProxyMethodsppppE14creator_tokenspEB8_
FNDA:0,_RINvMs1_NtCsdRzYvL09OST_14liquid_staking11accumulatorINtB6_23AccumulatorProxyMethodsppppE17creator_royaltiesppEB8_
FNDA:0,_RNvMs1_NtCsdRzYvL09OST_14liquid_staking11accumulatorINtB5_23AccumulatorProxyMethodsppppE15xoxno_liquid_scB7_
FNDA:0,_RNvMs1_NtCsdRzYvL09OST_14liquid_staking11accumulatorINtB5_23AccumulatorProxyMethodsppppE6ash_scB7_
FNDA:0,_RINvXININtCsdRzYvL09OST_14liquid_staking11accumulators5_0pEINtB6_14AggregatorSteppENtNtNtCsfDk2A4Sq81E_19multiversx_sc_codec6single6top_en9TopEncode24top_encode_or_handle_errppEB8_
FNDA:0,_RINvXININtCsdRzYvL09OST_14liquid_staking11accumulators6_0pEINtB6_14AggregatorSteppENtNtNtCsfDk2A4Sq81E_19multiversx_sc_codec6single6top_de9TopDecode24top_decode_or_handle_errppEB8_
FNDA:0,_RINvXININtCsdRzYvL09OST_14liquid_staking11accumulators7_0pEINtB6_14AggregatorSteppENtNtNtCsfDk2A4Sq81E_19multiversx_sc_codec6single9nested_en12NestedEncode24dep_encode_or_handle_errppEB8_
FNDA:0,_RINvXININtCsdRzYvL09OST_14liquid_staking11accumulators8_0pEINtB6_14AggregatorSteppENtNtNtCsfDk2A4Sq81E_19multiversx_sc_codec6single9nested_de12NestedDecode24dep_decode_or_handle_errppEB8_
FNDA:0,_RINvXININtCsdRzYvL09OST_14liquid_staking11accumulatorsc_0pEINtB6_14AggregatorSteppENtNtNtNtNtCs4WmCETBkTZ5_13multiversx_sc5types7managed7wrapped16managed_vec_item14ManagedVecItem16from_byte_readerpEB8_
FNDA:0,_RNCINvXININtCsdRzYvL09OST_14liquid_staking11accumulatorsc_0pEINtB8_14AggregatorSteppENtNtNtNtNtCs4WmCETBkTZ5_13multiversx_sc5types7managed7wrapped16managed_vec_item14ManagedVecItem16from_byte_readerpE0Ba_
FNDA:0,_RNCINvXININtCsdRzYvL09OST_14liquid_staking11accumulatorsc_0pEINtB8_14AggregatorSteppENtNtNtNtNtCs4WmCETBkTZ5_13multiversx_sc5types7managed7wrapped16managed_vec_item14ManagedVecItem16from_byte_readerpEs_0Ba_
FNDA:0,_RNCINvXININtCsdRzYvL09OST_14liquid_staking11accumulatorsc_0pEINtB8_14AggregatorSteppENtNtNtNtNtCs4WmCETBkTZ5_13multiversx_sc5types7managed7wrapped16managed_vec_item14ManagedVecItem16from_byte_readerpEs0_0Ba_
FNDA:0,_RNCINvXININtCsdRzYvL09OST_14liquid_staking11accumulatorsc_0pEINtB8_14AggregatorSteppENtNtNtNtNtCs4WmCETBkTZ5_13multiversx_sc5types7managed7wrapped16managed_vec_item14ManagedVecItem16from_byte_readerpEs1_0Ba_
FNDA:0,_RNCINvXININtCsdRzYvL09OST_14liquid_staking11accumulatorsc_0pEINtB8_14AggregatorSteppENtNtNtNtNtCs4WmCETBkTZ5_13multiversx_sc5types7managed7wrapped16managed_vec_item14ManagedVecItem16from_byte_readerpEs2_0Ba_
FNDA:0,_RNCINvXININtCsdRzYvL09OST_14liquid_staking11accumulatorsc_0pEINtB8_14AggregatorSteppENtNtNtNtNtCs4WmCETBkTZ5_13multiversx_sc5types7managed7wrapped16managed_vec_item14ManagedVecItem16from_byte_readerpEs3_0Ba_
FNDA:0,_RINvXININtCsdRzYvL09OST_14liquid_staking11accumulatorsc_0pEINtB6_14AggregatorSteppENtNtNtNtNtCs4WmCETBkTZ5_13multiversx_sc5types7managed7wrapped16managed_vec_item14ManagedVecItem26from_byte_reader_as_borrowpEB8_
FNDA:0,_RINvXININtCsdRzYvL09OST_14liquid_staking11accumulatorsc_0pEINtB6_14AggregatorSteppENtNtNtNtNtCs4WmCETBkTZ5_13multiversx_sc5types7managed7wrapped16managed_vec_item14ManagedVecItem14to_byte_writerppEB8_
FNDA:0,_RNCINvXININtCsdRzYvL09OST_14liquid_staking11accumulatorsc_0pEINtB8_14AggregatorSteppENtNtNtNtNtCs4WmCETBkTZ5_13multiversx_sc5types7managed7wrapped16managed_vec_item14ManagedVecItem14to_byte_writerppE0Ba_
FNDA:0,_RNCINvXININtCsdRzYvL09OST_14liquid_staking11accumulatorsc_0pEINtB8_14AggregatorSteppENtNtNtNtNtCs4WmCETBkTZ5_13multiversx_sc5types7managed7wrapped16managed_vec_item14ManagedVecItem14to_byte_writerppEs_0Ba_
FNDA:0,_RNCINvXININtCsdRzYvL09OST_14liquid_staking11accumulatorsc_0pEINtB8_14AggregatorSteppENtNtNtNtNtCs4WmCETBkTZ5_13multiversx_sc5types7managed7wrapped16managed_vec_item14ManagedVecItem14to_byte_writerppEs0_0Ba_
FNDA:0,_RNCINvXININtCsdRzYvL09OST_14liquid_staking11accumulatorsc_0pEINtB8_14AggregatorSteppENtNtNtNtNtCs4WmCETBkTZ5_13multiversx_sc5types7managed7wrapped16managed_vec_item14ManagedVecItem14to_byte_writerppEs1_0Ba_
FNDA:0,_RNCINvXININtCsdRzYvL09OST_14liquid_staking11accumulatorsc_0pEINtB8_14AggregatorSteppENtNtNtNtNtCs4WmCETBkTZ5_13multiversx_sc5types7managed7wrapped16managed_vec_item14ManagedVecItem14to_byte_writerppEs2_0Ba_
FNDA:0,_RNCINvXININtCsdRzYvL09OST_14liquid_staking11accumulatorsc_0pEINtB8_14AggregatorSteppENtNtNtNtNtCs4WmCETBkTZ5_13multiversx_sc5types7managed7wrapped16managed_vec_item14ManagedVecItem14to_byte_writerppEs3_0Ba_
FNDA:0,_RNvXININtCsdRzYvL09OST_14liquid_staking11accumulators4_0pEINtB5_14AggregatorSteppENtNtNtCs4WmCETBkTZ5_13multiversx_sc3abi8type_abi7TypeAbi9type_nameB7_
FNDA:0,_RINvXININtCsdRzYvL09OST_14liquid_staking11accumulators4_0pEINtB6_14AggregatorSteppENtNtNtCs4WmCETBkTZ5_13multiversx_sc3abi8type_abi7TypeAbi25provide_type_descriptionspEB8_
FNDA:0,_RINvXININtCsdRzYvL09OST_14liquid_staking11accumulatorsg_0pEINtB6_11TokenAmountpENtNtNtCsfDk2A4Sq81E_19multiversx_sc_codec6single6top_en9TopEncode24top_encode_or_handle_errppEB8_
FNDA:0,_RINvXININtCsdRzYvL09OST_14liquid_staking11accumulatorsh_0pEINtB6_11TokenAmountpENtNtNtCsfDk2A4Sq81E_19multiversx_sc_codec6single6top_de9TopDecode24top_decode_or_handle_errppEB8_
FNDA:0,_RINvXININtCsdRzYvL09OST_14liquid_staking11accumulatorsi_0pEINtB6_11TokenAmountpENtNtNtCsfDk2A4Sq81E_19multiversx_sc_codec6single9nested_en12NestedEncode24dep_encode_or_handle_errppEB8_
FNDA:0,_RINvXININtCsdRzYvL09OST_14liquid_staking11accumulatorsj_0pEINtB6_11TokenAmountpENtNtNtCsfDk2A4Sq81E_19multiversx_sc_codec6single9nested_de12NestedDecode24dep_decode_or_handle_errppEB8_
FNDA:0,_RINvXININtCsdRzYvL09OST_14liquid_staking11accumulatorsn_0pEINtB6_11TokenAmountpENtNtNtNtNtCs4WmCETBkTZ5_13multiversx_sc5types7managed7wrapped16managed_vec_item14ManagedVecItem16from_byte_readerpEB8_
FNDA:0,_RNCINvXININtCsdRzYvL09OST_14liquid_staking11accumulatorsn_0pEINtB8_11TokenAmountpENtNtNtNtNtCs4WmCETBkTZ5_13multiversx_sc5types7managed7wrapped16managed_vec_item14ManagedVecItem16from_byte_readerpE0Ba_
FNDA:0,_RNCINvXININtCsdRzYvL09OST_14liquid_staking11accumulatorsn_0pEINtB8_11TokenAmountpENtNtNtNtNtCs4WmCETBkTZ5_13multiversx_sc5types7managed7wrapped16managed_vec_item14ManagedVecItem16from_byte_readerpEs_0Ba_
FNDA:0,_RINvXININtCsdRzYvL09OST_14liquid_staking11accumulatorsn_0pEINtB6_11TokenAmountpENtNtNtNtNtCs4WmCETBkTZ5_13multiversx_sc5types7managed7wrapped16managed_vec_item14ManagedVecItem26from_byte_reader_as_borrowpEB8_
FNDA:0,_RINvXININtCsdRzYvL09OST_14liquid_staking11accumulatorsn_0pEINtB6_11TokenAmountpENtNtNtNtNtCs4WmCETBkTZ5_13multiversx_sc5types7managed7wrapped16managed_vec_item14ManagedVecItem14to_byte_writerppEB8_
FNDA:0,_RNCINvXININtCsdRzYvL09OST_14liquid_staking11accumulatorsn_0pEINtB8_11TokenAmountpENtNtNtNtNtCs4WmCETBkTZ5_13multiversx_sc5types7managed7wrapped16managed_vec_item14ManagedVecItem14to_byte_writerppE0Ba_
FNDA:0,_RNCINvXININtCsdRzYvL09OST_14liquid_staking11accumulatorsn_0pEINtB8_11TokenAmountpENtNtNtNtNtCs4WmCETBkTZ5_13multiversx_sc5types7managed7wrapped16managed_vec_item14ManagedVecItem14to_byte_writerppEs_0Ba_
FNDA:0,_RNvXININtCsdRzYvL09OST_14liquid_staking11accumulatorsf_0pEINtB5_11TokenAmountpENtNtNtCs4WmCETBkTZ5_13multiversx_sc3abi8type_abi7TypeAbi9type_nameB7_
FNDA:0,_RINvXININtCsdRzYvL09OST_14liquid_staking11accumulatorsf_0pEINtB6_11TokenAmountpENtNtNtCs4WmCETBkTZ5_13multiversx_sc3abi8type_abi7TypeAbi25provide_type_descriptionspEB8_
FNDA:1,_RNvMs1_NtCs2WGRDwQOHLQ_14liquid_staking11accumulatorINtB5_23AccumulatorProxyMethodsINtNtNtNtNtCs4WmCETBkTZ5_13multiversx_sc5types11interaction7tx_exec9tx_env_sc7TxScEnvINtNtNtNtCseUmQFO6d1K9_22multiversx_sc_scenario3api7impl_vh12vm_hooks_api10VMHooksApiNtNtB2L_9debug_api15DebugApiBackendEEuRINtNtNtNtB1s_7managed7wrapped15managed_address14ManagedAddressB2G_EuE7depositCsaR2MVHtCDM0_4test
FNDA:1,_RNvXNtCs2WGRDwQOHLQ_14liquid_staking11accumulatorNtB2_16AccumulatorProxyINtNtNtNtCs4WmCETBkTZ5_13multiversx_sc5types11interaction8tx_proxy12TxProxyTraitINtNtNtB1d_7tx_exec9tx_env_sc7TxScEnvINtNtNtNtCseUmQFO6d1K9_22multiversx_sc_scenario3api7impl_vh12vm_hooks_api10VMHooksApiNtNtB36_9debug_api15DebugApiBackendEEuRINtNtNtNtB1f_7managed7wrapped15managed_address14ManagedAddressB31_EuE13proxy_methodsCsaR2MVHtCDM0_4test
FNDA:0,_RNvMs1_NtCs2WGRDwQOHLQ_14liquid_staking11accumulatorINtB5_23AccumulatorProxyMethodsINtNtNtNtNtCs4WmCETBkTZ5_13multiversx_sc5types11interaction7tx_exec9tx_env_sc7TxScEnvINtNtNtNtCseUmQFO6d1K9_22multiversx_sc_scenario3api7impl_vh12vm_hooks_api10VMHooksApiNtNtB2L_9debug_api15DebugApiBackendEEuRINtNtNtNtB1s_7managed7wrapped15managed_address14ManagedAddressB2G_EuE7depositCsVH6ELXPoQD_15unDelegate_test
FNDA:0,_RNvXNtCs2WGRDwQOHLQ_14liquid_staking11accumulatorNtB2_16AccumulatorProxyINtNtNtNtCs4WmCETBkTZ5_13multiversx_sc5types11interaction8tx_proxy12TxProxyTraitINtNtNtB1d_7tx_exec9tx_env_sc7TxScEnvINtNtNtNtCseUmQFO6d1K9_22multiversx_sc_scenario3api7impl_vh12vm_hooks_api10VMHooksApiNtNtB36_9debug_api15DebugApiBackendEEuRINtNtNtNtB1f_7managed7wrapped15managed_address14ManagedAddressB31_EuE13proxy_methodsCsVH6ELXPoQD_15unDelegate_test
FNDA:0,_RNvMs1_NtCs2WGRDwQOHLQ_14liquid_staking11accumulatorINtB5_23AccumulatorProxyMethodsINtNtNtNtNtCs4WmCETBkTZ5_13multiversx_sc5types11interaction7tx_exec9tx_env_sc7TxScEnvINtNtNtNtCseUmQFO6d1K9_22multiversx_sc_scenario3api7impl_vh12vm_hooks_api10VMHooksApiNtNtB2L_9debug_api15DebugApiBackendEEuRINtNtNtNtB1s_7managed7wrapped15managed_address14ManagedAddressB2G_EuE7depositCshHwHQpnfuGH_11unbond_test
FNDA:0,_RNvXNtCs2WGRDwQOHLQ_14liquid_staking11accumulatorNtB2_16AccumulatorProxyINtNtNtNtCs4WmCETBkTZ5_13multiversx_sc5types11interaction8tx_proxy12TxProxyTraitINtNtNtB1d_7tx_exec9tx_env_sc7TxScEnvINtNtNtNtCseUmQFO6d1K9_22multiversx_sc_scenario3api7impl_vh12vm_hooks_api10VMHooksApiNtNtB36_9debug_api15DebugApiBackendEEuRINtNtNtNtB1f_7managed7wrapped15managed_address14ManagedAddressB31_EuE13proxy_methodsCshHwHQpnfuGH_11unbond_test
FNF:32
FNH:2
DA:23,1
DA:24,1
DA:25,1
DA:46,0
DA:47,0
DA:48,0
DA:49,0
DA:50,0
DA:51,0
DA:52,0
DA:53,0
DA:54,0
DA:55,0
DA:56,0
DA:57,0
DA:58,0
DA:59,0
DA:60,0
DA:61,0
DA:62,0
DA:63,0
DA:64,0
DA:65,0
DA:66,0
DA:67,0
DA:68,0
DA:69,0
DA:70,0
DA:71,0
DA:72,0
DA:84,0
DA:85,0
DA:86,0
DA:87,0
DA:88,0
DA:89,0
DA:90,0
DA:91,0
DA:92,0
DA:93,0
DA:94,0
DA:95,0
DA:96,0
DA:97,0
DA:98,0
DA:99,0
DA:100,0
DA:101,0
DA:102,0
DA:103,0
DA:104,0
DA:105,0
DA:106,0
DA:107,0
DA:108,0
DA:109,0
DA:110,0
DA:122,1
DA:123,1
DA:124,1
DA:125,1
DA:126,1
DA:127,1
DA:128,1
DA:130,0
DA:131,0
DA:132,0
DA:133,0
DA:134,0
DA:135,0
DA:136,0
DA:137,0
DA:138,0
DA:139,0
DA:140,0
DA:142,0
DA:143,0
DA:144,0
DA:145,0
DA:146,0
DA:147,0
DA:148,0
DA:149,0
DA:150,0
DA:151,0
DA:152,0
DA:153,0
DA:154,0
DA:155,0
DA:156,0
DA:157,0
DA:158,0
DA:159,0
DA:160,0
DA:161,0
DA:162,0
DA:164,0
DA:165,0
DA:166,0
DA:167,0
DA:168,0
DA:169,0
DA:170,0
DA:171,0
DA:172,0
DA:173,0
DA:174,0
DA:175,0
DA:176,0
DA:177,0
DA:178,0
DA:179,0
DA:180,0
DA:181,0
DA:182,0
DA:183,0
DA:184,0
DA:185,0
DA:186,0
DA:187,0
DA:189,0
DA:190,0
DA:191,0
DA:192,0
DA:193,0
DA:194,0
DA:195,0
DA:196,0
DA:198,0
DA:199,0
DA:200,0
DA:201,0
DA:202,0
DA:203,0
DA:204,0
DA:205,0
DA:207,0
DA:208,0
DA:209,0
DA:210,0
DA:211,0
DA:212,0
DA:213,0
DA:214,0
DA:216,0
DA:217,0
DA:218,0
DA:219,0
DA:220,0
DA:221,0
DA:222,0
DA:223,0
DA:225,0
DA:226,0
DA:227,0
DA:228,0
DA:229,0
DA:230,0
DA:231,0
DA:232,0
DA:234,0
DA:235,0
DA:236,0
DA:237,0
DA:238,0
DA:239,0
DA:240,0
DA:241,0
DA:243,0
DA:244,0
DA:245,0
DA:246,0
DA:247,0
DA:248,0
DA:249,0
DA:250,0
DA:252,0
DA:253,0
DA:254,0
DA:255,0
DA:256,0
DA:257,0
DA:258,0
DA:259,0
DA:260,0
DA:261,0
DA:262,0
DA:263,0
DA:265,0
DA:266,0
DA:267,0
DA:268,0
DA:269,0
DA:270,0
DA:271,0
DA:272,0
DA:274,0
DA:275,0
DA:276,0
DA:277,0
DA:278,0
DA:279,0
DA:280,0
DA:281,0
DA:282,0
DA:283,0
DA:284,0
DA:285,0
DA:287,0
DA:288,0
DA:289,0
DA:290,0
DA:291,0
DA:292,0
DA:293,0
DA:294,0
DA:295,0
DA:296,0
DA:297,0
DA:298,0
DA:299,0
DA:300,0
DA:301,0
DA:303,0
DA:304,0
DA:305,0
DA:306,0
DA:307,0
DA:308,0
DA:309,0
DA:310,0
DA:312,0
DA:313,0
DA:314,0
DA:315,0
DA:316,0
DA:317,0
DA:318,0
DA:319,0
DA:322,0
DA:323,0
DA:336,0
DA:337,0
BRF:0
BRH:0
LF:251
LH:10
end_of_record
SF:/Users/mihaieremia/GitHub/rs-egld-liquid-staking/liquid-staking/src/callback.rs
FN:9,_RNvXNtCs2WGRDwQOHLQ_14liquid_staking8callbackINtB4_11ContractObjINtNtNtNtCseUmQFO6d1K9_22multiversx_sc_scenario3api7impl_vh12vm_hooks_api10VMHooksApiNtNtB15_9debug_api15DebugApiBackendEENtB2_14CallbackModule9callbacksCskEhliFuVTlV_13delegate_test
FN:56,_RNvYINtCs2WGRDwQOHLQ_14liquid_staking11ContractObjINtNtNtNtCseUmQFO6d1K9_22multiversx_sc_scenario3api7impl_vh12vm_hooks_api10VMHooksApiNtNtBR_9debug_api15DebugApiBackendEENtNtB5_8callback14CallbackModule22add_liquidity_callbackCskEhliFuVTlV_13delegate_test
FN:101,_RNvYINtCs2WGRDwQOHLQ_14liquid_staking11ContractObjINtNtNtNtCseUmQFO6d1K9_22multiversx_sc_scenario3api7impl_vh12vm_hooks_api10VMHooksApiNtNtBR_9debug_api15DebugApiBackendEENtNtB5_8callback14CallbackModule22claim_rewards_callbackCskEhliFuVTlV_13delegate_test
FN:77,_RNvYINtCs2WGRDwQOHLQ_14liquid_staking11ContractObjINtNtNtNtCseUmQFO6d1K9_22multiversx_sc_scenario3api7impl_vh12vm_hooks_api10VMHooksApiNtNtBR_9debug_api15DebugApiBackendEENtNtB5_8callback14CallbackModule24withdraw_tokens_callbackCskEhliFuVTlV_13delegate_test
FN:122,_RNvYINtCs2WGRDwQOHLQ_14liquid_staking11ContractObjINtNtNtNtCseUmQFO6d1K9_22multiversx_sc_scenario3api7impl_vh12vm_hooks_api10VMHooksApiNtNtBR_9debug_api15DebugApiBackendEENtNtB5_8callback14CallbackModule25delegate_rewards_callbackCskEhliFuVTlV_13delegate_test
FN:26,_RNvYINtCs2WGRDwQOHLQ_14liquid_staking11ContractObjINtNtNtNtCseUmQFO6d1K9_22multiversx_sc_scenario3api7impl_vh12vm_hooks_api10VMHooksApiNtNtBR_9debug_api15DebugApiBackendEENtNtB5_8callback14CallbackModule25remove_liquidity_callbackCskEhliFuVTlV_13delegate_test
FN:9,_RNvYINtCs2WGRDwQOHLQ_14liquid_staking11ContractObjINtNtNtNtCseUmQFO6d1K9_22multiversx_sc_scenario3api7impl_vh12vm_hooks_api10VMHooksApiNtNtBR_9debug_api15DebugApiBackendEENtNtB5_8callback16EndpointWrappers17callback_selectorCskEhliFuVTlV_13delegate_test
FN:9,_RNvYINtCs2WGRDwQOHLQ_14liquid_staking11ContractObjINtNtNtNtCseUmQFO6d1K9_22multiversx_sc_scenario3api7impl_vh12vm_hooks_api10VMHooksApiNtNtBR_9debug_api15DebugApiBackendEENtNtB5_8callback16EndpointWrappers27call_add_liquidity_callbackCskEhliFuVTlV_13delegate_test
FN:9,_RNvYINtCs2WGRDwQOHLQ_14liquid_staking11ContractObjINtNtNtNtCseUmQFO6d1K9_22multiversx_sc_scenario3api7impl_vh12vm_hooks_api10VMHooksApiNtNtBR_9debug_api15DebugApiBackendEENtNtB5_8callback16EndpointWrappers27call_claim_rewards_callbackCskEhliFuVTlV_13delegate_test
FN:9,_RNvYINtCs2WGRDwQOHLQ_14liquid_staking11ContractObjINtNtNtNtCseUmQFO6d1K9_22multiversx_sc_scenario3api7impl_vh12vm_hooks_api10VMHooksApiNtNtBR_9debug_api15DebugApiBackendEENtNtB5_8callback16EndpointWrappers29call_withdraw_tokens_callbackCskEhliFuVTlV_13delegate_test
FN:9,_RNvYINtCs2WGRDwQOHLQ_14liquid_staking11ContractObjINtNtNtNtCseUmQFO6d1K9_22multiversx_sc_scenario3api7impl_vh12vm_hooks_api10VMHooksApiNtNtBR_9debug_api15DebugApiBackendEENtNtB5_8callback16EndpointWrappers30call_delegate_rewards_callbackCskEhliFuVTlV_13delegate_test
FN:9,_RNvYINtCs2WGRDwQOHLQ_14liquid_staking11ContractObjINtNtNtNtCseUmQFO6d1K9_22multiversx_sc_scenario3api7impl_vh12vm_hooks_api10VMHooksApiNtNtBR_9debug_api15DebugApiBackendEENtNtB5_8callback16EndpointWrappers30call_remove_liquidity_callbackCskEhliFuVTlV_13delegate_test
FN:9,_RNvYINtCs2WGRDwQOHLQ_14liquid_staking11ContractObjINtNtNtNtCseUmQFO6d1K9_22multiversx_sc_scenario3api7impl_vh12vm_hooks_api10VMHooksApiNtNtBR_9debug_api15DebugApiBackendEENtNtB5_8callback16EndpointWrappers4callCskEhliFuVTlV_13delegate_test
FN:9,_RNvYINtCs2WGRDwQOHLQ_14liquid_staking11ContractObjINtNtNtNtCseUmQFO6d1K9_22multiversx_sc_scenario3api7impl_vh12vm_hooks_api10VMHooksApiNtNtBR_9debug_api15DebugApiBackendEENtNtB5_8callback16EndpointWrappers8callbackCskEhliFuVTlV_13delegate_test
FN:61,_RNCNvYINtCs2WGRDwQOHLQ_14liquid_staking11ContractObjINtNtNtNtCseUmQFO6d1K9_22multiversx_sc_scenario3api7impl_vh12vm_hooks_api10VMHooksApiNtNtBT_9debug_api15DebugApiBackendEENtNtB7_8callback14CallbackModule22add_liquidity_callback0CskEhliFuVTlV_13delegate_test
FN:87,_RNCNvYINtCs2WGRDwQOHLQ_14liquid_staking11ContractObjINtNtNtNtCseUmQFO6d1K9_22multiversx_sc_scenario3api7impl_vh12vm_hooks_api10VMHooksApiNtNtBT_9debug_api15DebugApiBackendEENtNtB7_8callback14CallbackModule24withdraw_tokens_callback0CskEhliFuVTlV_13delegate_test
FN:127,_RNCNvYINtCs2WGRDwQOHLQ_14liquid_staking11ContractObjINtNtNtNtCseUmQFO6d1K9_22multiversx_sc_scenario3api7impl_vh12vm_hooks_api10VMHooksApiNtNtBT_9debug_api15DebugApiBackendEENtNtB7_8callback14CallbackModule25delegate_rewards_callback0CskEhliFuVTlV_13delegate_test
FN:135,_RNCNvYINtCs2WGRDwQOHLQ_14liquid_staking11ContractObjINtNtNtNtCseUmQFO6d1K9_22multiversx_sc_scenario3api7impl_vh12vm_hooks_api10VMHooksApiNtNtBT_9debug_api15DebugApiBackendEENtNtB7_8callback14CallbackModule25delegate_rewards_callbacks_0CskEhliFuVTlV_13delegate_test
FN:31,_RNCNvYINtCs2WGRDwQOHLQ_14liquid_staking11ContractObjINtNtNtNtCseUmQFO6d1K9_22multiversx_sc_scenario3api7impl_vh12vm_hooks_api10VMHooksApiNtNtBT_9debug_api15DebugApiBackendEENtNtB7_8callback14CallbackModule25remove_liquidity_callback0CskEhliFuVTlV_13delegate_test
FN:9,_RNvXsn_NtCs2WGRDwQOHLQ_14liquid_staking8callbackINtB5_16CallbackProxyObjINtNtNtNtCseUmQFO6d1K9_22multiversx_sc_scenario3api7impl_vh12vm_hooks_api10VMHooksApiNtNtB1d_9debug_api15DebugApiBackendEENtNtNtCs4WmCETBkTZ5_13multiversx_sc13contract_base23proxy_obj_callback_base20CallbackProxyObjBase16new_cb_proxy_objCskEhliFuVTlV_13delegate_test
FN:9,_RNvYINtNtCs2WGRDwQOHLQ_14liquid_staking8callback16CallbackProxyObjINtNtNtNtCseUmQFO6d1K9_22multiversx_sc_scenario3api7impl_vh12vm_hooks_api10VMHooksApiNtNtB17_9debug_api15DebugApiBackendEENtB5_13CallbackProxy22add_liquidity_callbackCskEhliFuVTlV_13delegate_test
FN:9,_RNvYINtNtCs2WGRDwQOHLQ_14liquid_staking8callback16CallbackProxyObjINtNtNtNtCseUmQFO6d1K9_22multiversx_sc_scenario3api7impl_vh12vm_hooks_api10VMHooksApiNtNtB17_9debug_api15DebugApiBackendEENtB5_13CallbackProxy22claim_rewards_callbackCskEhliFuVTlV_13delegate_test
FN:9,_RNvYINtNtCs2WGRDwQOHLQ_14liquid_staking8callback16CallbackProxyObjINtNtNtNtCseUmQFO6d1K9_22multiversx_sc_scenario3api7impl_vh12vm_hooks_api10VMHooksApiNtNtB17_9debug_api15DebugApiBackendEENtB5_13CallbackProxy24withdraw_tokens_callbackCskEhliFuVTlV_13delegate_test
FN:9,_RNvYINtNtCs2WGRDwQOHLQ_14liquid_staking8callback16CallbackProxyObjINtNtNtNtCseUmQFO6d1K9_22multiversx_sc_scenario3api7impl_vh12vm_hooks_api10VMHooksApiNtNtB17_9debug_api15DebugApiBackendEENtB5_13CallbackProxy25delegate_rewards_callbackCskEhliFuVTlV_13delegate_test
FN:9,_RNvYINtNtCs2WGRDwQOHLQ_14liquid_staking8callback16CallbackProxyObjINtNtNtNtCseUmQFO6d1K9_22multiversx_sc_scenario3api7impl_vh12vm_hooks_api10VMHooksApiNtNtB17_9debug_api15DebugApiBackendEENtB5_13CallbackProxy25remove_liquidity_callbackCskEhliFuVTlV_13delegate_test
FN:26,_RNvYpNtNtCsdRzYvL09OST_14liquid_staking8callback14CallbackModule25remove_liquidity_callbackB7_
FN:31,_RNCNvYpNtNtCsdRzYvL09OST_14liquid_staking8callback14CallbackModule25remove_liquidity_callback0B9_
FN:56,_RNvYpNtNtCsdRzYvL09OST_14liquid_staking8callback14CallbackModule22add_liquidity_callbackB7_
FN:61,_RNCNvYpNtNtCsdRzYvL09OST_14liquid_staking8callback14CallbackModule22add_liquidity_callback0B9_
FN:77,_RNvYpNtNtCsdRzYvL09OST_14liquid_staking8callback14CallbackModule24withdraw_tokens_callbackB7_
FN:87,_RNCNvYpNtNtCsdRzYvL09OST_14liquid_staking8callback14CallbackModule24withdraw_tokens_callback0B9_
FN:101,_RNvYpNtNtCsdRzYvL09OST_14liquid_staking8callback14CallbackModule22claim_rewards_callbackB7_
FN:122,_RNvYpNtNtCsdRzYvL09OST_14liquid_staking8callback14CallbackModule25delegate_rewards_callbackB7_
FN:127,_RNCNvYpNtNtCsdRzYvL09OST_14liquid_staking8callback14CallbackModule25delegate_rewards_callback0B9_
FN:135,_RNCNvYpNtNtCsdRzYvL09OST_14liquid_staking8callback14CallbackModule25delegate_rewards_callbacks_0B9_
FN:9,_RNvXININtCsdRzYvL09OST_14liquid_staking8callback0pEpNtB5_14CallbackModule9callbacksB7_
FN:9,_RNvYpNtNtCsdRzYvL09OST_14liquid_staking8callback16EndpointWrappers30call_remove_liquidity_callbackB7_
FN:9,_RNvYpNtNtCsdRzYvL09OST_14liquid_staking8callback16EndpointWrappers27call_add_liquidity_callbackB7_
FN:9,_RNvYpNtNtCsdRzYvL09OST_14liquid_staking8callback16EndpointWrappers29call_withdraw_tokens_callbackB7_
FN:9,_RNvYpNtNtCsdRzYvL09OST_14liquid_staking8callback16EndpointWrappers27call_claim_rewards_callbackB7_
FN:9,_RNvYpNtNtCsdRzYvL09OST_14liquid_staking8callback16EndpointWrappers30call_delegate_rewards_callbackB7_
FN:9,_RNvYpNtNtCsdRzYvL09OST_14liquid_staking8callback16EndpointWrappers4callB7_
FN:9,_RNvYpNtNtCsdRzYvL09OST_14liquid_staking8callback16EndpointWrappers17callback_selectorB7_
FN:9,_RNvYpNtNtCsdRzYvL09OST_14liquid_staking8callback16EndpointWrappers8callbackB7_
FN:9,_RNvXs1_NtCsdRzYvL09OST_14liquid_staking8callbackNtB5_11AbiProviderNtNtNtCs4WmCETBkTZ5_13multiversx_sc13contract_base21contract_abi_provider19ContractAbiProvider3abi
FN:9,_RNvXININtCsdRzYvL09OST_14liquid_staking8callbacksl_0pEINtB5_11ContractObjpENtNtNtCs4WmCETBkTZ5_13multiversx_sc13contract_base17callable_contract16CallableContract4callB7_
FN:9,_RINvNtCsdRzYvL09OST_14liquid_staking8callback12contract_objpEB4_
FN:9,_RINvXsm_NtCsdRzYvL09OST_14liquid_staking8callbackNtB6_15ContractBuilderNtNtNtCs4WmCETBkTZ5_13multiversx_sc13contract_base17callable_contract23CallableContractBuilder16new_contract_objpEB8_
FN:9,_RINvNtNtCsdRzYvL09OST_14liquid_staking8callback19___wasm__endpoints__25remove_liquidity_callbackpEB6_
FN:9,_RINvNtNtCsdRzYvL09OST_14liquid_staking8callback19___wasm__endpoints__22add_liquidity_callbackpEB6_
FN:9,_RINvNtNtCsdRzYvL09OST_14liquid_staking8callback19___wasm__endpoints__24withdraw_tokens_callbackpEB6_
FN:9,_RINvNtNtCsdRzYvL09OST_14liquid_staking8callback19___wasm__endpoints__22claim_rewards_callbackpEB6_
FN:9,_RINvNtNtCsdRzYvL09OST_14liquid_staking8callback19___wasm__endpoints__25delegate_rewards_callbackpEB6_
FN:9,_RNvXININtCsdRzYvL09OST_14liquid_staking8callbacksn_0pEINtB5_16CallbackProxyObjpENtNtNtCs4WmCETBkTZ5_13multiversx_sc13contract_base23proxy_obj_callback_base20CallbackProxyObjBase16new_cb_proxy_objB7_
FN:9,_RNvYpNtNtCsdRzYvL09OST_14liquid_staking8callback13CallbackProxy25remove_liquidity_callbackB7_
FN:9,_RNvYpNtNtCsdRzYvL09OST_14liquid_staking8callback13CallbackProxy22add_liquidity_callbackB7_
FN:9,_RNvYpNtNtCsdRzYvL09OST_14liquid_staking8callback13CallbackProxy24withdraw_tokens_callbackB7_
FN:9,_RNvYpNtNtCsdRzYvL09OST_14liquid_staking8callback13CallbackProxy22claim_rewards_callbackB7_
FN:9,_RNvYpNtNtCsdRzYvL09OST_14liquid_staking8callback13CallbackProxy25delegate_rewards_callbackB7_
FN:61,_RNCNvYINtCs2WGRDwQOHLQ_14liquid_staking11ContractObjINtNtNtNtCseUmQFO6d1K9_22multiversx_sc_scenario3api7impl_vh12vm_hooks_api10VMHooksApiNtNtBT_9debug_api15DebugApiBackendEENtNtB7_8callback14CallbackModule22add_liquidity_callback0CsaR2MVHtCDM0_4test
FN:87,_RNCNvYINtCs2WGRDwQOHLQ_14liquid_staking11ContractObjINtNtNtNtCseUmQFO6d1K9_22multiversx_sc_scenario3api7impl_vh12vm_hooks_api10VMHooksApiNtNtBT_9debug_api15DebugApiBackendEENtNtB7_8callback14CallbackModule24withdraw_tokens_callback0CsaR2MVHtCDM0_4test
FN:127,_RNCNvYINtCs2WGRDwQOHLQ_14liquid_staking11ContractObjINtNtNtNtCseUmQFO6d1K9_22multiversx_sc_scenario3api7impl_vh12vm_hooks_api10VMHooksApiNtNtBT_9debug_api15DebugApiBackendEENtNtB7_8callback14CallbackModule25delegate_rewards_callback0CsaR2MVHtCDM0_4test
FN:135,_RNCNvYINtCs2WGRDwQOHLQ_14liquid_staking11ContractObjINtNtNtNtCseUmQFO6d1K9_22multiversx_sc_scenario3api7impl_vh12vm_hooks_api10VMHooksApiNtNtBT_9debug_api15DebugApiBackendEENtNtB7_8callback14CallbackModule25delegate_rewards_callbacks_0CsaR2MVHtCDM0_4test
FN:31,_RNCNvYINtCs2WGRDwQOHLQ_14liquid_staking11ContractObjINtNtNtNtCseUmQFO6d1K9_22multiversx_sc_scenario3api7impl_vh12vm_hooks_api10VMHooksApiNtNtBT_9debug_api15DebugApiBackendEENtNtB7_8callback14CallbackModule25remove_liquidity_callback0CsaR2MVHtCDM0_4test
FN:9,_RNvXsn_NtCs2WGRDwQOHLQ_14liquid_staking8callbackINtB5_16CallbackProxyObjINtNtNtNtCseUmQFO6d1K9_22multiversx_sc_scenario3api7impl_vh12vm_hooks_api10VMHooksApiNtNtB1d_9debug_api15DebugApiBackendEENtNtNtCs4WmCETBkTZ5_13multiversx_sc13contract_base23proxy_obj_callback_base20CallbackProxyObjBase16new_cb_proxy_objCsaR2MVHtCDM0_4test
FN:9,_RNvYINtNtCs2WGRDwQOHLQ_14liquid_staking8callback16CallbackProxyObjINtNtNtNtCseUmQFO6d1K9_22multiversx_sc_scenario3api7impl_vh12vm_hooks_api10VMHooksApiNtNtB17_9debug_api15DebugApiBackendEENtB5_13CallbackProxy22add_liquidity_callbackCsaR2MVHtCDM0_4test
FN:9,_RNvYINtNtCs2WGRDwQOHLQ_14liquid_staking8callback16CallbackProxyObjINtNtNtNtCseUmQFO6d1K9_22multiversx_sc_scenario3api7impl_vh12vm_hooks_api10VMHooksApiNtNtB17_9debug_api15DebugApiBackendEENtB5_13CallbackProxy22claim_rewards_callbackCsaR2MVHtCDM0_4test
FN:9,_RNvYINtNtCs2WGRDwQOHLQ_14liquid_staking8callback16CallbackProxyObjINtNtNtNtCseUmQFO6d1K9_22multiversx_sc_scenario3api7impl_vh12vm_hooks_api10VMHooksApiNtNtB17_9debug_api15DebugApiBackendEENtB5_13CallbackProxy24withdraw_tokens_callbackCsaR2MVHtCDM0_4test
FN:9,_RNvYINtNtCs2WGRDwQOHLQ_14liquid_staking8callback16CallbackProxyObjINtNtNtNtCseUmQFO6d1K9_22multiversx_sc_scenario3api7impl_vh12vm_hooks_api10VMHooksApiNtNtB17_9debug_api15DebugApiBackendEENtB5_13CallbackProxy25delegate_rewards_callbackCsaR2MVHtCDM0_4test
FN:9,_RNvYINtNtCs2WGRDwQOHLQ_14liquid_staking8callback16CallbackProxyObjINtNtNtNtCseUmQFO6d1K9_22multiversx_sc_scenario3api7impl_vh12vm_hooks_api10VMHooksApiNtNtB17_9debug_api15DebugApiBackendEENtB5_13CallbackProxy25remove_liquidity_callbackCsaR2MVHtCDM0_4test
FN:9,_RNvXNtCs2WGRDwQOHLQ_14liquid_staking8callbackINtB4_11ContractObjINtNtNtNtCseUmQFO6d1K9_22multiversx_sc_scenario3api7impl_vh12vm_hooks_api10VMHooksApiNtNtB15_9debug_api15DebugApiBackendEENtB2_14CallbackModule9callbacksCsaR2MVHtCDM0_4test
FN:56,_RNvYINtCs2WGRDwQOHLQ_14liquid_staking11ContractObjINtNtNtNtCseUmQFO6d1K9_22multiversx_sc_scenario3api7impl_vh12vm_hooks_api10VMHooksApiNtNtBR_9debug_api15DebugApiBackendEENtNtB5_8callback14CallbackModule22add_liquidity_callbackCsaR2MVHtCDM0_4test
FN:101,_RNvYINtCs2WGRDwQOHLQ_14liquid_staking11ContractObjINtNtNtNtCseUmQFO6d1K9_22multiversx_sc_scenario3api7impl_vh12vm_hooks_api10VMHooksApiNtNtBR_9debug_api15DebugApiBackendEENtNtB5_8callback14CallbackModule22claim_rewards_callbackCsaR2MVHtCDM0_4test
FN:77,_RNvYINtCs2WGRDwQOHLQ_14liquid_staking11ContractObjINtNtNtNtCseUmQFO6d1K9_22multiversx_sc_scenario3api7impl_vh12vm_hooks_api10VMHooksApiNtNtBR_9debug_api15DebugApiBackendEENtNtB5_8callback14CallbackModule24withdraw_tokens_callbackCsaR2MVHtCDM0_4test
FN:122,_RNvYINtCs2WGRDwQOHLQ_14liquid_staking11ContractObjINtNtNtNtCseUmQFO6d1K9_22multiversx_sc_scenario3api7impl_vh12vm_hooks_api10VMHooksApiNtNtBR_9debug_api15DebugApiBackendEENtNtB5_8callback14CallbackModule25delegate_rewards_callbackCsaR2MVHtCDM0_4test
FN:26,_RNvYINtCs2WGRDwQOHLQ_14liquid_staking11ContractObjINtNtNtNtCseUmQFO6d1K9_22multiversx_sc_scenario3api7impl_vh12vm_hooks_api10VMHooksApiNtNtBR_9debug_api15DebugApiBackendEENtNtB5_8callback14CallbackModule25remove_liquidity_callbackCsaR2MVHtCDM0_4test
FN:9,_RNvYINtCs2WGRDwQOHLQ_14liquid_staking11ContractObjINtNtNtNtCseUmQFO6d1K9_22multiversx_sc_scenario3api7impl_vh12vm_hooks_api10VMHooksApiNtNtBR_9debug_api15DebugApiBackendEENtNtB5_8callback16EndpointWrappers17callback_selectorCsaR2MVHtCDM0_4test
FN:9,_RNvYINtCs2WGRDwQOHLQ_14liquid_staking11ContractObjINtNtNtNtCseUmQFO6d1K9_22multiversx_sc_scenario3api7impl_vh12vm_hooks_api10VMHooksApiNtNtBR_9debug_api15DebugApiBackendEENtNtB5_8callback16EndpointWrappers27call_add_liquidity_callbackCsaR2MVHtCDM0_4test
FN:9,_RNvYINtCs2WGRDwQOHLQ_14liquid_staking11ContractObjINtNtNtNtCseUmQFO6d1K9_22multiversx_sc_scenario3api7impl_vh12vm_hooks_api10VMHooksApiNtNtBR_9debug_api15DebugApiBackendEENtNtB5_8callback16EndpointWrappers27call_claim_rewards_callbackCsaR2MVHtCDM0_4test
FN:9,_RNvYINtCs2WGRDwQOHLQ_14liquid_staking11ContractObjINtNtNtNtCseUmQFO6d1K9_22multiversx_sc_scenario3api7impl_vh12vm_hooks_api10VMHooksApiNtNtBR_9debug_api15DebugApiBackendEENtNtB5_8callback16EndpointWrappers29call_withdraw_tokens_callbackCsaR2MVHtCDM0_4test
FN:9,_RNvYINtCs2WGRDwQOHLQ_14liquid_staking11ContractObjINtNtNtNtCseUmQFO6d1K9_22multiversx_sc_scenario3api7impl_vh12vm_hooks_api10VMHooksApiNtNtBR_9debug_api15DebugApiBackendEENtNtB5_8callback16EndpointWrappers30call_delegate_rewards_callbackCsaR2MVHtCDM0_4test
FN:9,_RNvYINtCs2WGRDwQOHLQ_14liquid_staking11ContractObjINtNtNtNtCseUmQFO6d1K9_22multiversx_sc_scenario3api7impl_vh12vm_hooks_api10VMHooksApiNtNtBR_9debug_api15DebugApiBackendEENtNtB5_8callback16EndpointWrappers30call_remove_liquidity_callbackCsaR2MVHtCDM0_4test
FN:9,_RNvYINtCs2WGRDwQOHLQ_14liquid_staking11ContractObjINtNtNtNtCseUmQFO6d1K9_22multiversx_sc_scenario3api7impl_vh12vm_hooks_api10VMHooksApiNtNtBR_9debug_api15DebugApiBackendEENtNtB5_8callback16EndpointWrappers4callCsaR2MVHtCDM0_4test
FN:9,_RNvYINtCs2WGRDwQOHLQ_14liquid_staking11ContractObjINtNtNtNtCseUmQFO6d1K9_22multiversx_sc_scenario3api7impl_vh12vm_hooks_api10VMHooksApiNtNtBR_9debug_api15DebugApiBackendEENtNtB5_8callback16EndpointWrappers8callbackCsaR2MVHtCDM0_4test
FN:9,_RNvXNtCs2WGRDwQOHLQ_14liquid_staking8callbackINtB4_11ContractObjINtNtNtNtCseUmQFO6d1K9_22multiversx_sc_scenario3api7impl_vh12vm_hooks_api10VMHooksApiNtNtB15_9debug_api15DebugApiBackendEENtB2_14CallbackModule9callbacksCsVH6ELXPoQD_15unDelegate_test
FN:56,_RNvYINtCs2WGRDwQOHLQ_14liquid_staking11ContractObjINtNtNtNtCseUmQFO6d1K9_22multiversx_sc_scenario3api7impl_vh12vm_hooks_api10VMHooksApiNtNtBR_9debug_api15DebugApiBackendEENtNtB5_8callback14CallbackModule22add_liquidity_callbackCsVH6ELXPoQD_15unDelegate_test
FN:101,_RNvYINtCs2WGRDwQOHLQ_14liquid_staking11ContractObjINtNtNtNtCseUmQFO6d1K9_22multiversx_sc_scenario3api7impl_vh12vm_hooks_api10VMHooksApiNtNtBR_9debug_api15DebugApiBackendEENtNtB5_8callback14CallbackModule22claim_rewards_callbackCsVH6ELXPoQD_15unDelegate_test
FN:77,_RNvYINtCs2WGRDwQOHLQ_14liquid_staking11ContractObjINtNtNtNtCseUmQFO6d1K9_22multiversx_sc_scenario3api7impl_vh12vm_hooks_api10VMHooksApiNtNtBR_9debug_api15DebugApiBackendEENtNtB5_8callback14CallbackModule24withdraw_tokens_callbackCsVH6ELXPoQD_15unDelegate_test
FN:122,_RNvYINtCs2WGRDwQOHLQ_14liquid_staking11ContractObjINtNtNtNtCseUmQFO6d1K9_22multiversx_sc_scenario3api7impl_vh12vm_hooks_api10VMHooksApiNtNtBR_9debug_api15DebugApiBackendEENtNtB5_8callback14CallbackModule25delegate_rewards_callbackCsVH6ELXPoQD_15unDelegate_test
FN:26,_RNvYINtCs2WGRDwQOHLQ_14liquid_staking11ContractObjINtNtNtNtCseUmQFO6d1K9_22multiversx_sc_scenario3api7impl_vh12vm_hooks_api10VMHooksApiNtNtBR_9debug_api15DebugApiBackendEENtNtB5_8callback14CallbackModule25remove_liquidity_callbackCsVH6ELXPoQD_15unDelegate_test
FN:9,_RNvYINtCs2WGRDwQOHLQ_14liquid_staking11ContractObjINtNtNtNtCseUmQFO6d1K9_22multiversx_sc_scenario3api7impl_vh12vm_hooks_api10VMHooksApiNtNtBR_9debug_api15DebugApiBackendEENtNtB5_8callback16EndpointWrappers17callback_selectorCsVH6ELXPoQD_15unDelegate_test
FN:9,_RNvYINtCs2WGRDwQOHLQ_14liquid_staking11ContractObjINtNtNtNtCseUmQFO6d1K9_22multiversx_sc_scenario3api7impl_vh12vm_hooks_api10VMHooksApiNtNtBR_9debug_api15DebugApiBackendEENtNtB5_8callback16EndpointWrappers27call_add_liquidity_callbackCsVH6ELXPoQD_15unDelegate_test
FN:9,_RNvYINtCs2WGRDwQOHLQ_14liquid_staking11ContractObjINtNtNtNtCseUmQFO6d1K9_22multiversx_sc_scenario3api7impl_vh12vm_hooks_api10VMHooksApiNtNtBR_9debug_api15DebugApiBackendEENtNtB5_8callback16EndpointWrappers27call_claim_rewards_callbackCsVH6ELXPoQD_15unDelegate_test
FN:9,_RNvYINtCs2WGRDwQOHLQ_14liquid_staking11ContractObjINtNtNtNtCseUmQFO6d1K9_22multiversx_sc_scenario3api7impl_vh12vm_hooks_api10VMHooksApiNtNtBR_9debug_api15DebugApiBackendEENtNtB5_8callback16EndpointWrappers29call_withdraw_tokens_callbackCsVH6ELXPoQD_15unDelegate_test
FN:9,_RNvYINtCs2WGRDwQOHLQ_14liquid_staking11ContractObjINtNtNtNtCseUmQFO6d1K9_22multiversx_sc_scenario3api7impl_vh12vm_hooks_api10VMHooksApiNtNtBR_9debug_api15DebugApiBackendEENtNtB5_8callback16EndpointWrappers30call_delegate_rewards_callbackCsVH6ELXPoQD_15unDelegate_test
FN:9,_RNvYINtCs2WGRDwQOHLQ_14liquid_staking11ContractObjINtNtNtNtCseUmQFO6d1K9_22multiversx_sc_scenario3api7impl_vh12vm_hooks_api10VMHooksApiNtNtBR_9debug_api15DebugApiBackendEENtNtB5_8callback16EndpointWrappers30call_remove_liquidity_callbackCsVH6ELXPoQD_15unDelegate_test
FN:9,_RNvYINtCs2WGRDwQOHLQ_14liquid_staking11ContractObjINtNtNtNtCseUmQFO6d1K9_22multiversx_sc_scenario3api7impl_vh12vm_hooks_api10VMHooksApiNtNtBR_9debug_api15DebugApiBackendEENtNtB5_8callback16EndpointWrappers4callCsVH6ELXPoQD_15unDelegate_test
FN:9,_RNvYINtCs2WGRDwQOHLQ_14liquid_staking11ContractObjINtNtNtNtCseUmQFO6d1K9_22multiversx_sc_scenario3api7impl_vh12vm_hooks_api10VMHooksApiNtNtBR_9debug_api15DebugApiBackendEENtNtB5_8callback16EndpointWrappers8callbackCsVH6ELXPoQD_15unDelegate_test
FN:61,_RNCNvYINtCs2WGRDwQOHLQ_14liquid_staking11ContractObjINtNtNtNtCseUmQFO6d1K9_22multiversx_sc_scenario3api7impl_vh12vm_hooks_api10VMHooksApiNtNtBT_9debug_api15DebugApiBackendEENtNtB7_8callback14CallbackModule22add_liquidity_callback0CsVH6ELXPoQD_15unDelegate_test
FN:87,_RNCNvYINtCs2WGRDwQOHLQ_14liquid_staking11ContractObjINtNtNtNtCseUmQFO6d1K9_22multiversx_sc_scenario3api7impl_vh12vm_hooks_api10VMHooksApiNtNtBT_9debug_api15DebugApiBackendEENtNtB7_8callback14CallbackModule24withdraw_tokens_callback0CsVH6ELXPoQD_15unDelegate_test
FN:127,_RNCNvYINtCs2WGRDwQOHLQ_14liquid_staking11ContractObjINtNtNtNtCseUmQFO6d1K9_22multiversx_sc_scenario3api7impl_vh12vm_hooks_api10VMHooksApiNtNtBT_9debug_api15DebugApiBackendEENtNtB7_8callback14CallbackModule25delegate_rewards_callback0CsVH6ELXPoQD_15unDelegate_test
FN:135,_RNCNvYINtCs2WGRDwQOHLQ_14liquid_staking11ContractObjINtNtNtNtCseUmQFO6d1K9_22multiversx_sc_scenario3api7impl_vh12vm_hooks_api10VMHooksApiNtNtBT_9debug_api15DebugApiBackendEENtNtB7_8callback14CallbackModule25delegate_rewards_callbacks_0CsVH6ELXPoQD_15unDelegate_test
FN:31,_RNCNvYINtCs2WGRDwQOHLQ_14liquid_staking11ContractObjINtNtNtNtCseUmQFO6d1K9_22multiversx_sc_scenario3api7impl_vh12vm_hooks_api10VMHooksApiNtNtBT_9debug_api15DebugApiBackendEENtNtB7_8callback14CallbackModule25remove_liquidity_callback0CsVH6ELXPoQD_15unDelegate_test
FN:9,_RNvXsn_NtCs2WGRDwQOHLQ_14liquid_staking8callbackINtB5_16CallbackProxyObjINtNtNtNtCseUmQFO6d1K9_22multiversx_sc_scenario3api7impl_vh12vm_hooks_api10VMHooksApiNtNtB1d_9debug_api15DebugApiBackendEENtNtNtCs4WmCETBkTZ5_13multiversx_sc13contract_base23proxy_obj_callback_base20CallbackProxyObjBase16new_cb_proxy_objCsVH6ELXPoQD_15unDelegate_test
FN:9,_RNvYINtNtCs2WGRDwQOHLQ_14liquid_staking8callback16CallbackProxyObjINtNtNtNtCseUmQFO6d1K9_22multiversx_sc_scenario3api7impl_vh12vm_hooks_api10VMHooksApiNtNtB17_9debug_api15DebugApiBackendEENtB5_13CallbackProxy22add_liquidity_callbackCsVH6ELXPoQD_15unDelegate_test
FN:9,_RNvYINtNtCs2WGRDwQOHLQ_14liquid_staking8callback16CallbackProxyObjINtNtNtNtCseUmQFO6d1K9_22multiversx_sc_scenario3api7impl_vh12vm_hooks_api10VMHooksApiNtNtB17_9debug_api15DebugApiBackendEENtB5_13CallbackProxy22claim_rewards_callbackCsVH6ELXPoQD_15unDelegate_test
FN:9,_RNvYINtNtCs2WGRDwQOHLQ_14liquid_staking8callback16CallbackProxyObjINtNtNtNtCseUmQFO6d1K9_22multiversx_sc_scenario3api7impl_vh12vm_hooks_api10VMHooksApiNtNtB17_9debug_api15DebugApiBackendEENtB5_13CallbackProxy24withdraw_tokens_callbackCsVH6ELXPoQD_15unDelegate_test
FN:9,_RNvYINtNtCs2WGRDwQOHLQ_14liquid_staking8callback16CallbackProxyObjINtNtNtNtCseUmQFO6d1K9_22multiversx_sc_scenario3api7impl_vh12vm_hooks_api10VMHooksApiNtNtB17_9debug_api15DebugApiBackendEENtB5_13CallbackProxy25delegate_rewards_callbackCsVH6ELXPoQD_15unDelegate_test
FN:9,_RNvYINtNtCs2WGRDwQOHLQ_14liquid_staking8callback16CallbackProxyObjINtNtNtNtCseUmQFO6d1K9_22multiversx_sc_scenario3api7impl_vh12vm_hooks_api10VMHooksApiNtNtB17_9debug_api15DebugApiBackendEENtB5_13CallbackProxy25remove_liquidity_callbackCsVH6ELXPoQD_15unDelegate_test
FN:61,_RNCNvYINtCs2WGRDwQOHLQ_14liquid_staking11ContractObjINtNtNtNtCseUmQFO6d1K9_22multiversx_sc_scenario3api7impl_vh12vm_hooks_api10VMHooksApiNtNtBT_9debug_api15DebugApiBackendEENtNtB7_8callback14CallbackModule22add_liquidity_callback0CshHwHQpnfuGH_11unbond_test
FN:87,_RNCNvYINtCs2WGRDwQOHLQ_14liquid_staking11ContractObjINtNtNtNtCseUmQFO6d1K9_22multiversx_sc_scenario3api7impl_vh12vm_hooks_api10VMHooksApiNtNtBT_9debug_api15DebugApiBackendEENtNtB7_8callback14CallbackModule24withdraw_tokens_callback0CshHwHQpnfuGH_11unbond_test
FN:127,_RNCNvYINtCs2WGRDwQOHLQ_14liquid_staking11ContractObjINtNtNtNtCseUmQFO6d1K9_22multiversx_sc_scenario3api7impl_vh12vm_hooks_api10VMHooksApiNtNtBT_9debug_api15DebugApiBackendEENtNtB7_8callback14CallbackModule25delegate_rewards_callback0CshHwHQpnfuGH_11unbond_test
FN:135,_RNCNvYINtCs2WGRDwQOHLQ_14liquid_staking11ContractObjINtNtNtNtCseUmQFO6d1K9_22multiversx_sc_scenario3api7impl_vh12vm_hooks_api10VMHooksApiNtNtBT_9debug_api15DebugApiBackendEENtNtB7_8callback14CallbackModule25delegate_rewards_callbacks_0CshHwHQpnfuGH_11unbond_test
FN:31,_RNCNvYINtCs2WGRDwQOHLQ_14liquid_staking11ContractObjINtNtNtNtCseUmQFO6d1K9_22multiversx_sc_scenario3api7impl_vh12vm_hooks_api10VMHooksApiNtNtBT_9debug_api15DebugApiBackendEENtNtB7_8callback14CallbackModule25remove_liquidity_callback0CshHwHQpnfuGH_11unbond_test
FN:9,_RNvXsn_NtCs2WGRDwQOHLQ_14liquid_staking8callbackINtB5_16CallbackProxyObjINtNtNtNtCseUmQFO6d1K9_22multiversx_sc_scenario3api7impl_vh12vm_hooks_api10VMHooksApiNtNtB1d_9debug_api15DebugApiBackendEENtNtNtCs4WmCETBkTZ5_13multiversx_sc13contract_base23proxy_obj_callback_base20CallbackProxyObjBase16new_cb_proxy_objCshHwHQpnfuGH_11unbond_test
FN:9,_RNvYINtNtCs2WGRDwQOHLQ_14liquid_staking8callback16CallbackProxyObjINtNtNtNtCseUmQFO6d1K9_22multiversx_sc_scenario3api7impl_vh12vm_hooks_api10VMHooksApiNtNtB17_9debug_api15DebugApiBackendEENtB5_13CallbackProxy22add_liquidity_callbackCshHwHQpnfuGH_11unbond_test
FN:9,_RNvYINtNtCs2WGRDwQOHLQ_14liquid_staking8callback16CallbackProxyObjINtNtNtNtCseUmQFO6d1K9_22multiversx_sc_scenario3api7impl_vh12vm_hooks_api10VMHooksApiNtNtB17_9debug_api15DebugApiBackendEENtB5_13CallbackProxy22claim_rewards_callbackCshHwHQpnfuGH_11unbond_test
FN:9,_RNvYINtNtCs2WGRDwQOHLQ_14liquid_staking8callback16CallbackProxyObjINtNtNtNtCseUmQFO6d1K9_22multiversx_sc_scenario3api7impl_vh12vm_hooks_api10VMHooksApiNtNtB17_9debug_api15DebugApiBackendEENtB5_13CallbackProxy24withdraw_tokens_callbackCshHwHQpnfuGH_11unbond_test
FN:9,_RNvYINtNtCs2WGRDwQOHLQ_14liquid_staking8callback16CallbackProxyObjINtNtNtNtCseUmQFO6d1K9_22multiversx_sc_scenario3api7impl_vh12vm_hooks_api10VMHooksApiNtNtB17_9debug_api15DebugApiBackendEENtB5_13CallbackProxy25delegate_rewards_callbackCshHwHQpnfuGH_11unbond_test
FN:9,_RNvYINtNtCs2WGRDwQOHLQ_14liquid_staking8callback16CallbackProxyObjINtNtNtNtCseUmQFO6d1K9_22multiversx_sc_scenario3api7impl_vh12vm_hooks_api10VMHooksApiNtNtB17_9debug_api15DebugApiBackendEENtB5_13CallbackProxy25remove_liquidity_callbackCshHwHQpnfuGH_11unbond_test
FN:9,_RNvXNtCs2WGRDwQOHLQ_14liquid_staking8callbackINtB4_11ContractObjINtNtNtNtCseUmQFO6d1K9_22multiversx_sc_scenario3api7impl_vh12vm_hooks_api10VMHooksApiNtNtB15_9debug_api15DebugApiBackendEENtB2_14CallbackModule9callbacksCshHwHQpnfuGH_11unbond_test
FN:56,_RNvYINtCs2WGRDwQOHLQ_14liquid_staking11ContractObjINtNtNtNtCseUmQFO6d1K9_22multiversx_sc_scenario3api7impl_vh12vm_hooks_api10VMHooksApiNtNtBR_9debug_api15DebugApiBackendEENtNtB5_8callback14CallbackModule22add_liquidity_callbackCshHwHQpnfuGH_11unbond_test
FN:101,_RNvYINtCs2WGRDwQOHLQ_14liquid_staking11ContractObjINtNtNtNtCseUmQFO6d1K9_22multiversx_sc_scenario3api7impl_vh12vm_hooks_api10VMHooksApiNtNtBR_9debug_api15DebugApiBackendEENtNtB5_8callback14CallbackModule22claim_rewards_callbackCshHwHQpnfuGH_11unbond_test
FN:77,_RNvYINtCs2WGRDwQOHLQ_14liquid_staking11ContractObjINtNtNtNtCseUmQFO6d1K9_22multiversx_sc_scenario3api7impl_vh12vm_hooks_api10VMHooksApiNtNtBR_9debug_api15DebugApiBackendEENtNtB5_8callback14CallbackModule24withdraw_tokens_callbackCshHwHQpnfuGH_11unbond_test
FN:122,_RNvYINtCs2WGRDwQOHLQ_14liquid_staking11ContractObjINtNtNtNtCseUmQFO6d1K9_22multiversx_sc_scenario3api7impl_vh12vm_hooks_api10VMHooksApiNtNtBR_9debug_api15DebugApiBackendEENtNtB5_8callback14CallbackModule25delegate_rewards_callbackCshHwHQpnfuGH_11unbond_test
FN:26,_RNvYINtCs2WGRDwQOHLQ_14liquid_staking11ContractObjINtNtNtNtCseUmQFO6d1K9_22multiversx_sc_scenario3api7impl_vh12vm_hooks_api10VMHooksApiNtNtBR_9debug_api15DebugApiBackendEENtNtB5_8callback14CallbackModule25remove_liquidity_callbackCshHwHQpnfuGH_11unbond_test
FN:9,_RNvYINtCs2WGRDwQOHLQ_14liquid_staking11ContractObjINtNtNtNtCseUmQFO6d1K9_22multiversx_sc_scenario3api7impl_vh12vm_hooks_api10VMHooksApiNtNtBR_9debug_api15DebugApiBackendEENtNtB5_8callback16EndpointWrappers17callback_selectorCshHwHQpnfuGH_11unbond_test
FN:9,_RNvYINtCs2WGRDwQOHLQ_14liquid_staking11ContractObjINtNtNtNtCseUmQFO6d1K9_22multiversx_sc_scenario3api7impl_vh12vm_hooks_api10VMHooksApiNtNtBR_9debug_api15DebugApiBackendEENtNtB5_8callback16EndpointWrappers27call_add_liquidity_callbackCshHwHQpnfuGH_11unbond_test
FN:9,_RNvYINtCs2WGRDwQOHLQ_14liquid_staking11ContractObjINtNtNtNtCseUmQFO6d1K9_22multiversx_sc_scenario3api7impl_vh12vm_hooks_api10VMHooksApiNtNtBR_9debug_api15DebugApiBackendEENtNtB5_8callback16EndpointWrappers27call_claim_rewards_callbackCshHwHQpnfuGH_11unbond_test
FN:9,_RNvYINtCs2WGRDwQOHLQ_14liquid_staking11ContractObjINtNtNtNtCseUmQFO6d1K9_22multiversx_sc_scenario3api7impl_vh12vm_hooks_api10VMHooksApiNtNtBR_9debug_api15DebugApiBackendEENtNtB5_8callback16EndpointWrappers29call_withdraw_tokens_callbackCshHwHQpnfuGH_11unbond_test
FN:9,_RNvYINtCs2WGRDwQOHLQ_14liquid_staking11ContractObjINtNtNtNtCseUmQFO6d1K9_22multiversx_sc_scenario3api7impl_vh12vm_hooks_api10VMHooksApiNtNtBR_9debug_api15DebugApiBackendEENtNtB5_8callback16EndpointWrappers30call_delegate_rewards_callbackCshHwHQpnfuGH_11unbond_test
FN:9,_RNvYINtCs2WGRDwQOHLQ_14liquid_staking11ContractObjINtNtNtNtCseUmQFO6d1K9_22multiversx_sc_scenario3api7impl_vh12vm_hooks_api10VMHooksApiNtNtBR_9debug_api15DebugApiBackendEENtNtB5_8callback16EndpointWrappers30call_remove_liquidity_callbackCshHwHQpnfuGH_11unbond_test
FN:9,_RNvYINtCs2WGRDwQOHLQ_14liquid_staking11ContractObjINtNtNtNtCseUmQFO6d1K9_22multiversx_sc_scenario3api7impl_vh12vm_hooks_api10VMHooksApiNtNtBR_9debug_api15DebugApiBackendEENtNtB5_8callback16EndpointWrappers4callCshHwHQpnfuGH_11unbond_test
FN:9,_RNvYINtCs2WGRDwQOHLQ_14liquid_staking11ContractObjINtNtNtNtCseUmQFO6d1K9_22multiversx_sc_scenario3api7impl_vh12vm_hooks_api10VMHooksApiNtNtBR_9debug_api15DebugApiBackendEENtNtB5_8callback16EndpointWrappers8callbackCshHwHQpnfuGH_11unbond_test
FNDA:4,_RNvXNtCs2WGRDwQOHLQ_14liquid_staking8callbackINtB4_11ContractObjINtNtNtNtCseUmQFO6d1K9_22multiversx_sc_scenario3api7impl_vh12vm_hooks_api10VMHooksApiNtNtB15_9debug_api15DebugApiBackendEENtB2_14CallbackModule9callbacksCskEhliFuVTlV_13delegate_test
FNDA:4,_RNvYINtCs2WGRDwQOHLQ_14liquid_staking11ContractObjINtNtNtNtCseUmQFO6d1K9_22multiversx_sc_scenario3api7impl_vh12vm_hooks_api10VMHooksApiNtNtBR_9debug_api15DebugApiBackendEENtNtB5_8callback14CallbackModule22add_liquidity_callbackCskEhliFuVTlV_13delegate_test
FNDA:0,_RNvYINtCs2WGRDwQOHLQ_14liquid_staking11ContractObjINtNtNtNtCseUmQFO6d1K9_22multiversx_sc_scenario3api7impl_vh12vm_hooks_api10VMHooksApiNtNtBR_9debug_api15DebugApiBackendEENtNtB5_8callback14CallbackModule22claim_rewards_callbackCskEhliFuVTlV_13delegate_test
FNDA:0,_RNvYINtCs2WGRDwQOHLQ_14liquid_staking11ContractObjINtNtNtNtCseUmQFO6d1K9_22multiversx_sc_scenario3api7impl_vh12vm_hooks_api10VMHooksApiNtNtBR_9debug_api15DebugApiBackendEENtNtB5_8callback14CallbackModule24withdraw_tokens_callbackCskEhliFuVTlV_13delegate_test
FNDA:0,_RNvYINtCs2WGRDwQOHLQ_14liquid_staking11ContractObjINtNtNtNtCseUmQFO6d1K9_22multiversx_sc_scenario3api7impl_vh12vm_hooks_api10VMHooksApiNtNtBR_9debug_api15DebugApiBackendEENtNtB5_8callback14CallbackModule25delegate_rewards_callbackCskEhliFuVTlV_13delegate_test
FNDA:0,_RNvYINtCs2WGRDwQOHLQ_14liquid_staking11ContractObjINtNtNtNtCseUmQFO6d1K9_22multiversx_sc_scenario3api7impl_vh12vm_hooks_api10VMHooksApiNtNtBR_9debug_api15DebugApiBackendEENtNtB5_8callback14CallbackModule25remove_liquidity_callbackCskEhliFuVTlV_13delegate_test
FNDA:0,_RNvYINtCs2WGRDwQOHLQ_14liquid_staking11ContractObjINtNtNtNtCseUmQFO6d1K9_22multiversx_sc_scenario3api7impl_vh12vm_hooks_api10VMHooksApiNtNtBR_9debug_api15DebugApiBackendEENtNtB5_8callback16EndpointWrappers17callback_selectorCskEhliFuVTlV_13delegate_test
FNDA:4,_RNvYINtCs2WGRDwQOHLQ_14liquid_staking11ContractObjINtNtNtNtCseUmQFO6d1K9_22multiversx_sc_scenario3api7impl_vh12vm_hooks_api10VMHooksApiNtNtBR_9debug_api15DebugApiBackendEENtNtB5_8callback16EndpointWrappers27call_add_liquidity_callbackCskEhliFuVTlV_13delegate_test
FNDA:0,_RNvYINtCs2WGRDwQOHLQ_14liquid_staking11ContractObjINtNtNtNtCseUmQFO6d1K9_22multiversx_sc_scenario3api7impl_vh12vm_hooks_api10VMHooksApiNtNtBR_9debug_api15DebugApiBackendEENtNtB5_8callback16EndpointWrappers27call_claim_rewards_callbackCskEhliFuVTlV_13delegate_test
FNDA:0,_RNvYINtCs2WGRDwQOHLQ_14liquid_staking11ContractObjINtNtNtNtCseUmQFO6d1K9_22multiversx_sc_scenario3api7impl_vh12vm_hooks_api10VMHooksApiNtNtBR_9debug_api15DebugApiBackendEENtNtB5_8callback16EndpointWrappers29call_withdraw_tokens_callbackCskEhliFuVTlV_13delegate_test
FNDA:0,_RNvYINtCs2WGRDwQOHLQ_14liquid_staking11ContractObjINtNtNtNtCseUmQFO6d1K9_22multiversx_sc_scenario3api7impl_vh12vm_hooks_api10VMHooksApiNtNtBR_9debug_api15DebugApiBackendEENtNtB5_8callback16EndpointWrappers30call_delegate_rewards_callbackCskEhliFuVTlV_13delegate_test
FNDA:0,_RNvYINtCs2WGRDwQOHLQ_14liquid_staking11ContractObjINtNtNtNtCseUmQFO6d1K9_22multiversx_sc_scenario3api7impl_vh12vm_hooks_api10VMHooksApiNtNtBR_9debug_api15DebugApiBackendEENtNtB5_8callback16EndpointWrappers30call_remove_liquidity_callbackCskEhliFuVTlV_13delegate_test
FNDA:4,_RNvYINtCs2WGRDwQOHLQ_14liquid_staking11ContractObjINtNtNtNtCseUmQFO6d1K9_22multiversx_sc_scenario3api7impl_vh12vm_hooks_api10VMHooksApiNtNtBR_9debug_api15DebugApiBackendEENtNtB5_8callback16EndpointWrappers4callCskEhliFuVTlV_13delegate_test
FNDA:0,_RNvYINtCs2WGRDwQOHLQ_14liquid_staking11ContractObjINtNtNtNtCseUmQFO6d1K9_22multiversx_sc_scenario3api7impl_vh12vm_hooks_api10VMHooksApiNtNtBR_9debug_api15DebugApiBackendEENtNtB5_8callback16EndpointWrappers8callbackCskEhliFuVTlV_13delegate_test
FNDA:4,_RNCNvYINtCs2WGRDwQOHLQ_14liquid_staking11ContractObjINtNtNtNtCseUmQFO6d1K9_22multiversx_sc_scenario3api7impl_vh12vm_hooks_api10VMHooksApiNtNtBT_9debug_api15DebugApiBackendEENtNtB7_8callback14CallbackModule22add_liquidity_callback0CskEhliFuVTlV_13delegate_test
FNDA:0,_RNCNvYINtCs2WGRDwQOHLQ_14liquid_staking11ContractObjINtNtNtNtCseUmQFO6d1K9_22multiversx_sc_scenario3api7impl_vh12vm_hooks_api10VMHooksApiNtNtBT_9debug_api15DebugApiBackendEENtNtB7_8callback14CallbackModule24withdraw_tokens_callback0CskEhliFuVTlV_13delegate_test
FNDA:0,_RNCNvYINtCs2WGRDwQOHLQ_14liquid_staking11ContractObjINtNtNtNtCseUmQFO6d1K9_22multiversx_sc_scenario3api7impl_vh12vm_hooks_api10VMHooksApiNtNtBT_9debug_api15DebugApiBackendEENtNtB7_8callback14CallbackModule25delegate_rewards_callback0CskEhliFuVTlV_13delegate_test
FNDA:0,_RNCNvYINtCs2WGRDwQOHLQ_14liquid_staking11ContractObjINtNtNtNtCseUmQFO6d1K9_22multiversx_sc_scenario3api7impl_vh12vm_hooks_api10VMHooksApiNtNtBT_9debug_api15DebugApiBackendEENtNtB7_8callback14CallbackModule25delegate_rewards_callbacks_0CskEhliFuVTlV_13delegate_test
FNDA:0,_RNCNvYINtCs2WGRDwQOHLQ_14liquid_staking11ContractObjINtNtNtNtCseUmQFO6d1K9_22multiversx_sc_scenario3api7impl_vh12vm_hooks_api10VMHooksApiNtNtBT_9debug_api15DebugApiBackendEENtNtB7_8callback14CallbackModule25remove_liquidity_callback0CskEhliFuVTlV_13delegate_test
FNDA:4,_RNvXsn_NtCs2WGRDwQOHLQ_14liquid_staking8callbackINtB5_16CallbackProxyObjINtNtNtNtCseUmQFO6d1K9_22multiversx_sc_scenario3api7impl_vh12vm_hooks_api10VMHooksApiNtNtB1d_9debug_api15DebugApiBackendEENtNtNtCs4WmCETBkTZ5_13multiversx_sc13contract_base23proxy_obj_callback_base20CallbackProxyObjBase16new_cb_proxy_objCskEhliFuVTlV_13delegate_test
FNDA:4,_RNvYINtNtCs2WGRDwQOHLQ_14liquid_staking8callback16CallbackProxyObjINtNtNtNtCseUmQFO6d1K9_22multiversx_sc_scenario3api7impl_vh12vm_hooks_api10VMHooksApiNtNtB17_9debug_api15DebugApiBackendEENtB5_13CallbackProxy22add_liquidity_callbackCskEhliFuVTlV_13delegate_test
FNDA:0,_RNvYINtNtCs2WGRDwQOHLQ_14liquid_staking8callback16CallbackProxyObjINtNtNtNtCseUmQFO6d1K9_22multiversx_sc_scenario3api7impl_vh12vm_hooks_api10VMHooksApiNtNtB17_9debug_api15DebugApiBackendEENtB5_13CallbackProxy22claim_rewards_callbackCskEhliFuVTlV_13delegate_test
FNDA:0,_RNvYINtNtCs2WGRDwQOHLQ_14liquid_staking8callback16CallbackProxyObjINtNtNtNtCseUmQFO6d1K9_22multiversx_sc_scenario3api7impl_vh12vm_hooks_api10VMHooksApiNtNtB17_9debug_api15DebugApiBackendEENtB5_13CallbackProxy24withdraw_tokens_callbackCskEhliFuVTlV_13delegate_test
FNDA:0,_RNvYINtNtCs2WGRDwQOHLQ_14liquid_staking8callback16CallbackProxyObjINtNtNtNtCseUmQFO6d1K9_22multiversx_sc_scenario3api7impl_vh12vm_hooks_api10VMHooksApiNtNtB17_9debug_api15DebugApiBackendEENtB5_13CallbackProxy25delegate_rewards_callbackCskEhliFuVTlV_13delegate_test
FNDA:0,_RNvYINtNtCs2WGRDwQOHLQ_14liquid_staking8callback16CallbackProxyObjINtNtNtNtCseUmQFO6d1K9_22multiversx_sc_scenario3api7impl_vh12vm_hooks_api10VMHooksApiNtNtB17_9debug_api15DebugApiBackendEENtB5_13CallbackProxy25remove_liquidity_callbackCskEhliFuVTlV_13delegate_test
FNDA:0,_RNvYpNtNtCsdRzYvL09OST_14liquid_staking8callback14CallbackModule25remove_liquidity_callbackB7_
FNDA:0,_RNCNvYpNtNtCsdRzYvL09OST_14liquid_staking8callback14CallbackModule25remove_liquidity_callback0B9_
FNDA:0,_RNvYpNtNtCsdRzYvL09OST_14liquid_staking8callback14CallbackModule22add_liquidity_callbackB7_
FNDA:0,_RNCNvYpNtNtCsdRzYvL09OST_14liquid_staking8callback14CallbackModule22add_liquidity_callback0B9_
FNDA:0,_RNvYpNtNtCsdRzYvL09OST_14liquid_staking8callback14CallbackModule24withdraw_tokens_callbackB7_
FNDA:0,_RNCNvYpNtNtCsdRzYvL09OST_14liquid_staking8callback14CallbackModule24withdraw_tokens_callback0B9_
FNDA:0,_RNvYpNtNtCsdRzYvL09OST_14liquid_staking8callback14CallbackModule22claim_rewards_callbackB7_
FNDA:0,_RNvYpNtNtCsdRzYvL09OST_14liquid_staking8callback14CallbackModule25delegate_rewards_callbackB7_
FNDA:0,_RNCNvYpNtNtCsdRzYvL09OST_14liquid_staking8callback14CallbackModule25delegate_rewards_callback0B9_
FNDA:0,_RNCNvYpNtNtCsdRzYvL09OST_14liquid_staking8callback14CallbackModule25delegate_rewards_callbacks_0B9_
FNDA:0,_RNvXININtCsdRzYvL09OST_14liquid_staking8callback0pEpNtB5_14CallbackModule9callbacksB7_
FNDA:0,_RNvYpNtNtCsdRzYvL09OST_14liquid_staking8callback16EndpointWrappers30call_remove_liquidity_callbackB7_
FNDA:0,_RNvYpNtNtCsdRzYvL09OST_14liquid_staking8callback16EndpointWrappers27call_add_liquidity_callbackB7_
FNDA:0,_RNvYpNtNtCsdRzYvL09OST_14liquid_staking8callback16EndpointWrappers29call_withdraw_tokens_callbackB7_
FNDA:0,_RNvYpNtNtCsdRzYvL09OST_14liquid_staking8callback16EndpointWrappers27call_claim_rewards_callbackB7_
FNDA:0,_RNvYpNtNtCsdRzYvL09OST_14liquid_staking8callback16EndpointWrappers30call_delegate_rewards_callbackB7_
FNDA:0,_RNvYpNtNtCsdRzYvL09OST_14liquid_staking8callback16EndpointWrappers4callB7_
FNDA:0,_RNvYpNtNtCsdRzYvL09OST_14liquid_staking8callback16EndpointWrappers17callback_selectorB7_
FNDA:0,_RNvYpNtNtCsdRzYvL09OST_14liquid_staking8callback16EndpointWrappers8callbackB7_
FNDA:0,_RNvXs1_NtCsdRzYvL09OST_14liquid_staking8callbackNtB5_11AbiProviderNtNtNtCs4WmCETBkTZ5_13multiversx_sc13contract_base21contract_abi_provider19ContractAbiProvider3abi
FNDA:0,_RNvXININtCsdRzYvL09OST_14liquid_staking8callbacksl_0pEINtB5_11ContractObjpENtNtNtCs4WmCETBkTZ5_13multiversx_sc13contract_base17callable_contract16CallableContract4callB7_
FNDA:0,_RINvNtCsdRzYvL09OST_14liquid_staking8callback12contract_objpEB4_
FNDA:0,_RINvXsm_NtCsdRzYvL09OST_14liquid_staking8callbackNtB6_15ContractBuilderNtNtNtCs4WmCETBkTZ5_13multiversx_sc13contract_base17callable_contract23CallableContractBuilder16new_contract_objpEB8_
FNDA:0,_RINvNtNtCsdRzYvL09OST_14liquid_staking8callback19___wasm__endpoints__25remove_liquidity_callbackpEB6_
FNDA:0,_RINvNtNtCsdRzYvL09OST_14liquid_staking8callback19___wasm__endpoints__22add_liquidity_callbackpEB6_
FNDA:0,_RINvNtNtCsdRzYvL09OST_14liquid_staking8callback19___wasm__endpoints__24withdraw_tokens_callbackpEB6_
FNDA:0,_RINvNtNtCsdRzYvL09OST_14liquid_staking8callback19___wasm__endpoints__22claim_rewards_callbackpEB6_
FNDA:0,_RINvNtNtCsdRzYvL09OST_14liquid_staking8callback19___wasm__endpoints__25delegate_rewards_callbackpEB6_
FNDA:0,_RNvXININtCsdRzYvL09OST_14liquid_staking8callbacksn_0pEINtB5_16CallbackProxyObjpENtNtNtCs4WmCETBkTZ5_13multiversx_sc13contract_base23proxy_obj_callback_base20CallbackProxyObjBase16new_cb_proxy_objB7_
FNDA:0,_RNvYpNtNtCsdRzYvL09OST_14liquid_staking8callback13CallbackProxy25remove_liquidity_callbackB7_
FNDA:0,_RNvYpNtNtCsdRzYvL09OST_14liquid_staking8callback13CallbackProxy22add_liquidity_callbackB7_
FNDA:0,_RNvYpNtNtCsdRzYvL09OST_14liquid_staking8callback13CallbackProxy24withdraw_tokens_callbackB7_
FNDA:0,_RNvYpNtNtCsdRzYvL09OST_14liquid_staking8callback13CallbackProxy22claim_rewards_callbackB7_
FNDA:0,_RNvYpNtNtCsdRzYvL09OST_14liquid_staking8callback13CallbackProxy25delegate_rewards_callbackB7_
FNDA:18,_RNCNvYINtCs2WGRDwQOHLQ_14liquid_staking11ContractObjINtNtNtNtCseUmQFO6d1K9_22multiversx_sc_scenario3api7impl_vh12vm_hooks_api10VMHooksApiNtNtBT_9debug_api15DebugApiBackendEENtNtB7_8callback14CallbackModule22add_liquidity_callback0CsaR2MVHtCDM0_4test
FNDA:2,_RNCNvYINtCs2WGRDwQOHLQ_14liquid_staking11ContractObjINtNtNtNtCseUmQFO6d1K9_22multiversx_sc_scenario3api7impl_vh12vm_hooks_api10VMHooksApiNtNtBT_9debug_api15DebugApiBackendEENtNtB7_8callback14CallbackModule24withdraw_tokens_callback0CsaR2MVHtCDM0_4test
FNDA:1,_RNCNvYINtCs2WGRDwQOHLQ_14liquid_staking11ContractObjINtNtNtNtCseUmQFO6d1K9_22multiversx_sc_scenario3api7impl_vh12vm_hooks_api10VMHooksApiNtNtBT_9debug_api15DebugApiBackendEENtNtB7_8callback14CallbackModule25delegate_rewards_callback0CsaR2MVHtCDM0_4test
FNDA:0,_RNCNvYINtCs2WGRDwQOHLQ_14liquid_staking11ContractObjINtNtNtNtCseUmQFO6d1K9_22multiversx_sc_scenario3api7impl_vh12vm_hooks_api10VMHooksApiNtNtBT_9debug_api15DebugApiBackendEENtNtB7_8callback14CallbackModule25delegate_rewards_callbacks_0CsaR2MVHtCDM0_4test
FNDA:2,_RNCNvYINtCs2WGRDwQOHLQ_14liquid_staking11ContractObjINtNtNtNtCseUmQFO6d1K9_22multiversx_sc_scenario3api7impl_vh12vm_hooks_api10VMHooksApiNtNtBT_9debug_api15DebugApiBackendEENtNtB7_8callback14CallbackModule25remove_liquidity_callback0CsaR2MVHtCDM0_4test
FNDA:28,_RNvXsn_NtCs2WGRDwQOHLQ_14liquid_staking8callbackINtB5_16CallbackProxyObjINtNtNtNtCseUmQFO6d1K9_22multiversx_sc_scenario3api7impl_vh12vm_hooks_api10VMHooksApiNtNtB1d_9debug_api15DebugApiBackendEENtNtNtCs4WmCETBkTZ5_13multiversx_sc13contract_base23proxy_obj_callback_base20CallbackProxyObjBase16new_cb_proxy_objCsaR2MVHtCDM0_4test
FNDA:18,_RNvYINtNtCs2WGRDwQOHLQ_14liquid_staking8callback16CallbackProxyObjINtNtNtNtCseUmQFO6d1K9_22multiversx_sc_scenario3api7impl_vh12vm_hooks_api10VMHooksApiNtNtB17_9debug_api15DebugApiBackendEENtB5_13CallbackProxy22add_liquidity_callbackCsaR2MVHtCDM0_4test
FNDA:5,_RNvYINtNtCs2WGRDwQOHLQ_14liquid_staking8callback16CallbackProxyObjINtNtNtNtCseUmQFO6d1K9_22multiversx_sc_scenario3api7impl_vh12vm_hooks_api10VMHooksApiNtNtB17_9debug_api15DebugApiBackendEENtB5_13CallbackProxy22claim_rewards_callbackCsaR2MVHtCDM0_4test
FNDA:2,_RNvYINtNtCs2WGRDwQOHLQ_14liquid_staking8callback16CallbackProxyObjINtNtNtNtCseUmQFO6d1K9_22multiversx_sc_scenario3api7impl_vh12vm_hooks_api10VMHooksApiNtNtB17_9debug_api15DebugApiBackendEENtB5_13CallbackProxy24withdraw_tokens_callbackCsaR2MVHtCDM0_4test
FNDA:1,_RNvYINtNtCs2WGRDwQOHLQ_14liquid_staking8callback16CallbackProxyObjINtNtNtNtCseUmQFO6d1K9_22multiversx_sc_scenario3api7impl_vh12vm_hooks_api10VMHooksApiNtNtB17_9debug_api15DebugApiBackendEENtB5_13CallbackProxy25delegate_rewards_callbackCsaR2MVHtCDM0_4test
FNDA:2,_RNvYINtNtCs2WGRDwQOHLQ_14liquid_staking8callback16CallbackProxyObjINtNtNtNtCseUmQFO6d1K9_22multiversx_sc_scenario3api7impl_vh12vm_hooks_api10VMHooksApiNtNtB17_9debug_api15DebugApiBackendEENtB5_13CallbackProxy25remove_liquidity_callbackCsaR2MVHtCDM0_4test
FNDA:28,_RNvXNtCs2WGRDwQOHLQ_14liquid_staking8callbackINtB4_11ContractObjINtNtNtNtCseUmQFO6d1K9_22multiversx_sc_scenario3api7impl_vh12vm_hooks_api10VMHooksApiNtNtB15_9debug_api15DebugApiBackendEENtB2_14CallbackModule9callbacksCsaR2MVHtCDM0_4test
FNDA:18,_RNvYINtCs2WGRDwQOHLQ_14liquid_staking11ContractObjINtNtNtNtCseUmQFO6d1K9_22multiversx_sc_scenario3api7impl_vh12vm_hooks_api10VMHooksApiNtNtBR_9debug_api15DebugApiBackendEENtNtB5_8callback14CallbackModule22add_liquidity_callbackCsaR2MVHtCDM0_4test
FNDA:5,_RNvYINtCs2WGRDwQOHLQ_14liquid_staking11ContractObjINtNtNtNtCseUmQFO6d1K9_22multiversx_sc_scenario3api7impl_vh12vm_hooks_api10VMHooksApiNtNtBR_9debug_api15DebugApiBackendEENtNtB5_8callback14CallbackModule22claim_rewards_callbackCsaR2MVHtCDM0_4test
FNDA:2,_RNvYINtCs2WGRDwQOHLQ_14liquid_staking11ContractObjINtNtNtNtCseUmQFO6d1K9_22multiversx_sc_scenario3api7impl_vh12vm_hooks_api10VMHooksApiNtNtBR_9debug_api15DebugApiBackendEENtNtB5_8callback14CallbackModule24withdraw_tokens_callbackCsaR2MVHtCDM0_4test
FNDA:1,_RNvYINtCs2WGRDwQOHLQ_14liquid_staking11ContractObjINtNtNtNtCseUmQFO6d1K9_22multiversx_sc_scenario3api7impl_vh12vm_hooks_api10VMHooksApiNtNtBR_9debug_api15DebugApiBackendEENtNtB5_8callback14CallbackModule25delegate_rewards_callbackCsaR2MVHtCDM0_4test
FNDA:2,_RNvYINtCs2WGRDwQOHLQ_14liquid_staking11ContractObjINtNtNtNtCseUmQFO6d1K9_22multiversx_sc_scenario3api7impl_vh12vm_hooks_api10VMHooksApiNtNtBR_9debug_api15DebugApiBackendEENtNtB5_8callback14CallbackModule25remove_liquidity_callbackCsaR2MVHtCDM0_4test
FNDA:0,_RNvYINtCs2WGRDwQOHLQ_14liquid_staking11ContractObjINtNtNtNtCseUmQFO6d1K9_22multiversx_sc_scenario3api7impl_vh12vm_hooks_api10VMHooksApiNtNtBR_9debug_api15DebugApiBackendEENtNtB5_8callback16EndpointWrappers17callback_selectorCsaR2MVHtCDM0_4test
FNDA:18,_RNvYINtCs2WGRDwQOHLQ_14liquid_staking11ContractObjINtNtNtNtCseUmQFO6d1K9_22multiversx_sc_scenario3api7impl_vh12vm_hooks_api10VMHooksApiNtNtBR_9debug_api15DebugApiBackendEENtNtB5_8callback16EndpointWrappers27call_add_liquidity_callbackCsaR2MVHtCDM0_4test
FNDA:5,_RNvYINtCs2WGRDwQOHLQ_14liquid_staking11ContractObjINtNtNtNtCseUmQFO6d1K9_22multiversx_sc_scenario3api7impl_vh12vm_hooks_api10VMHooksApiNtNtBR_9debug_api15DebugApiBackendEENtNtB5_8callback16EndpointWrappers27call_claim_rewards_callbackCsaR2MVHtCDM0_4test
FNDA:2,_RNvYINtCs2WGRDwQOHLQ_14liquid_staking11ContractObjINtNtNtNtCseUmQFO6d1K9_22multiversx_sc_scenario3api7impl_vh12vm_hooks_api10VMHooksApiNtNtBR_9debug_api15DebugApiBackendEENtNtB5_8callback16EndpointWrappers29call_withdraw_tokens_callbackCsaR2MVHtCDM0_4test
FNDA:1,_RNvYINtCs2WGRDwQOHLQ_14liquid_staking11ContractObjINtNtNtNtCseUmQFO6d1K9_22multiversx_sc_scenario3api7impl_vh12vm_hooks_api10VMHooksApiNtNtBR_9debug_api15DebugApiBackendEENtNtB5_8callback16EndpointWrappers30call_delegate_rewards_callbackCsaR2MVHtCDM0_4test
FNDA:2,_RNvYINtCs2WGRDwQOHLQ_14liquid_staking11ContractObjINtNtNtNtCseUmQFO6d1K9_22multiversx_sc_scenario3api7impl_vh12vm_hooks_api10VMHooksApiNtNtBR_9debug_api15DebugApiBackendEENtNtB5_8callback16EndpointWrappers30call_remove_liquidity_callbackCsaR2MVHtCDM0_4test
FNDA:28,_RNvYINtCs2WGRDwQOHLQ_14liquid_staking11ContractObjINtNtNtNtCseUmQFO6d1K9_22multiversx_sc_scenario3api7impl_vh12vm_hooks_api10VMHooksApiNtNtBR_9debug_api15DebugApiBackendEENtNtB5_8callback16EndpointWrappers4callCsaR2MVHtCDM0_4test
FNDA:0,_RNvYINtCs2WGRDwQOHLQ_14liquid_staking11ContractObjINtNtNtNtCseUmQFO6d1K9_22multiversx_sc_scenario3api7impl_vh12vm_hooks_api10VMHooksApiNtNtBR_9debug_api15DebugApiBackendEENtNtB5_8callback16EndpointWrappers8callbackCsaR2MVHtCDM0_4test
FNDA:5,_RNvXNtCs2WGRDwQOHLQ_14liquid_staking8callbackINtB4_11ContractObjINtNtNtNtCseUmQFO6d1K9_22multiversx_sc_scenario3api7impl_vh12vm_hooks_api10VMHooksApiNtNtB15_9debug_api15DebugApiBackendEENtB2_14CallbackModule9callbacksCsVH6ELXPoQD_15unDelegate_test
FNDA:5,_RNvYINtCs2WGRDwQOHLQ_14liquid_staking11ContractObjINtNtNtNtCseUmQFO6d1K9_22multiversx_sc_scenario3api7impl_vh12vm_hooks_api10VMHooksApiNtNtBR_9debug_api15DebugApiBackendEENtNtB5_8callback14CallbackModule22add_liquidity_callbackCsVH6ELXPoQD_15unDelegate_test
FNDA:0,_RNvYINtCs2WGRDwQOHLQ_14liquid_staking11ContractObjINtNtNtNtCseUmQFO6d1K9_22multiversx_sc_scenario3api7impl_vh12vm_hooks_api10VMHooksApiNtNtBR_9debug_api15DebugApiBackendEENtNtB5_8callback14CallbackModule22claim_rewards_callbackCsVH6ELXPoQD_15unDelegate_test
FNDA:0,_RNvYINtCs2WGRDwQOHLQ_14liquid_staking11ContractObjINtNtNtNtCseUmQFO6d1K9_22multiversx_sc_scenario3api7impl_vh12vm_hooks_api10VMHooksApiNtNtBR_9debug_api15DebugApiBackendEENtNtB5_8callback14CallbackModule24withdraw_tokens_callbackCsVH6ELXPoQD_15unDelegate_test
FNDA:0,_RNvYINtCs2WGRDwQOHLQ_14liquid_staking11ContractObjINtNtNtNtCseUmQFO6d1K9_22multiversx_sc_scenario3api7impl_vh12vm_hooks_api10VMHooksApiNtNtBR_9debug_api15DebugApiBackendEENtNtB5_8callback14CallbackModule25delegate_rewards_callbackCsVH6ELXPoQD_15unDelegate_test
FNDA:0,_RNvYINtCs2WGRDwQOHLQ_14liquid_staking11ContractObjINtNtNtNtCseUmQFO6d1K9_22multiversx_sc_scenario3api7impl_vh12vm_hooks_api10VMHooksApiNtNtBR_9debug_api15DebugApiBackendEENtNtB5_8callback14CallbackModule25remove_liquidity_callbackCsVH6ELXPoQD_15unDelegate_test
FNDA:0,_RNvYINtCs2WGRDwQOHLQ_14liquid_staking11ContractObjINtNtNtNtCseUmQFO6d1K9_22multiversx_sc_scenario3api7impl_vh12vm_hooks_api10VMHooksApiNtNtBR_9debug_api15DebugApiBackendEENtNtB5_8callback16EndpointWrappers17callback_selectorCsVH6ELXPoQD_15unDelegate_test
FNDA:5,_RNvYINtCs2WGRDwQOHLQ_14liquid_staking11ContractObjINtNtNtNtCseUmQFO6d1K9_22multiversx_sc_scenario3api7impl_vh12vm_hooks_api10VMHooksApiNtNtBR_9debug_api15DebugApiBackendEENtNtB5_8callback16EndpointWrappers27call_add_liquidity_callbackCsVH6ELXPoQD_15unDelegate_test
FNDA:0,_RNvYINtCs2WGRDwQOHLQ_14liquid_staking11ContractObjINtNtNtNtCseUmQFO6d1K9_22multiversx_sc_scenario3api7impl_vh12vm_hooks_api10VMHooksApiNtNtBR_9debug_api15DebugApiBackendEENtNtB5_8callback16EndpointWrappers27call_claim_rewards_callbackCsVH6ELXPoQD_15unDelegate_test
FNDA:0,_RNvYINtCs2WGRDwQOHLQ_14liquid_staking11ContractObjINtNtNtNtCseUmQFO6d1K9_22multiversx_sc_scenario3api7impl_vh12vm_hooks_api10VMHooksApiNtNtBR_9debug_api15DebugApiBackendEENtNtB5_8callback16EndpointWrappers29call_withdraw_tokens_callbackCsVH6ELXPoQD_15unDelegate_test
FNDA:0,_RNvYINtCs2WGRDwQOHLQ_14liquid_staking11ContractObjINtNtNtNtCseUmQFO6d1K9_22multiversx_sc_scenario3api7impl_vh12vm_hooks_api10VMHooksApiNtNtBR_9debug_api15DebugApiBackendEENtNtB5_8callback16EndpointWrappers30call_delegate_rewards_callbackCsVH6ELXPoQD_15unDelegate_test
FNDA:0,_RNvYINtCs2WGRDwQOHLQ_14liquid_staking11ContractObjINtNtNtNtCseUmQFO6d1K9_22multiversx_sc_scenario3api7impl_vh12vm_hooks_api10VMHooksApiNtNtBR_9debug_api15DebugApiBackendEENtNtB5_8callback16EndpointWrappers30call_remove_liquidity_callbackCsVH6ELXPoQD_15unDelegate_test
FNDA:5,_RNvYINtCs2WGRDwQOHLQ_14liquid_staking11ContractObjINtNtNtNtCseUmQFO6d1K9_22multiversx_sc_scenario3api7impl_vh12vm_hooks_api10VMHooksApiNtNtBR_9debug_api15DebugApiBackendEENtNtB5_8callback16EndpointWrappers4callCsVH6ELXPoQD_15unDelegate_test
FNDA:0,_RNvYINtCs2WGRDwQOHLQ_14liquid_staking11ContractObjINtNtNtNtCseUmQFO6d1K9_22multiversx_sc_scenario3api7impl_vh12vm_hooks_api10VMHooksApiNtNtBR_9debug_api15DebugApiBackendEENtNtB5_8callback16EndpointWrappers8callbackCsVH6ELXPoQD_15unDelegate_test
FNDA:5,_RNCNvYINtCs2WGRDwQOHLQ_14liquid_staking11ContractObjINtNtNtNtCseUmQFO6d1K9_22multiversx_sc_scenario3api7impl_vh12vm_hooks_api10VMHooksApiNtNtBT_9debug_api15DebugApiBackendEENtNtB7_8callback14CallbackModule22add_liquidity_callback0CsVH6ELXPoQD_15unDelegate_test
FNDA:0,_RNCNvYINtCs2WGRDwQOHLQ_14liquid_staking11ContractObjINtNtNtNtCseUmQFO6d1K9_22multiversx_sc_scenario3api7impl_vh12vm_hooks_api10VMHooksApiNtNtBT_9debug_api15DebugApiBackendEENtNtB7_8callback14CallbackModule24withdraw_tokens_callback0CsVH6ELXPoQD_15unDelegate_test
FNDA:0,_RNCNvYINtCs2WGRDwQOHLQ_14liquid_staking11ContractObjINtNtNtNtCseUmQFO6d1K9_22multiversx_sc_scenario3api7impl_vh12vm_hooks_api10VMHooksApiNtNtBT_9debug_api15DebugApiBackendEENtNtB7_8callback14CallbackModule25delegate_rewards_callback0CsVH6ELXPoQD_15unDelegate_test
FNDA:0,_RNCNvYINtCs2WGRDwQOHLQ_14liquid_staking11ContractObjINtNtNtNtCseUmQFO6d1K9_22multiversx_sc_scenario3api7impl_vh12vm_hooks_api10VMHooksApiNtNtBT_9debug_api15DebugApiBackendEENtNtB7_8callback14CallbackModule25delegate_rewards_callbacks_0CsVH6ELXPoQD_15unDelegate_test
FNDA:0,_RNCNvYINtCs2WGRDwQOHLQ_14liquid_staking11ContractObjINtNtNtNtCseUmQFO6d1K9_22multiversx_sc_scenario3api7impl_vh12vm_hooks_api10VMHooksApiNtNtBT_9debug_api15DebugApiBackendEENtNtB7_8callback14CallbackModule25remove_liquidity_callback0CsVH6ELXPoQD_15unDelegate_test
FNDA:5,_RNvXsn_NtCs2WGRDwQOHLQ_14liquid_staking8callbackINtB5_16CallbackProxyObjINtNtNtNtCseUmQFO6d1K9_22multiversx_sc_scenario3api7impl_vh12vm_hooks_api10VMHooksApiNtNtB1d_9debug_api15DebugApiBackendEENtNtNtCs4WmCETBkTZ5_13multiversx_sc13contract_base23proxy_obj_callback_base20CallbackProxyObjBase16new_cb_proxy_objCsVH6ELXPoQD_15unDelegate_test
FNDA:5,_RNvYINtNtCs2WGRDwQOHLQ_14liquid_staking8callback16CallbackProxyObjINtNtNtNtCseUmQFO6d1K9_22multiversx_sc_scenario3api7impl_vh12vm_hooks_api10VMHooksApiNtNtB17_9debug_api15DebugApiBackendEENtB5_13CallbackProxy22add_liquidity_callbackCsVH6ELXPoQD_15unDelegate_test
FNDA:0,_RNvYINtNtCs2WGRDwQOHLQ_14liquid_staking8callback16CallbackProxyObjINtNtNtNtCseUmQFO6d1K9_22multiversx_sc_scenario3api7impl_vh12vm_hooks_api10VMHooksApiNtNtB17_9debug_api15DebugApiBackendEENtB5_13CallbackProxy22claim_rewards_callbackCsVH6ELXPoQD_15unDelegate_test
FNDA:0,_RNvYINtNtCs2WGRDwQOHLQ_14liquid_staking8callback16CallbackProxyObjINtNtNtNtCseUmQFO6d1K9_22multiversx_sc_scenario3api7impl_vh12vm_hooks_api10VMHooksApiNtNtB17_9debug_api15DebugApiBackendEENtB5_13CallbackProxy24withdraw_tokens_callbackCsVH6ELXPoQD_15unDelegate_test
FNDA:0,_RNvYINtNtCs2WGRDwQOHLQ_14liquid_staking8callback16CallbackProxyObjINtNtNtNtCseUmQFO6d1K9_22multiversx_sc_scenario3api7impl_vh12vm_hooks_api10VMHooksApiNtNtB17_9debug_api15DebugApiBackendEENtB5_13CallbackProxy25delegate_rewards_callbackCsVH6ELXPoQD_15unDelegate_test
FNDA:0,_RNvYINtNtCs2WGRDwQOHLQ_14liquid_staking8callback16CallbackProxyObjINtNtNtNtCseUmQFO6d1K9_22multiversx_sc_scenario3api7impl_vh12vm_hooks_api10VMHooksApiNtNtB17_9debug_api15DebugApiBackendEENtB5_13CallbackProxy25remove_liquidity_callbackCsVH6ELXPoQD_15unDelegate_test
FNDA:5,_RNCNvYINtCs2WGRDwQOHLQ_14liquid_staking11ContractObjINtNtNtNtCseUmQFO6d1K9_22multiversx_sc_scenario3api7impl_vh12vm_hooks_api10VMHooksApiNtNtBT_9debug_api15DebugApiBackendEENtNtB7_8callback14CallbackModule22add_liquidity_callback0CshHwHQpnfuGH_11unbond_test
FNDA:3,_RNCNvYINtCs2WGRDwQOHLQ_14liquid_staking11ContractObjINtNtNtNtCseUmQFO6d1K9_22multiversx_sc_scenario3api7impl_vh12vm_hooks_api10VMHooksApiNtNtBT_9debug_api15DebugApiBackendEENtNtB7_8callback14CallbackModule24withdraw_tokens_callback0CshHwHQpnfuGH_11unbond_test
FNDA:0,_RNCNvYINtCs2WGRDwQOHLQ_14liquid_staking11ContractObjINtNtNtNtCseUmQFO6d1K9_22multiversx_sc_scenario3api7impl_vh12vm_hooks_api10VMHooksApiNtNtBT_9debug_api15DebugApiBackendEENtNtB7_8callback14CallbackModule25delegate_rewards_callback0CshHwHQpnfuGH_11unbond_test
FNDA:0,_RNCNvYINtCs2WGRDwQOHLQ_14liquid_staking11ContractObjINtNtNtNtCseUmQFO6d1K9_22multiversx_sc_scenario3api7impl_vh12vm_hooks_api10VMHooksApiNtNtBT_9debug_api15DebugApiBackendEENtNtB7_8callback14CallbackModule25delegate_rewards_callbacks_0CshHwHQpnfuGH_11unbond_test
FNDA:5,_RNCNvYINtCs2WGRDwQOHLQ_14liquid_staking11ContractObjINtNtNtNtCseUmQFO6d1K9_22multiversx_sc_scenario3api7impl_vh12vm_hooks_api10VMHooksApiNtNtBT_9debug_api15DebugApiBackendEENtNtB7_8callback14CallbackModule25remove_liquidity_callback0CshHwHQpnfuGH_11unbond_test
FNDA:14,_RNvXsn_NtCs2WGRDwQOHLQ_14liquid_staking8callbackINtB5_16CallbackProxyObjINtNtNtNtCseUmQFO6d1K9_22multiversx_sc_scenario3api7impl_vh12vm_hooks_api10VMHooksApiNtNtB1d_9debug_api15DebugApiBackendEENtNtNtCs4WmCETBkTZ5_13multiversx_sc13contract_base23proxy_obj_callback_base20CallbackProxyObjBase16new_cb_proxy_objCshHwHQpnfuGH_11unbond_test
FNDA:5,_RNvYINtNtCs2WGRDwQOHLQ_14liquid_staking8callback16CallbackProxyObjINtNtNtNtCseUmQFO6d1K9_22multiversx_sc_scenario3api7impl_vh12vm_hooks_api10VMHooksApiNtNtB17_9debug_api15DebugApiBackendEENtB5_13CallbackProxy22add_liquidity_callbackCshHwHQpnfuGH_11unbond_test
FNDA:0,_RNvYINtNtCs2WGRDwQOHLQ_14liquid_staking8callback16CallbackProxyObjINtNtNtNtCseUmQFO6d1K9_22multiversx_sc_scenario3api7impl_vh12vm_hooks_api10VMHooksApiNtNtB17_9debug_api15DebugApiBackendEENtB5_13CallbackProxy22claim_rewards_callbackCshHwHQpnfuGH_11unbond_test
FNDA:4,_RNvYINtNtCs2WGRDwQOHLQ_14liquid_staking8callback16CallbackProxyObjINtNtNtNtCseUmQFO6d1K9_22multiversx_sc_scenario3api7impl_vh12vm_hooks_api10VMHooksApiNtNtB17_9debug_api15DebugApiBackendEENtB5_13CallbackProxy24withdraw_tokens_callbackCshHwHQpnfuGH_11unbond_test
FNDA:0,_RNvYINtNtCs2WGRDwQOHLQ_14liquid_staking8callback16CallbackProxyObjINtNtNtNtCseUmQFO6d1K9_22multiversx_sc_scenario3api7impl_vh12vm_hooks_api10VMHooksApiNtNtB17_9debug_api15DebugApiBackendEENtB5_13CallbackProxy25delegate_rewards_callbackCshHwHQpnfuGH_11unbond_test
FNDA:5,_RNvYINtNtCs2WGRDwQOHLQ_14liquid_staking8callback16CallbackProxyObjINtNtNtNtCseUmQFO6d1K9_22multiversx_sc_scenario3api7impl_vh12vm_hooks_api10VMHooksApiNtNtB17_9debug_api15DebugApiBackendEENtB5_13CallbackProxy25remove_liquidity_callbackCshHwHQpnfuGH_11unbond_test
FNDA:14,_RNvXNtCs2WGRDwQOHLQ_14liquid_staking8callbackINtB4_11ContractObjINtNtNtNtCseUmQFO6d1K9_22multiversx_sc_scenario3api7impl_vh12vm_hooks_api10VMHooksApiNtNtB15_9debug_api15DebugApiBackendEENtB2_14CallbackModule9callbacksCshHwHQpnfuGH_11unbond_test
FNDA:5,_RNvYINtCs2WGRDwQOHLQ_14liquid_staking11ContractObjINtNtNtNtCseUmQFO6d1K9_22multiversx_sc_scenario3api7impl_vh12vm_hooks_api10VMHooksApiNtNtBR_9debug_api15DebugApiBackendEENtNtB5_8callback14CallbackModule22add_liquidity_callbackCshHwHQpnfuGH_11unbond_test
FNDA:0,_RNvYINtCs2WGRDwQOHLQ_14liquid_staking11ContractObjINtNtNtNtCseUmQFO6d1K9_22multiversx_sc_scenario3api7impl_vh12vm_hooks_api10VMHooksApiNtNtBR_9debug_api15DebugApiBackendEENtNtB5_8callback14CallbackModule22claim_rewards_callbackCshHwHQpnfuGH_11unbond_test
FNDA:4,_RNvYINtCs2WGRDwQOHLQ_14liquid_staking11ContractObjINtNtNtNtCseUmQFO6d1K9_22multiversx_sc_scenario3api7impl_vh12vm_hooks_api10VMHooksApiNtNtBR_9debug_api15DebugApiBackendEENtNtB5_8callback14CallbackModule24withdraw_tokens_callbackCshHwHQpnfuGH_11unbond_test
FNDA:0,_RNvYINtCs2WGRDwQOHLQ_14liquid_staking11ContractObjINtNtNtNtCseUmQFO6d1K9_22multiversx_sc_scenario3api7impl_vh12vm_hooks_api10VMHooksApiNtNtBR_9debug_api15DebugApiBackendEENtNtB5_8callback14CallbackModule25delegate_rewards_callbackCshHwHQpnfuGH_11unbond_test
FNDA:5,_RNvYINtCs2WGRDwQOHLQ_14liquid_staking11ContractObjINtNtNtNtCseUmQFO6d1K9_22multiversx_sc_scenario3api7impl_vh12vm_hooks_api10VMHooksApiNtNtBR_9debug_api15DebugApiBackendEENtNtB5_8callback14CallbackModule25remove_liquidity_callbackCshHwHQpnfuGH_11unbond_test
FNDA:0,_RNvYINtCs2WGRDwQOHLQ_14liquid_staking11ContractObjINtNtNtNtCseUmQFO6d1K9_22multiversx_sc_scenario3api7impl_vh12vm_hooks_api10VMHooksApiNtNtBR_9debug_api15DebugApiBackendEENtNtB5_8callback16EndpointWrappers17callback_selectorCshHwHQpnfuGH_11unbond_test
FNDA:5,_RNvYINtCs2WGRDwQOHLQ_14liquid_staking11ContractObjINtNtNtNtCseUmQFO6d1K9_22multiversx_sc_scenario3api7impl_vh12vm_hooks_api10VMHooksApiNtNtBR_9debug_api15DebugApiBackendEENtNtB5_8callback16EndpointWrappers27call_add_liquidity_callbackCshHwHQpnfuGH_11unbond_test
FNDA:0,_RNvYINtCs2WGRDwQOHLQ_14liquid_staking11ContractObjINtNtNtNtCseUmQFO6d1K9_22multiversx_sc_scenario3api7impl_vh12vm_hooks_api10VMHooksApiNtNtBR_9debug_api15DebugApiBackendEENtNtB5_8callback16EndpointWrappers27call_claim_rewards_callbackCshHwHQpnfuGH_11unbond_test
FNDA:4,_RNvYINtCs2WGRDwQOHLQ_14liquid_staking11ContractObjINtNtNtNtCseUmQFO6d1K9_22multiversx_sc_scenario3api7impl_vh12vm_hooks_api10VMHooksApiNtNtBR_9debug_api15DebugApiBackendEENtNtB5_8callback16EndpointWrappers29call_withdraw_tokens_callbackCshHwHQpnfuGH_11unbond_test
FNDA:0,_RNvYINtCs2WGRDwQOHLQ_14liquid_staking11ContractObjINtNtNtNtCseUmQFO6d1K9_22multiversx_sc_scenario3api7impl_vh12vm_hooks_api10VMHooksApiNtNtBR_9debug_api15DebugApiBackendEENtNtB5_8callback16EndpointWrappers30call_delegate_rewards_callbackCshHwHQpnfuGH_11unbond_test
FNDA:5,_RNvYINtCs2WGRDwQOHLQ_14liquid_staking11ContractObjINtNtNtNtCseUmQFO6d1K9_22multiversx_sc_scenario3api7impl_vh12vm_hooks_api10VMHooksApiNtNtBR_9debug_api15DebugApiBackendEENtNtB5_8callback16EndpointWrappers30call_remove_liquidity_callbackCshHwHQpnfuGH_11unbond_test
FNDA:14,_RNvYINtCs2WGRDwQOHLQ_14liquid_staking11ContractObjINtNtNtNtCseUmQFO6d1K9_22multiversx_sc_scenario3api7impl_vh12vm_hooks_api10VMHooksApiNtNtBR_9debug_api15DebugApiBackendEENtNtB5_8callback16EndpointWrappers4callCshHwHQpnfuGH_11unbond_test
FNDA:0,_RNvYINtCs2WGRDwQOHLQ_14liquid_staking11ContractObjINtNtNtNtCseUmQFO6d1K9_22multiversx_sc_scenario3api7impl_vh12vm_hooks_api10VMHooksApiNtNtBR_9debug_api15DebugApiBackendEENtNtB5_8callback16EndpointWrappers8callbackCshHwHQpnfuGH_11unbond_test
FNF:11
FNH:10
DA:9,51
DA:26,7
DA:27,7
DA:28,7
DA:29,7
DA:30,7
DA:31,7
DA:32,7
DA:33,7
DA:34,7
DA:35,7
DA:36,7
DA:37,7
DA:38,7
DA:39,7
DA:40,7
DA:41,7
DA:42,0
DA:43,0
DA:44,0
DA:45,0
DA:46,0
DA:56,32
DA:57,32
DA:58,32
DA:59,32
DA:60,32
DA:61,32
DA:62,32
DA:63,32
DA:64,32
DA:65,0
DA:66,0
DA:67,0
DA:69,32
DA:77,6
DA:78,6
DA:79,6
DA:81,5
DA:82,5
DA:83,5
DA:84,5
DA:85,5
DA:86,5
DA:87,5
DA:88,5
DA:89,5
DA:90,5
DA:92,1
DA:101,5
DA:102,5
DA:103,5
DA:105,5
DA:106,5
DA:107,5
DA:108,5
DA:109,5
DA:110,5
DA:112,0
DA:122,1
DA:123,1
DA:124,1
DA:126,1
DA:127,1
DA:128,1
DA:129,1
DA:130,1
DA:131,1
DA:132,1
DA:133,1
DA:134,0
DA:135,0
DA:136,1
DA:138,1
DA:139,1
DA:140,1
DA:141,1
DA:143,0
DA:144,0
DA:145,0
DA:146,0
DA:147,0
BRF:0
BRH:0
LF:91
LH:74
end_of_record
SF:/Users/mihaieremia/GitHub/rs-egld-liquid-staking/liquid-staking/src/config.rs
FN:9,_RNvXNtCs2WGRDwQOHLQ_14liquid_staking6configINtB4_11ContractObjINtNtNtNtCseUmQFO6d1K9_22multiversx_sc_scenario3api7impl_vh12vm_hooks_api10VMHooksApiNtNtB13_9debug_api15DebugApiBackendEENtB2_12ConfigModule12pending_egldCskEhliFuVTlV_13delegate_test
FN:9,_RNvXNtCs2WGRDwQOHLQ_14liquid_staking6configINtB4_11ContractObjINtNtNtNtCseUmQFO6d1K9_22multiversx_sc_scenario3api7impl_vh12vm_hooks_api10VMHooksApiNtNtB13_9debug_api15DebugApiBackendEENtB2_12ConfigModule13unstake_tokenCskEhliFuVTlV_13delegate_test
FN:9,_RNvXNtCs2WGRDwQOHLQ_14liquid_staking6configINtB4_11ContractObjINtNtNtNtCseUmQFO6d1K9_22multiversx_sc_scenario3api7impl_vh12vm_hooks_api10VMHooksApiNtNtB13_9debug_api15DebugApiBackendEENtB2_12ConfigModule14minimum_roundsCskEhliFuVTlV_13delegate_test
FN:9,_RNvXNtCs2WGRDwQOHLQ_14liquid_staking6configINtB4_11ContractObjINtNtNtNtCseUmQFO6d1K9_22multiversx_sc_scenario3api7impl_vh12vm_hooks_api10VMHooksApiNtNtB13_9debug_api15DebugApiBackendEENtB2_12ConfigModule15ls_token_supplyCskEhliFuVTlV_13delegate_test
FN:9,_RNvXNtCs2WGRDwQOHLQ_14liquid_staking6configINtB4_11ContractObjINtNtNtNtCseUmQFO6d1K9_22multiversx_sc_scenario3api7impl_vh12vm_hooks_api10VMHooksApiNtNtB13_9debug_api15DebugApiBackendEENtB2_12ConfigModule15rewards_reserveCskEhliFuVTlV_13delegate_test
FN:9,_RNvXNtCs2WGRDwQOHLQ_14liquid_staking6configINtB4_11ContractObjINtNtNtNtCseUmQFO6d1K9_22multiversx_sc_scenario3api7impl_vh12vm_hooks_api10VMHooksApiNtNtB13_9debug_api15DebugApiBackendEENtB2_12ConfigModule16rounds_per_epochCskEhliFuVTlV_13delegate_test
FN:9,_RNvXNtCs2WGRDwQOHLQ_14liquid_staking6configINtB4_11ContractObjINtNtNtNtCseUmQFO6d1K9_22multiversx_sc_scenario3api7impl_vh12vm_hooks_api10VMHooksApiNtNtB13_9debug_api15DebugApiBackendEENtB2_12ConfigModule19unstake_token_nonceCskEhliFuVTlV_13delegate_test
FN:9,_RNvXNtCs2WGRDwQOHLQ_14liquid_staking6configINtB4_11ContractObjINtNtNtNtCseUmQFO6d1K9_22multiversx_sc_scenario3api7impl_vh12vm_hooks_api10VMHooksApiNtNtB13_9debug_api15DebugApiBackendEENtB2_12ConfigModule20accumulator_contractCskEhliFuVTlV_13delegate_test
FN:9,_RNvXNtCs2WGRDwQOHLQ_14liquid_staking6configINtB4_11ContractObjINtNtNtNtCseUmQFO6d1K9_22multiversx_sc_scenario3api7impl_vh12vm_hooks_api10VMHooksApiNtNtB13_9debug_api15DebugApiBackendEENtB2_12ConfigModule20total_withdrawn_egldCskEhliFuVTlV_13delegate_test
FN:9,_RNvXNtCs2WGRDwQOHLQ_14liquid_staking6configINtB4_11ContractObjINtNtNtNtCseUmQFO6d1K9_22multiversx_sc_scenario3api7impl_vh12vm_hooks_api10VMHooksApiNtNtB13_9debug_api15DebugApiBackendEENtB2_12ConfigModule20virtual_egld_reserveCskEhliFuVTlV_13delegate_test
FN:9,_RNvXNtCs2WGRDwQOHLQ_14liquid_staking6configINtB4_11ContractObjINtNtNtNtCseUmQFO6d1K9_22multiversx_sc_scenario3api7impl_vh12vm_hooks_api10VMHooksApiNtNtB13_9debug_api15DebugApiBackendEENtB2_12ConfigModule22pending_ls_for_unstakeCskEhliFuVTlV_13delegate_test
FN:9,_RNvXNtCs2WGRDwQOHLQ_14liquid_staking6configINtB4_11ContractObjINtNtNtNtCseUmQFO6d1K9_22multiversx_sc_scenario3api7impl_vh12vm_hooks_api10VMHooksApiNtNtB13_9debug_api15DebugApiBackendEENtB2_12ConfigModule4feesCskEhliFuVTlV_13delegate_test
FN:9,_RNvXNtCs2WGRDwQOHLQ_14liquid_staking6configINtB4_11ContractObjINtNtNtNtCseUmQFO6d1K9_22multiversx_sc_scenario3api7impl_vh12vm_hooks_api10VMHooksApiNtNtB13_9debug_api15DebugApiBackendEENtB2_12ConfigModule5stateCskEhliFuVTlV_13delegate_test
FN:9,_RNvXNtCs2WGRDwQOHLQ_14liquid_staking6configINtB4_11ContractObjINtNtNtNtCseUmQFO6d1K9_22multiversx_sc_scenario3api7impl_vh12vm_hooks_api10VMHooksApiNtNtB13_9debug_api15DebugApiBackendEENtB2_12ConfigModule8ls_tokenCskEhliFuVTlV_13delegate_test
FN:87,_RNvYINtCs2WGRDwQOHLQ_14liquid_staking11ContractObjINtNtNtNtCseUmQFO6d1K9_22multiversx_sc_scenario3api7impl_vh12vm_hooks_api10VMHooksApiNtNtBR_9debug_api15DebugApiBackendEENtNtB5_6config12ConfigModule15is_state_activeCskEhliFuVTlV_13delegate_test
FN:52,_RNvYINtCs2WGRDwQOHLQ_14liquid_staking11ContractObjINtNtNtNtCseUmQFO6d1K9_22multiversx_sc_scenario3api7impl_vh12vm_hooks_api10VMHooksApiNtNtBR_9debug_api15DebugApiBackendEENtNtB5_6config12ConfigModule16set_state_activeCskEhliFuVTlV_13delegate_test
FN:19,_RNvYINtCs2WGRDwQOHLQ_14liquid_staking11ContractObjINtNtNtNtCseUmQFO6d1K9_22multiversx_sc_scenario3api7impl_vh12vm_hooks_api10VMHooksApiNtNtBR_9debug_api15DebugApiBackendEENtNtB5_6config12ConfigModule17register_ls_tokenCskEhliFuVTlV_13delegate_test
FN:82,_RNvYINtCs2WGRDwQOHLQ_14liquid_staking11ContractObjINtNtNtNtCseUmQFO6d1K9_22multiversx_sc_scenario3api7impl_vh12vm_hooks_api10VMHooksApiNtNtBR_9debug_api15DebugApiBackendEENtNtB5_6config12ConfigModule18set_minimum_roundsCskEhliFuVTlV_13delegate_test
FN:58,_RNvYINtCs2WGRDwQOHLQ_14liquid_staking11ContractObjINtNtNtNtCseUmQFO6d1K9_22multiversx_sc_scenario3api7impl_vh12vm_hooks_api10VMHooksApiNtNtBR_9debug_api15DebugApiBackendEENtNtB5_6config12ConfigModule18set_state_inactiveCskEhliFuVTlV_13delegate_test
FN:76,_RNvYINtCs2WGRDwQOHLQ_14liquid_staking11ContractObjINtNtNtNtCseUmQFO6d1K9_22multiversx_sc_scenario3api7impl_vh12vm_hooks_api10VMHooksApiNtNtBR_9debug_api15DebugApiBackendEENtNtB5_6config12ConfigModule20set_rounds_per_epochCskEhliFuVTlV_13delegate_test
FN:38,_RNvYINtCs2WGRDwQOHLQ_14liquid_staking11ContractObjINtNtNtNtCseUmQFO6d1K9_22multiversx_sc_scenario3api7impl_vh12vm_hooks_api10VMHooksApiNtNtBR_9debug_api15DebugApiBackendEENtNtB5_6config12ConfigModule22register_unstake_tokenCskEhliFuVTlV_13delegate_test
FN:64,_RNvYINtCs2WGRDwQOHLQ_14liquid_staking11ContractObjINtNtNtNtCseUmQFO6d1K9_22multiversx_sc_scenario3api7impl_vh12vm_hooks_api10VMHooksApiNtNtBR_9debug_api15DebugApiBackendEENtNtB5_6config12ConfigModule24set_accumulator_contractCskEhliFuVTlV_13delegate_test
FN:70,_RNvYINtCs2WGRDwQOHLQ_14liquid_staking11ContractObjINtNtNtNtCseUmQFO6d1K9_22multiversx_sc_scenario3api7impl_vh12vm_hooks_api10VMHooksApiNtNtBR_9debug_api15DebugApiBackendEENtNtB5_6config12ConfigModule8set_feesCskEhliFuVTlV_13delegate_test
FN:9,_RNvYINtCs2WGRDwQOHLQ_14liquid_staking11ContractObjINtNtNtNtCseUmQFO6d1K9_22multiversx_sc_scenario3api7impl_vh12vm_hooks_api10VMHooksApiNtNtBR_9debug_api15DebugApiBackendEENtNtB5_6config16EndpointWrappers10call_stateCskEhliFuVTlV_13delegate_test
FN:9,_RNvYINtCs2WGRDwQOHLQ_14liquid_staking11ContractObjINtNtNtNtCseUmQFO6d1K9_22multiversx_sc_scenario3api7impl_vh12vm_hooks_api10VMHooksApiNtNtBR_9debug_api15DebugApiBackendEENtNtB5_6config16EndpointWrappers13call_ls_tokenCskEhliFuVTlV_13delegate_test
FN:9,_RNvYINtCs2WGRDwQOHLQ_14liquid_staking11ContractObjINtNtNtNtCseUmQFO6d1K9_22multiversx_sc_scenario3api7impl_vh12vm_hooks_api10VMHooksApiNtNtBR_9debug_api15DebugApiBackendEENtNtB5_6config16EndpointWrappers13call_set_feesCskEhliFuVTlV_13delegate_test
FN:9,_RNvYINtCs2WGRDwQOHLQ_14liquid_staking11ContractObjINtNtNtNtCseUmQFO6d1K9_22multiversx_sc_scenario3api7impl_vh12vm_hooks_api10VMHooksApiNtNtBR_9debug_api15DebugApiBackendEENtNtB5_6config16EndpointWrappers17call_pending_egldCskEhliFuVTlV_13delegate_test
FN:9,_RNvYINtCs2WGRDwQOHLQ_14liquid_staking11ContractObjINtNtNtNtCseUmQFO6d1K9_22multiversx_sc_scenario3api7impl_vh12vm_hooks_api10VMHooksApiNtNtBR_9debug_api15DebugApiBackendEENtNtB5_6config16EndpointWrappers17callback_selectorCskEhliFuVTlV_13delegate_test
FN:9,_RNvYINtCs2WGRDwQOHLQ_14liquid_staking11ContractObjINtNtNtNtCseUmQFO6d1K9_22multiversx_sc_scenario3api7impl_vh12vm_hooks_api10VMHooksApiNtNtBR_9debug_api15DebugApiBackendEENtNtB5_6config16EndpointWrappers18call_unstake_tokenCskEhliFuVTlV_13delegate_test
FN:9,_RNvYINtCs2WGRDwQOHLQ_14liquid_staking11ContractObjINtNtNtNtCseUmQFO6d1K9_22multiversx_sc_scenario3api7impl_vh12vm_hooks_api10VMHooksApiNtNtBR_9debug_api15DebugApiBackendEENtNtB5_6config16EndpointWrappers19call_minimum_roundsCskEhliFuVTlV_13delegate_test
FN:9,_RNvYINtCs2WGRDwQOHLQ_14liquid_staking11ContractObjINtNtNtNtCseUmQFO6d1K9_22multiversx_sc_scenario3api7impl_vh12vm_hooks_api10VMHooksApiNtNtBR_9debug_api15DebugApiBackendEENtNtB5_6config16EndpointWrappers20call_ls_token_supplyCskEhliFuVTlV_13delegate_test
FN:9,_RNvYINtCs2WGRDwQOHLQ_14liquid_staking11ContractObjINtNtNtNtCseUmQFO6d1K9_22multiversx_sc_scenario3api7impl_vh12vm_hooks_api10VMHooksApiNtNtBR_9debug_api15DebugApiBackendEENtNtB5_6config16EndpointWrappers20call_rewards_reserveCskEhliFuVTlV_13delegate_test
FN:9,_RNvYINtCs2WGRDwQOHLQ_14liquid_staking11ContractObjINtNtNtNtCseUmQFO6d1K9_22multiversx_sc_scenario3api7impl_vh12vm_hooks_api10VMHooksApiNtNtBR_9debug_api15DebugApiBackendEENtNtB5_6config16EndpointWrappers21call_rounds_per_epochCskEhliFuVTlV_13delegate_test
FN:9,_RNvYINtCs2WGRDwQOHLQ_14liquid_staking11ContractObjINtNtNtNtCseUmQFO6d1K9_22multiversx_sc_scenario3api7impl_vh12vm_hooks_api10VMHooksApiNtNtBR_9debug_api15DebugApiBackendEENtNtB5_6config16EndpointWrappers21call_set_state_activeCskEhliFuVTlV_13delegate_test
FN:9,_RNvYINtCs2WGRDwQOHLQ_14liquid_staking11ContractObjINtNtNtNtCseUmQFO6d1K9_22multiversx_sc_scenario3api7impl_vh12vm_hooks_api10VMHooksApiNtNtBR_9debug_api15DebugApiBackendEENtNtB5_6config16EndpointWrappers22call_register_ls_tokenCskEhliFuVTlV_13delegate_test
FN:9,_RNvYINtCs2WGRDwQOHLQ_14liquid_staking11ContractObjINtNtNtNtCseUmQFO6d1K9_22multiversx_sc_scenario3api7impl_vh12vm_hooks_api10VMHooksApiNtNtBR_9debug_api15DebugApiBackendEENtNtB5_6config16EndpointWrappers23call_set_minimum_roundsCskEhliFuVTlV_13delegate_test
FN:9,_RNvYINtCs2WGRDwQOHLQ_14liquid_staking11ContractObjINtNtNtNtCseUmQFO6d1K9_22multiversx_sc_scenario3api7impl_vh12vm_hooks_api10VMHooksApiNtNtBR_9debug_api15DebugApiBackendEENtNtB5_6config16EndpointWrappers23call_set_state_inactiveCskEhliFuVTlV_13delegate_test
FN:9,_RNvYINtCs2WGRDwQOHLQ_14liquid_staking11ContractObjINtNtNtNtCseUmQFO6d1K9_22multiversx_sc_scenario3api7impl_vh12vm_hooks_api10VMHooksApiNtNtBR_9debug_api15DebugApiBackendEENtNtB5_6config16EndpointWrappers24call_unstake_token_nonceCskEhliFuVTlV_13delegate_test
FN:9,_RNvYINtCs2WGRDwQOHLQ_14liquid_staking11ContractObjINtNtNtNtCseUmQFO6d1K9_22multiversx_sc_scenario3api7impl_vh12vm_hooks_api10VMHooksApiNtNtBR_9debug_api15DebugApiBackendEENtNtB5_6config16EndpointWrappers25call_accumulator_contractCskEhliFuVTlV_13delegate_test
FN:9,_RNvYINtCs2WGRDwQOHLQ_14liquid_staking11ContractObjINtNtNtNtCseUmQFO6d1K9_22multiversx_sc_scenario3api7impl_vh12vm_hooks_api10VMHooksApiNtNtBR_9debug_api15DebugApiBackendEENtNtB5_6config16EndpointWrappers25call_set_rounds_per_epochCskEhliFuVTlV_13delegate_test
FN:9,_RNvYINtCs2WGRDwQOHLQ_14liquid_staking11ContractObjINtNtNtNtCseUmQFO6d1K9_22multiversx_sc_scenario3api7impl_vh12vm_hooks_api10VMHooksApiNtNtBR_9debug_api15DebugApiBackendEENtNtB5_6config16EndpointWrappers25call_total_withdrawn_egldCskEhliFuVTlV_13delegate_test
FN:9,_RNvYINtCs2WGRDwQOHLQ_14liquid_staking11ContractObjINtNtNtNtCseUmQFO6d1K9_22multiversx_sc_scenario3api7impl_vh12vm_hooks_api10VMHooksApiNtNtBR_9debug_api15DebugApiBackendEENtNtB5_6config16EndpointWrappers25call_virtual_egld_reserveCskEhliFuVTlV_13delegate_test
FN:9,_RNvYINtCs2WGRDwQOHLQ_14liquid_staking11ContractObjINtNtNtNtCseUmQFO6d1K9_22multiversx_sc_scenario3api7impl_vh12vm_hooks_api10VMHooksApiNtNtBR_9debug_api15DebugApiBackendEENtNtB5_6config16EndpointWrappers27call_pending_ls_for_unstakeCskEhliFuVTlV_13delegate_test
FN:9,_RNvYINtCs2WGRDwQOHLQ_14liquid_staking11ContractObjINtNtNtNtCseUmQFO6d1K9_22multiversx_sc_scenario3api7impl_vh12vm_hooks_api10VMHooksApiNtNtBR_9debug_api15DebugApiBackendEENtNtB5_6config16EndpointWrappers27call_register_unstake_tokenCskEhliFuVTlV_13delegate_test
FN:9,_RNvYINtCs2WGRDwQOHLQ_14liquid_staking11ContractObjINtNtNtNtCseUmQFO6d1K9_22multiversx_sc_scenario3api7impl_vh12vm_hooks_api10VMHooksApiNtNtBR_9debug_api15DebugApiBackendEENtNtB5_6config16EndpointWrappers29call_set_accumulator_contractCskEhliFuVTlV_13delegate_test
FN:9,_RNvYINtCs2WGRDwQOHLQ_14liquid_staking11ContractObjINtNtNtNtCseUmQFO6d1K9_22multiversx_sc_scenario3api7impl_vh12vm_hooks_api10VMHooksApiNtNtBR_9debug_api15DebugApiBackendEENtNtB5_6config16EndpointWrappers4callCskEhliFuVTlV_13delegate_test
FN:9,_RNvYINtCs2WGRDwQOHLQ_14liquid_staking11ContractObjINtNtNtNtCseUmQFO6d1K9_22multiversx_sc_scenario3api7impl_vh12vm_hooks_api10VMHooksApiNtNtBR_9debug_api15DebugApiBackendEENtNtB5_6config16EndpointWrappers8callbackCskEhliFuVTlV_13delegate_test
FN:9,_RNvYINtCs2WGRDwQOHLQ_14liquid_staking11ContractObjINtNtNtNtCseUmQFO6d1K9_22multiversx_sc_scenario3api7impl_vh12vm_hooks_api10VMHooksApiNtNtBR_9debug_api15DebugApiBackendEENtNtB5_6config16EndpointWrappers9call_feesCskEhliFuVTlV_13delegate_test
FN:19,_RNvYpNtNtCsdRzYvL09OST_14liquid_staking6config12ConfigModule17register_ls_tokenB7_
FN:38,_RNvYpNtNtCsdRzYvL09OST_14liquid_staking6config12ConfigModule22register_unstake_tokenB7_
FN:52,_RNvYpNtNtCsdRzYvL09OST_14liquid_staking6config12ConfigModule16set_state_activeB7_
FN:58,_RNvYpNtNtCsdRzYvL09OST_14liquid_staking6config12ConfigModule18set_state_inactiveB7_
FN:64,_RNvYpNtNtCsdRzYvL09OST_14liquid_staking6config12ConfigModule24set_accumulator_contractB7_
FN:70,_RNvYpNtNtCsdRzYvL09OST_14liquid_staking6config12ConfigModule8set_feesB7_
FN:76,_RNvYpNtNtCsdRzYvL09OST_14liquid_staking6config12ConfigModule20set_rounds_per_epochB7_
FN:82,_RNvYpNtNtCsdRzYvL09OST_14liquid_staking6config12ConfigModule18set_minimum_roundsB7_
FN:87,_RNvYpNtNtCsdRzYvL09OST_14liquid_staking6config12ConfigModule15is_state_activeB7_
FN:9,_RNvXININtCsdRzYvL09OST_14liquid_staking6config0pEpNtB5_12ConfigModule4feesB7_
FN:9,_RNvXININtCsdRzYvL09OST_14liquid_staking6config0pEpNtB5_12ConfigModule20accumulator_contractB7_
FN:9,_RNvXININtCsdRzYvL09OST_14liquid_staking6config0pEpNtB5_12ConfigModule16rounds_per_epochB7_
FN:9,_RNvXININtCsdRzYvL09OST_14liquid_staking6config0pEpNtB5_12ConfigModule14minimum_roundsB7_
FN:9,_RNvXININtCsdRzYvL09OST_14liquid_staking6config0pEpNtB5_12ConfigModule5stateB7_
FN:9,_RNvXININtCsdRzYvL09OST_14liquid_staking6config0pEpNtB5_12ConfigModule8ls_tokenB7_
FN:9,_RNvXININtCsdRzYvL09OST_14liquid_staking6config0pEpNtB5_12ConfigModule15ls_token_supplyB7_
FN:9,_RNvXININtCsdRzYvL09OST_14liquid_staking6config0pEpNtB5_12ConfigModule20virtual_egld_reserveB7_
FN:9,_RNvXININtCsdRzYvL09OST_14liquid_staking6config0pEpNtB5_12ConfigModule15rewards_reserveB7_
FN:9,_RNvXININtCsdRzYvL09OST_14liquid_staking6config0pEpNtB5_12ConfigModule20total_withdrawn_egldB7_
FN:9,_RNvXININtCsdRzYvL09OST_14liquid_staking6config0pEpNtB5_12ConfigModule13unstake_tokenB7_
FN:9,_RNvXININtCsdRzYvL09OST_14liquid_staking6config0pEpNtB5_12ConfigModule12pending_egldB7_
FN:9,_RNvXININtCsdRzYvL09OST_14liquid_staking6config0pEpNtB5_12ConfigModule22pending_ls_for_unstakeB7_
FN:9,_RNvXININtCsdRzYvL09OST_14liquid_staking6config0pEpNtB5_12ConfigModule19unstake_token_nonceB7_
FN:9,_RNvYpNtNtCsdRzYvL09OST_14liquid_staking6config16EndpointWrappers22call_register_ls_tokenB7_
FN:9,_RNvYpNtNtCsdRzYvL09OST_14liquid_staking6config16EndpointWrappers27call_register_unstake_tokenB7_
FN:9,_RNvYpNtNtCsdRzYvL09OST_14liquid_staking6config16EndpointWrappers21call_set_state_activeB7_
FN:9,_RNvYpNtNtCsdRzYvL09OST_14liquid_staking6config16EndpointWrappers23call_set_state_inactiveB7_
FN:9,_RNvYpNtNtCsdRzYvL09OST_14liquid_staking6config16EndpointWrappers29call_set_accumulator_contractB7_
FN:9,_RNvYpNtNtCsdRzYvL09OST_14liquid_staking6config16EndpointWrappers13call_set_feesB7_
FN:9,_RNvYpNtNtCsdRzYvL09OST_14liquid_staking6config16EndpointWrappers25call_set_rounds_per_epochB7_
FN:9,_RNvYpNtNtCsdRzYvL09OST_14liquid_staking6config16EndpointWrappers23call_set_minimum_roundsB7_
FN:9,_RNvYpNtNtCsdRzYvL09OST_14liquid_staking6config16EndpointWrappers9call_feesB7_
FN:9,_RNvYpNtNtCsdRzYvL09OST_14liquid_staking6config16EndpointWrappers25call_accumulator_contractB7_
FN:9,_RNvYpNtNtCsdRzYvL09OST_14liquid_staking6config16EndpointWrappers21call_rounds_per_epochB7_
FN:9,_RNvYpNtNtCsdRzYvL09OST_14liquid_staking6config16EndpointWrappers19call_minimum_roundsB7_
FN:9,_RNvYpNtNtCsdRzYvL09OST_14liquid_staking6config16EndpointWrappers10call_stateB7_
FN:9,_RNvYpNtNtCsdRzYvL09OST_14liquid_staking6config16EndpointWrappers13call_ls_tokenB7_
FN:9,_RNvYpNtNtCsdRzYvL09OST_14liquid_staking6config16EndpointWrappers20call_ls_token_supplyB7_
FN:9,_RNvYpNtNtCsdRzYvL09OST_14liquid_staking6config16EndpointWrappers25call_virtual_egld_reserveB7_
FN:9,_RNvYpNtNtCsdRzYvL09OST_14liquid_staking6config16EndpointWrappers20call_rewards_reserveB7_
FN:9,_RNvYpNtNtCsdRzYvL09OST_14liquid_staking6config16EndpointWrappers25call_total_withdrawn_egldB7_
FN:9,_RNvYpNtNtCsdRzYvL09OST_14liquid_staking6config16EndpointWrappers18call_unstake_tokenB7_
FN:9,_RNvYpNtNtCsdRzYvL09OST_14liquid_staking6config16EndpointWrappers17call_pending_egldB7_
FN:9,_RNvYpNtNtCsdRzYvL09OST_14liquid_staking6config16EndpointWrappers27call_pending_ls_for_unstakeB7_
FN:9,_RNvYpNtNtCsdRzYvL09OST_14liquid_staking6config16EndpointWrappers24call_unstake_token_nonceB7_
FN:9,_RNvYpNtNtCsdRzYvL09OST_14liquid_staking6config16EndpointWrappers4callB7_
FN:9,_RNvYpNtNtCsdRzYvL09OST_14liquid_staking6config16EndpointWrappers17callback_selectorB7_
FN:9,_RNvYpNtNtCsdRzYvL09OST_14liquid_staking6config16EndpointWrappers8callbackB7_
FN:9,_RNvXs1_NtCsdRzYvL09OST_14liquid_staking6configNtB5_11AbiProviderNtNtNtCs4WmCETBkTZ5_13multiversx_sc13contract_base21contract_abi_provider19ContractAbiProvider3abi
FN:9,_RNvXININtCsdRzYvL09OST_14liquid_staking6configs5_0pEINtB5_11ContractObjpENtNtNtCs4WmCETBkTZ5_13multiversx_sc13contract_base17callable_contract16CallableContract4callB7_
FN:9,_RINvNtCsdRzYvL09OST_14liquid_staking6config12contract_objpEB4_
FN:9,_RINvXs6_NtCsdRzYvL09OST_14liquid_staking6configNtB6_15ContractBuilderNtNtNtCs4WmCETBkTZ5_13multiversx_sc13contract_base17callable_contract23CallableContractBuilder16new_contract_objpEB8_
FN:9,_RINvNtNtCsdRzYvL09OST_14liquid_staking6config19___wasm__endpoints__17register_ls_tokenpEB6_
FN:9,_RINvNtNtCsdRzYvL09OST_14liquid_staking6config19___wasm__endpoints__22register_unstake_tokenpEB6_
FN:9,_RINvNtNtCsdRzYvL09OST_14liquid_staking6config19___wasm__endpoints__16set_state_activepEB6_
FN:9,_RINvNtNtCsdRzYvL09OST_14liquid_staking6config19___wasm__endpoints__18set_state_inactivepEB6_
FN:9,_RINvNtNtCsdRzYvL09OST_14liquid_staking6config19___wasm__endpoints__24set_accumulator_contractpEB6_
FN:9,_RINvNtNtCsdRzYvL09OST_14liquid_staking6config19___wasm__endpoints__8set_feespEB6_
FN:9,_RINvNtNtCsdRzYvL09OST_14liquid_staking6config19___wasm__endpoints__20set_rounds_per_epochpEB6_
FN:9,_RINvNtNtCsdRzYvL09OST_14liquid_staking6config19___wasm__endpoints__18set_minimum_roundspEB6_
FN:9,_RINvNtNtCsdRzYvL09OST_14liquid_staking6config19___wasm__endpoints__4feespEB6_
FN:9,_RINvNtNtCsdRzYvL09OST_14liquid_staking6config19___wasm__endpoints__20accumulator_contractpEB6_
FN:9,_RINvNtNtCsdRzYvL09OST_14liquid_staking6config19___wasm__endpoints__16rounds_per_epochpEB6_
FN:9,_RINvNtNtCsdRzYvL09OST_14liquid_staking6config19___wasm__endpoints__14minimum_roundspEB6_
FN:9,_RINvNtNtCsdRzYvL09OST_14liquid_staking6config19___wasm__endpoints__5statepEB6_
FN:9,_RINvNtNtCsdRzYvL09OST_14liquid_staking6config19___wasm__endpoints__8ls_tokenpEB6_
FN:9,_RINvNtNtCsdRzYvL09OST_14liquid_staking6config19___wasm__endpoints__15ls_token_supplypEB6_
FN:9,_RINvNtNtCsdRzYvL09OST_14liquid_staking6config19___wasm__endpoints__20virtual_egld_reservepEB6_
FN:9,_RINvNtNtCsdRzYvL09OST_14liquid_staking6config19___wasm__endpoints__15rewards_reservepEB6_
FN:9,_RINvNtNtCsdRzYvL09OST_14liquid_staking6config19___wasm__endpoints__20total_withdrawn_egldpEB6_
FN:9,_RINvNtNtCsdRzYvL09OST_14liquid_staking6config19___wasm__endpoints__13unstake_tokenpEB6_
FN:9,_RINvNtNtCsdRzYvL09OST_14liquid_staking6config19___wasm__endpoints__12pending_egldpEB6_
FN:9,_RINvNtNtCsdRzYvL09OST_14liquid_staking6config19___wasm__endpoints__22pending_ls_for_unstakepEB6_
FN:9,_RINvNtNtCsdRzYvL09OST_14liquid_staking6config19___wasm__endpoints__19unstake_token_noncepEB6_
FN:9,_RINvYpNtNtCsdRzYvL09OST_14liquid_staking6config10ProxyTrait17register_ls_tokenpppEB8_
FN:9,_RINvYpNtNtCsdRzYvL09OST_14liquid_staking6config10ProxyTrait22register_unstake_tokenpppEB8_
FN:9,_RNvYpNtNtCsdRzYvL09OST_14liquid_staking6config10ProxyTrait16set_state_activeB7_
FN:9,_RNvYpNtNtCsdRzYvL09OST_14liquid_staking6config10ProxyTrait18set_state_inactiveB7_
FN:9,_RINvYpNtNtCsdRzYvL09OST_14liquid_staking6config10ProxyTrait24set_accumulator_contractpEB8_
FN:9,_RINvYpNtNtCsdRzYvL09OST_14liquid_staking6config10ProxyTrait8set_feespEB8_
FN:9,_RINvYpNtNtCsdRzYvL09OST_14liquid_staking6config10ProxyTrait20set_rounds_per_epochpEB8_
FN:9,_RINvYpNtNtCsdRzYvL09OST_14liquid_staking6config10ProxyTrait18set_minimum_roundspEB8_
FN:9,_RNvYpNtNtCsdRzYvL09OST_14liquid_staking6config10ProxyTrait4feesB7_
FN:9,_RNvYpNtNtCsdRzYvL09OST_14liquid_staking6config10ProxyTrait20accumulator_contractB7_
FN:9,_RNvYpNtNtCsdRzYvL09OST_14liquid_staking6config10ProxyTrait16rounds_per_epochB7_
FN:9,_RNvYpNtNtCsdRzYvL09OST_14liquid_staking6config10ProxyTrait14minimum_roundsB7_
FN:9,_RNvYpNtNtCsdRzYvL09OST_14liquid_staking6config10ProxyTrait5stateB7_
FN:9,_RNvYpNtNtCsdRzYvL09OST_14liquid_staking6config10ProxyTrait8ls_tokenB7_
FN:9,_RNvYpNtNtCsdRzYvL09OST_14liquid_staking6config10ProxyTrait15ls_token_supplyB7_
FN:9,_RNvYpNtNtCsdRzYvL09OST_14liquid_staking6config10ProxyTrait20virtual_egld_reserveB7_
FN:9,_RNvYpNtNtCsdRzYvL09OST_14liquid_staking6config10ProxyTrait15rewards_reserveB7_
FN:9,_RNvYpNtNtCsdRzYvL09OST_14liquid_staking6config10ProxyTrait20total_withdrawn_egldB7_
FN:9,_RNvYpNtNtCsdRzYvL09OST_14liquid_staking6config10ProxyTrait13unstake_tokenB7_
FN:9,_RNvYpNtNtCsdRzYvL09OST_14liquid_staking6config10ProxyTrait12pending_egldB7_
FN:9,_RNvYpNtNtCsdRzYvL09OST_14liquid_staking6config10ProxyTrait22pending_ls_for_unstakeB7_
FN:9,_RINvYpNtNtCsdRzYvL09OST_14liquid_staking6config10ProxyTrait19unstake_token_noncepEB8_
FN:9,_RNvXNtCs2WGRDwQOHLQ_14liquid_staking6configINtB4_11ContractObjINtNtNtNtCseUmQFO6d1K9_22multiversx_sc_scenario3api7impl_vh12vm_hooks_api10VMHooksApiNtNtB13_9debug_api15DebugApiBackendEENtB2_12ConfigModule12pending_egldCsaR2MVHtCDM0_4test
FN:9,_RNvXNtCs2WGRDwQOHLQ_14liquid_staking6configINtB4_11ContractObjINtNtNtNtCseUmQFO6d1K9_22multiversx_sc_scenario3api7impl_vh12vm_hooks_api10VMHooksApiNtNtB13_9debug_api15DebugApiBackendEENtB2_12ConfigModule13unstake_tokenCsaR2MVHtCDM0_4test
FN:9,_RNvXNtCs2WGRDwQOHLQ_14liquid_staking6configINtB4_11ContractObjINtNtNtNtCseUmQFO6d1K9_22multiversx_sc_scenario3api7impl_vh12vm_hooks_api10VMHooksApiNtNtB13_9debug_api15DebugApiBackendEENtB2_12ConfigModule14minimum_roundsCsaR2MVHtCDM0_4test
FN:9,_RNvXNtCs2WGRDwQOHLQ_14liquid_staking6configINtB4_11ContractObjINtNtNtNtCseUmQFO6d1K9_22multiversx_sc_scenario3api7impl_vh12vm_hooks_api10VMHooksApiNtNtB13_9debug_api15DebugApiBackendEENtB2_12ConfigModule15ls_token_supplyCsaR2MVHtCDM0_4test
FN:9,_RNvXNtCs2WGRDwQOHLQ_14liquid_staking6configINtB4_11ContractObjINtNtNtNtCseUmQFO6d1K9_22multiversx_sc_scenario3api7impl_vh12vm_hooks_api10VMHooksApiNtNtB13_9debug_api15DebugApiBackendEENtB2_12ConfigModule15rewards_reserveCsaR2MVHtCDM0_4test
FN:9,_RNvXNtCs2WGRDwQOHLQ_14liquid_staking6configINtB4_11ContractObjINtNtNtNtCseUmQFO6d1K9_22multiversx_sc_scenario3api7impl_vh12vm_hooks_api10VMHooksApiNtNtB13_9debug_api15DebugApiBackendEENtB2_12ConfigModule16rounds_per_epochCsaR2MVHtCDM0_4test
FN:9,_RNvXNtCs2WGRDwQOHLQ_14liquid_staking6configINtB4_11ContractObjINtNtNtNtCseUmQFO6d1K9_22multiversx_sc_scenario3api7impl_vh12vm_hooks_api10VMHooksApiNtNtB13_9debug_api15DebugApiBackendEENtB2_12ConfigModule19unstake_token_nonceCsaR2MVHtCDM0_4test
FN:9,_RNvXNtCs2WGRDwQOHLQ_14liquid_staking6configINtB4_11ContractObjINtNtNtNtCseUmQFO6d1K9_22multiversx_sc_scenario3api7impl_vh12vm_hooks_api10VMHooksApiNtNtB13_9debug_api15DebugApiBackendEENtB2_12ConfigModule20accumulator_contractCsaR2MVHtCDM0_4test
FN:9,_RNvXNtCs2WGRDwQOHLQ_14liquid_staking6configINtB4_11ContractObjINtNtNtNtCseUmQFO6d1K9_22multiversx_sc_scenario3api7impl_vh12vm_hooks_api10VMHooksApiNtNtB13_9debug_api15DebugApiBackendEENtB2_12ConfigModule20total_withdrawn_egldCsaR2MVHtCDM0_4test
FN:9,_RNvXNtCs2WGRDwQOHLQ_14liquid_staking6configINtB4_11ContractObjINtNtNtNtCseUmQFO6d1K9_22multiversx_sc_scenario3api7impl_vh12vm_hooks_api10VMHooksApiNtNtB13_9debug_api15DebugApiBackendEENtB2_12ConfigModule20virtual_egld_reserveCsaR2MVHtCDM0_4test
FN:9,_RNvXNtCs2WGRDwQOHLQ_14liquid_staking6configINtB4_11ContractObjINtNtNtNtCseUmQFO6d1K9_22multiversx_sc_scenario3api7impl_vh12vm_hooks_api10VMHooksApiNtNtB13_9debug_api15DebugApiBackendEENtB2_12ConfigModule22pending_ls_for_unstakeCsaR2MVHtCDM0_4test
FN:9,_RNvXNtCs2WGRDwQOHLQ_14liquid_staking6configINtB4_11ContractObjINtNtNtNtCseUmQFO6d1K9_22multiversx_sc_scenario3api7impl_vh12vm_hooks_api10VMHooksApiNtNtB13_9debug_api15DebugApiBackendEENtB2_12ConfigModule4feesCsaR2MVHtCDM0_4test
FN:9,_RNvXNtCs2WGRDwQOHLQ_14liquid_staking6configINtB4_11ContractObjINtNtNtNtCseUmQFO6d1K9_22multiversx_sc_scenario3api7impl_vh12vm_hooks_api10VMHooksApiNtNtB13_9debug_api15DebugApiBackendEENtB2_12ConfigModule5stateCsaR2MVHtCDM0_4test
FN:9,_RNvXNtCs2WGRDwQOHLQ_14liquid_staking6configINtB4_11ContractObjINtNtNtNtCseUmQFO6d1K9_22multiversx_sc_scenario3api7impl_vh12vm_hooks_api10VMHooksApiNtNtB13_9debug_api15DebugApiBackendEENtB2_12ConfigModule8ls_tokenCsaR2MVHtCDM0_4test
FN:87,_RNvYINtCs2WGRDwQOHLQ_14liquid_staking11ContractObjINtNtNtNtCseUmQFO6d1K9_22multiversx_sc_scenario3api7impl_vh12vm_hooks_api10VMHooksApiNtNtBR_9debug_api15DebugApiBackendEENtNtB5_6config12ConfigModule15is_state_activeCsaR2MVHtCDM0_4test
FN:52,_RNvYINtCs2WGRDwQOHLQ_14liquid_staking11ContractObjINtNtNtNtCseUmQFO6d1K9_22multiversx_sc_scenario3api7impl_vh12vm_hooks_api10VMHooksApiNtNtBR_9debug_api15DebugApiBackendEENtNtB5_6config12ConfigModule16set_state_activeCsaR2MVHtCDM0_4test
FN:19,_RNvYINtCs2WGRDwQOHLQ_14liquid_staking11ContractObjINtNtNtNtCseUmQFO6d1K9_22multiversx_sc_scenario3api7impl_vh12vm_hooks_api10VMHooksApiNtNtBR_9debug_api15DebugApiBackendEENtNtB5_6config12ConfigModule17register_ls_tokenCsaR2MVHtCDM0_4test
FN:82,_RNvYINtCs2WGRDwQOHLQ_14liquid_staking11ContractObjINtNtNtNtCseUmQFO6d1K9_22multiversx_sc_scenario3api7impl_vh12vm_hooks_api10VMHooksApiNtNtBR_9debug_api15DebugApiBackendEENtNtB5_6config12ConfigModule18set_minimum_roundsCsaR2MVHtCDM0_4test
FN:58,_RNvYINtCs2WGRDwQOHLQ_14liquid_staking11ContractObjINtNtNtNtCseUmQFO6d1K9_22multiversx_sc_scenario3api7impl_vh12vm_hooks_api10VMHooksApiNtNtBR_9debug_api15DebugApiBackendEENtNtB5_6config12ConfigModule18set_state_inactiveCsaR2MVHtCDM0_4test
FN:76,_RNvYINtCs2WGRDwQOHLQ_14liquid_staking11ContractObjINtNtNtNtCseUmQFO6d1K9_22multiversx_sc_scenario3api7impl_vh12vm_hooks_api10VMHooksApiNtNtBR_9debug_api15DebugApiBackendEENtNtB5_6config12ConfigModule20set_rounds_per_epochCsaR2MVHtCDM0_4test
FN:38,_RNvYINtCs2WGRDwQOHLQ_14liquid_staking11ContractObjINtNtNtNtCseUmQFO6d1K9_22multiversx_sc_scenario3api7impl_vh12vm_hooks_api10VMHooksApiNtNtBR_9debug_api15DebugApiBackendEENtNtB5_6config12ConfigModule22register_unstake_tokenCsaR2MVHtCDM0_4test
FN:64,_RNvYINtCs2WGRDwQOHLQ_14liquid_staking11ContractObjINtNtNtNtCseUmQFO6d1K9_22multiversx_sc_scenario3api7impl_vh12vm_hooks_api10VMHooksApiNtNtBR_9debug_api15DebugApiBackendEENtNtB5_6config12ConfigModule24set_accumulator_contractCsaR2MVHtCDM0_4test
FN:70,_RNvYINtCs2WGRDwQOHLQ_14liquid_staking11ContractObjINtNtNtNtCseUmQFO6d1K9_22multiversx_sc_scenario3api7impl_vh12vm_hooks_api10VMHooksApiNtNtBR_9debug_api15DebugApiBackendEENtNtB5_6config12ConfigModule8set_feesCsaR2MVHtCDM0_4test
FN:9,_RNvYINtCs2WGRDwQOHLQ_14liquid_staking11ContractObjINtNtNtNtCseUmQFO6d1K9_22multiversx_sc_scenario3api7impl_vh12vm_hooks_api10VMHooksApiNtNtBR_9debug_api15DebugApiBackendEENtNtB5_6config16EndpointWrappers10call_stateCsaR2MVHtCDM0_4test
FN:9,_RNvYINtCs2WGRDwQOHLQ_14liquid_staking11ContractObjINtNtNtNtCseUmQFO6d1K9_22multiversx_sc_scenario3api7impl_vh12vm_hooks_api10VMHooksApiNtNtBR_9debug_api15DebugApiBackendEENtNtB5_6config16EndpointWrappers13call_ls_tokenCsaR2MVHtCDM0_4test
FN:9,_RNvYINtCs2WGRDwQOHLQ_14liquid_staking11ContractObjINtNtNtNtCseUmQFO6d1K9_22multiversx_sc_scenario3api7impl_vh12vm_hooks_api10VMHooksApiNtNtBR_9debug_api15DebugApiBackendEENtNtB5_6config16EndpointWrappers13call_set_feesCsaR2MVHtCDM0_4test
FN:9,_RNvYINtCs2WGRDwQOHLQ_14liquid_staking11ContractObjINtNtNtNtCseUmQFO6d1K9_22multiversx_sc_scenario3api7impl_vh12vm_hooks_api10VMHooksApiNtNtBR_9debug_api15DebugApiBackendEENtNtB5_6config16EndpointWrappers17call_pending_egldCsaR2MVHtCDM0_4test
FN:9,_RNvYINtCs2WGRDwQOHLQ_14liquid_staking11ContractObjINtNtNtNtCseUmQFO6d1K9_22multiversx_sc_scenario3api7impl_vh12vm_hooks_api10VMHooksApiNtNtBR_9debug_api15DebugApiBackendEENtNtB5_6config16EndpointWrappers17callback_selectorCsaR2MVHtCDM0_4test
FN:9,_RNvYINtCs2WGRDwQOHLQ_14liquid_staking11ContractObjINtNtNtNtCseUmQFO6d1K9_22multiversx_sc_scenario3api7impl_vh12vm_hooks_api10VMHooksApiNtNtBR_9debug_api15DebugApiBackendEENtNtB5_6config16EndpointWrappers18call_unstake_tokenCsaR2MVHtCDM0_4test
FN:9,_RNvYINtCs2WGRDwQOHLQ_14liquid_staking11ContractObjINtNtNtNtCseUmQFO6d1K9_22multiversx_sc_scenario3api7impl_vh12vm_hooks_api10VMHooksApiNtNtBR_9debug_api15DebugApiBackendEENtNtB5_6config16EndpointWrappers19call_minimum_roundsCsaR2MVHtCDM0_4test
FN:9,_RNvYINtCs2WGRDwQOHLQ_14liquid_staking11ContractObjINtNtNtNtCseUmQFO6d1K9_22multiversx_sc_scenario3api7impl_vh12vm_hooks_api10VMHooksApiNtNtBR_9debug_api15DebugApiBackendEENtNtB5_6config16EndpointWrappers20call_ls_token_supplyCsaR2MVHtCDM0_4test
FN:9,_RNvYINtCs2WGRDwQOHLQ_14liquid_staking11ContractObjINtNtNtNtCseUmQFO6d1K9_22multiversx_sc_scenario3api7impl_vh12vm_hooks_api10VMHooksApiNtNtBR_9debug_api15DebugApiBackendEENtNtB5_6config16EndpointWrappers20call_rewards_reserveCsaR2MVHtCDM0_4test
FN:9,_RNvYINtCs2WGRDwQOHLQ_14liquid_staking11ContractObjINtNtNtNtCseUmQFO6d1K9_22multiversx_sc_scenario3api7impl_vh12vm_hooks_api10VMHooksApiNtNtBR_9debug_api15DebugApiBackendEENtNtB5_6config16EndpointWrappers21call_rounds_per_epochCsaR2MVHtCDM0_4test
FN:9,_RNvYINtCs2WGRDwQOHLQ_14liquid_staking11ContractObjINtNtNtNtCseUmQFO6d1K9_22multiversx_sc_scenario3api7impl_vh12vm_hooks_api10VMHooksApiNtNtBR_9debug_api15DebugApiBackendEENtNtB5_6config16EndpointWrappers21call_set_state_activeCsaR2MVHtCDM0_4test
FN:9,_RNvYINtCs2WGRDwQOHLQ_14liquid_staking11ContractObjINtNtNtNtCseUmQFO6d1K9_22multiversx_sc_scenario3api7impl_vh12vm_hooks_api10VMHooksApiNtNtBR_9debug_api15DebugApiBackendEENtNtB5_6config16EndpointWrappers22call_register_ls_tokenCsaR2MVHtCDM0_4test
FN:9,_RNvYINtCs2WGRDwQOHLQ_14liquid_staking11ContractObjINtNtNtNtCseUmQFO6d1K9_22multiversx_sc_scenario3api7impl_vh12vm_hooks_api10VMHooksApiNtNtBR_9debug_api15DebugApiBackendEENtNtB5_6config16EndpointWrappers23call_set_minimum_roundsCsaR2MVHtCDM0_4test
FN:9,_RNvYINtCs2WGRDwQOHLQ_14liquid_staking11ContractObjINtNtNtNtCseUmQFO6d1K9_22multiversx_sc_scenario3api7impl_vh12vm_hooks_api10VMHooksApiNtNtBR_9debug_api15DebugApiBackendEENtNtB5_6config16EndpointWrappers23call_set_state_inactiveCsaR2MVHtCDM0_4test
FN:9,_RNvYINtCs2WGRDwQOHLQ_14liquid_staking11ContractObjINtNtNtNtCseUmQFO6d1K9_22multiversx_sc_scenario3api7impl_vh12vm_hooks_api10VMHooksApiNtNtBR_9debug_api15DebugApiBackendEENtNtB5_6config16EndpointWrappers24call_unstake_token_nonceCsaR2MVHtCDM0_4test
FN:9,_RNvYINtCs2WGRDwQOHLQ_14liquid_staking11ContractObjINtNtNtNtCseUmQFO6d1K9_22multiversx_sc_scenario3api7impl_vh12vm_hooks_api10VMHooksApiNtNtBR_9debug_api15DebugApiBackendEENtNtB5_6config16EndpointWrappers25call_accumulator_contractCsaR2MVHtCDM0_4test
FN:9,_RNvYINtCs2WGRDwQOHLQ_14liquid_staking11ContractObjINtNtNtNtCseUmQFO6d1K9_22multiversx_sc_scenario3api7impl_vh12vm_hooks_api10VMHooksApiNtNtBR_9debug_api15DebugApiBackendEENtNtB5_6config16EndpointWrappers25call_set_rounds_per_epochCsaR2MVHtCDM0_4test
FN:9,_RNvYINtCs2WGRDwQOHLQ_14liquid_staking11ContractObjINtNtNtNtCseUmQFO6d1K9_22multiversx_sc_scenario3api7impl_vh12vm_hooks_api10VMHooksApiNtNtBR_9debug_api15DebugApiBackendEENtNtB5_6config16EndpointWrappers25call_total_withdrawn_egldCsaR2MVHtCDM0_4test
FN:9,_RNvYINtCs2WGRDwQOHLQ_14liquid_staking11ContractObjINtNtNtNtCseUmQFO6d1K9_22multiversx_sc_scenario3api7impl_vh12vm_hooks_api10VMHooksApiNtNtBR_9debug_api15DebugApiBackendEENtNtB5_6config16EndpointWrappers25call_virtual_egld_reserveCsaR2MVHtCDM0_4test
FN:9,_RNvYINtCs2WGRDwQOHLQ_14liquid_staking11ContractObjINtNtNtNtCseUmQFO6d1K9_22multiversx_sc_scenario3api7impl_vh12vm_hooks_api10VMHooksApiNtNtBR_9debug_api15DebugApiBackendEENtNtB5_6config16EndpointWrappers27call_pending_ls_for_unstakeCsaR2MVHtCDM0_4test
FN:9,_RNvYINtCs2WGRDwQOHLQ_14liquid_staking11ContractObjINtNtNtNtCseUmQFO6d1K9_22multiversx_sc_scenario3api7impl_vh12vm_hooks_api10VMHooksApiNtNtBR_9debug_api15DebugApiBackendEENtNtB5_6config16EndpointWrappers27call_register_unstake_tokenCsaR2MVHtCDM0_4test
FN:9,_RNvYINtCs2WGRDwQOHLQ_14liquid_staking11ContractObjINtNtNtNtCseUmQFO6d1K9_22multiversx_sc_scenario3api7impl_vh12vm_hooks_api10VMHooksApiNtNtBR_9debug_api15DebugApiBackendEENtNtB5_6config16EndpointWrappers29call_set_accumulator_contractCsaR2MVHtCDM0_4test
FN:9,_RNvYINtCs2WGRDwQOHLQ_14liquid_staking11ContractObjINtNtNtNtCseUmQFO6d1K9_22multiversx_sc_scenario3api7impl_vh12vm_hooks_api10VMHooksApiNtNtBR_9debug_api15DebugApiBackendEENtNtB5_6config16EndpointWrappers4callCsaR2MVHtCDM0_4test
FN:9,_RNvYINtCs2WGRDwQOHLQ_14liquid_staking11ContractObjINtNtNtNtCseUmQFO6d1K9_22multiversx_sc_scenario3api7impl_vh12vm_hooks_api10VMHooksApiNtNtBR_9debug_api15DebugApiBackendEENtNtB5_6config16EndpointWrappers8callbackCsaR2MVHtCDM0_4test
FN:9,_RNvYINtCs2WGRDwQOHLQ_14liquid_staking11ContractObjINtNtNtNtCseUmQFO6d1K9_22multiversx_sc_scenario3api7impl_vh12vm_hooks_api10VMHooksApiNtNtBR_9debug_api15DebugApiBackendEENtNtB5_6config16EndpointWrappers9call_feesCsaR2MVHtCDM0_4test
FN:9,_RNvXNtCs2WGRDwQOHLQ_14liquid_staking6configINtB4_11ContractObjINtNtNtNtCseUmQFO6d1K9_22multiversx_sc_scenario3api7impl_vh12vm_hooks_api10VMHooksApiNtNtB13_9debug_api15DebugApiBackendEENtB2_12ConfigModule12pending_egldCsVH6ELXPoQD_15unDelegate_test
FN:9,_RNvXNtCs2WGRDwQOHLQ_14liquid_staking6configINtB4_11ContractObjINtNtNtNtCseUmQFO6d1K9_22multiversx_sc_scenario3api7impl_vh12vm_hooks_api10VMHooksApiNtNtB13_9debug_api15DebugApiBackendEENtB2_12ConfigModule13unstake_tokenCsVH6ELXPoQD_15unDelegate_test
FN:9,_RNvXNtCs2WGRDwQOHLQ_14liquid_staking6configINtB4_11ContractObjINtNtNtNtCseUmQFO6d1K9_22multiversx_sc_scenario3api7impl_vh12vm_hooks_api10VMHooksApiNtNtB13_9debug_api15DebugApiBackendEENtB2_12ConfigModule14minimum_roundsCsVH6ELXPoQD_15unDelegate_test
FN:9,_RNvXNtCs2WGRDwQOHLQ_14liquid_staking6configINtB4_11ContractObjINtNtNtNtCseUmQFO6d1K9_22multiversx_sc_scenario3api7impl_vh12vm_hooks_api10VMHooksApiNtNtB13_9debug_api15DebugApiBackendEENtB2_12ConfigModule15ls_token_supplyCsVH6ELXPoQD_15unDelegate_test
FN:9,_RNvXNtCs2WGRDwQOHLQ_14liquid_staking6configINtB4_11ContractObjINtNtNtNtCseUmQFO6d1K9_22multiversx_sc_scenario3api7impl_vh12vm_hooks_api10VMHooksApiNtNtB13_9debug_api15DebugApiBackendEENtB2_12ConfigModule15rewards_reserveCsVH6ELXPoQD_15unDelegate_test
FN:9,_RNvXNtCs2WGRDwQOHLQ_14liquid_staking6configINtB4_11ContractObjINtNtNtNtCseUmQFO6d1K9_22multiversx_sc_scenario3api7impl_vh12vm_hooks_api10VMHooksApiNtNtB13_9debug_api15DebugApiBackendEENtB2_12ConfigModule16rounds_per_epochCsVH6ELXPoQD_15unDelegate_test
FN:9,_RNvXNtCs2WGRDwQOHLQ_14liquid_staking6configINtB4_11ContractObjINtNtNtNtCseUmQFO6d1K9_22multiversx_sc_scenario3api7impl_vh12vm_hooks_api10VMHooksApiNtNtB13_9debug_api15DebugApiBackendEENtB2_12ConfigModule19unstake_token_nonceCsVH6ELXPoQD_15unDelegate_test
FN:9,_RNvXNtCs2WGRDwQOHLQ_14liquid_staking6configINtB4_11ContractObjINtNtNtNtCseUmQFO6d1K9_22multiversx_sc_scenario3api7impl_vh12vm_hooks_api10VMHooksApiNtNtB13_9debug_api15DebugApiBackendEENtB2_12ConfigModule20accumulator_contractCsVH6ELXPoQD_15unDelegate_test
FN:9,_RNvXNtCs2WGRDwQOHLQ_14liquid_staking6configINtB4_11ContractObjINtNtNtNtCseUmQFO6d1K9_22multiversx_sc_scenario3api7impl_vh12vm_hooks_api10VMHooksApiNtNtB13_9debug_api15DebugApiBackendEENtB2_12ConfigModule20total_withdrawn_egldCsVH6ELXPoQD_15unDelegate_test
FN:9,_RNvXNtCs2WGRDwQOHLQ_14liquid_staking6configINtB4_11ContractObjINtNtNtNtCseUmQFO6d1K9_22multiversx_sc_scenario3api7impl_vh12vm_hooks_api10VMHooksApiNtNtB13_9debug_api15DebugApiBackendEENtB2_12ConfigModule20virtual_egld_reserveCsVH6ELXPoQD_15unDelegate_test
FN:9,_RNvXNtCs2WGRDwQOHLQ_14liquid_staking6configINtB4_11ContractObjINtNtNtNtCseUmQFO6d1K9_22multiversx_sc_scenario3api7impl_vh12vm_hooks_api10VMHooksApiNtNtB13_9debug_api15DebugApiBackendEENtB2_12ConfigModule22pending_ls_for_unstakeCsVH6ELXPoQD_15unDelegate_test
FN:9,_RNvXNtCs2WGRDwQOHLQ_14liquid_staking6configINtB4_11ContractObjINtNtNtNtCseUmQFO6d1K9_22multiversx_sc_scenario3api7impl_vh12vm_hooks_api10VMHooksApiNtNtB13_9debug_api15DebugApiBackendEENtB2_12ConfigModule4feesCsVH6ELXPoQD_15unDelegate_test
FN:9,_RNvXNtCs2WGRDwQOHLQ_14liquid_staking6configINtB4_11ContractObjINtNtNtNtCseUmQFO6d1K9_22multiversx_sc_scenario3api7impl_vh12vm_hooks_api10VMHooksApiNtNtB13_9debug_api15DebugApiBackendEENtB2_12ConfigModule5stateCsVH6ELXPoQD_15unDelegate_test
FN:9,_RNvXNtCs2WGRDwQOHLQ_14liquid_staking6configINtB4_11ContractObjINtNtNtNtCseUmQFO6d1K9_22multiversx_sc_scenario3api7impl_vh12vm_hooks_api10VMHooksApiNtNtB13_9debug_api15DebugApiBackendEENtB2_12ConfigModule8ls_tokenCsVH6ELXPoQD_15unDelegate_test
FN:87,_RNvYINtCs2WGRDwQOHLQ_14liquid_staking11ContractObjINtNtNtNtCseUmQFO6d1K9_22multiversx_sc_scenario3api7impl_vh12vm_hooks_api10VMHooksApiNtNtBR_9debug_api15DebugApiBackendEENtNtB5_6config12ConfigModule15is_state_activeCsVH6ELXPoQD_15unDelegate_test
FN:52,_RNvYINtCs2WGRDwQOHLQ_14liquid_staking11ContractObjINtNtNtNtCseUmQFO6d1K9_22multiversx_sc_scenario3api7impl_vh12vm_hooks_api10VMHooksApiNtNtBR_9debug_api15DebugApiBackendEENtNtB5_6config12ConfigModule16set_state_activeCsVH6ELXPoQD_15unDelegate_test
FN:19,_RNvYINtCs2WGRDwQOHLQ_14liquid_staking11ContractObjINtNtNtNtCseUmQFO6d1K9_22multiversx_sc_scenario3api7impl_vh12vm_hooks_api10VMHooksApiNtNtBR_9debug_api15DebugApiBackendEENtNtB5_6config12ConfigModule17register_ls_tokenCsVH6ELXPoQD_15unDelegate_test
FN:82,_RNvYINtCs2WGRDwQOHLQ_14liquid_staking11ContractObjINtNtNtNtCseUmQFO6d1K9_22multiversx_sc_scenario3api7impl_vh12vm_hooks_api10VMHooksApiNtNtBR_9debug_api15DebugApiBackendEENtNtB5_6config12ConfigModule18set_minimum_roundsCsVH6ELXPoQD_15unDelegate_test
FN:58,_RNvYINtCs2WGRDwQOHLQ_14liquid_staking11ContractObjINtNtNtNtCseUmQFO6d1K9_22multiversx_sc_scenario3api7impl_vh12vm_hooks_api10VMHooksApiNtNtBR_9debug_api15DebugApiBackendEENtNtB5_6config12ConfigModule18set_state_inactiveCsVH6ELXPoQD_15unDelegate_test
FN:76,_RNvYINtCs2WGRDwQOHLQ_14liquid_staking11ContractObjINtNtNtNtCseUmQFO6d1K9_22multiversx_sc_scenario3api7impl_vh12vm_hooks_api10VMHooksApiNtNtBR_9debug_api15DebugApiBackendEENtNtB5_6config12ConfigModule20set_rounds_per_epochCsVH6ELXPoQD_15unDelegate_test
FN:38,_RNvYINtCs2WGRDwQOHLQ_14liquid_staking11ContractObjINtNtNtNtCseUmQFO6d1K9_22multiversx_sc_scenario3api7impl_vh12vm_hooks_api10VMHooksApiNtNtBR_9debug_api15DebugApiBackendEENtNtB5_6config12ConfigModule22register_unstake_tokenCsVH6ELXPoQD_15unDelegate_test
FN:64,_RNvYINtCs2WGRDwQOHLQ_14liquid_staking11ContractObjINtNtNtNtCseUmQFO6d1K9_22multiversx_sc_scenario3api7impl_vh12vm_hooks_api10VMHooksApiNtNtBR_9debug_api15DebugApiBackendEENtNtB5_6config12ConfigModule24set_accumulator_contractCsVH6ELXPoQD_15unDelegate_test
FN:70,_RNvYINtCs2WGRDwQOHLQ_14liquid_staking11ContractObjINtNtNtNtCseUmQFO6d1K9_22multiversx_sc_scenario3api7impl_vh12vm_hooks_api10VMHooksApiNtNtBR_9debug_api15DebugApiBackendEENtNtB5_6config12ConfigModule8set_feesCsVH6ELXPoQD_15unDelegate_test
FN:9,_RNvYINtCs2WGRDwQOHLQ_14liquid_staking11ContractObjINtNtNtNtCseUmQFO6d1K9_22multiversx_sc_scenario3api7impl_vh12vm_hooks_api10VMHooksApiNtNtBR_9debug_api15DebugApiBackendEENtNtB5_6config16EndpointWrappers10call_stateCsVH6ELXPoQD_15unDelegate_test
FN:9,_RNvYINtCs2WGRDwQOHLQ_14liquid_staking11ContractObjINtNtNtNtCseUmQFO6d1K9_22multiversx_sc_scenario3api7impl_vh12vm_hooks_api10VMHooksApiNtNtBR_9debug_api15DebugApiBackendEENtNtB5_6config16EndpointWrappers13call_ls_tokenCsVH6ELXPoQD_15unDelegate_test
FN:9,_RNvYINtCs2WGRDwQOHLQ_14liquid_staking11ContractObjINtNtNtNtCseUmQFO6d1K9_22multiversx_sc_scenario3api7impl_vh12vm_hooks_api10VMHooksApiNtNtBR_9debug_api15DebugApiBackendEENtNtB5_6config16EndpointWrappers13call_set_feesCsVH6ELXPoQD_15unDelegate_test
FN:9,_RNvYINtCs2WGRDwQOHLQ_14liquid_staking11ContractObjINtNtNtNtCseUmQFO6d1K9_22multiversx_sc_scenario3api7impl_vh12vm_hooks_api10VMHooksApiNtNtBR_9debug_api15DebugApiBackendEENtNtB5_6config16EndpointWrappers17call_pending_egldCsVH6ELXPoQD_15unDelegate_test
FN:9,_RNvYINtCs2WGRDwQOHLQ_14liquid_staking11ContractObjINtNtNtNtCseUmQFO6d1K9_22multiversx_sc_scenario3api7impl_vh12vm_hooks_api10VMHooksApiNtNtBR_9debug_api15DebugApiBackendEENtNtB5_6config16EndpointWrappers17callback_selectorCsVH6ELXPoQD_15unDelegate_test
FN:9,_RNvYINtCs2WGRDwQOHLQ_14liquid_staking11ContractObjINtNtNtNtCseUmQFO6d1K9_22multiversx_sc_scenario3api7impl_vh12vm_hooks_api10VMHooksApiNtNtBR_9debug_api15DebugApiBackendEENtNtB5_6config16EndpointWrappers18call_unstake_tokenCsVH6ELXPoQD_15unDelegate_test
FN:9,_RNvYINtCs2WGRDwQOHLQ_14liquid_staking11ContractObjINtNtNtNtCseUmQFO6d1K9_22multiversx_sc_scenario3api7impl_vh12vm_hooks_api10VMHooksApiNtNtBR_9debug_api15DebugApiBackendEENtNtB5_6config16EndpointWrappers19call_minimum_roundsCsVH6ELXPoQD_15unDelegate_test
FN:9,_RNvYINtCs2WGRDwQOHLQ_14liquid_staking11ContractObjINtNtNtNtCseUmQFO6d1K9_22multiversx_sc_scenario3api7impl_vh12vm_hooks_api10VMHooksApiNtNtBR_9debug_api15DebugApiBackendEENtNtB5_6config16EndpointWrappers20call_ls_token_supplyCsVH6ELXPoQD_15unDelegate_test
FN:9,_RNvYINtCs2WGRDwQOHLQ_14liquid_staking11ContractObjINtNtNtNtCseUmQFO6d1K9_22multiversx_sc_scenario3api7impl_vh12vm_hooks_api10VMHooksApiNtNtBR_9debug_api15DebugApiBackendEENtNtB5_6config16EndpointWrappers20call_rewards_reserveCsVH6ELXPoQD_15unDelegate_test
FN:9,_RNvYINtCs2WGRDwQOHLQ_14liquid_staking11ContractObjINtNtNtNtCseUmQFO6d1K9_22multiversx_sc_scenario3api7impl_vh12vm_hooks_api10VMHooksApiNtNtBR_9debug_api15DebugApiBackendEENtNtB5_6config16EndpointWrappers21call_rounds_per_epochCsVH6ELXPoQD_15unDelegate_test
FN:9,_RNvYINtCs2WGRDwQOHLQ_14liquid_staking11ContractObjINtNtNtNtCseUmQFO6d1K9_22multiversx_sc_scenario3api7impl_vh12vm_hooks_api10VMHooksApiNtNtBR_9debug_api15DebugApiBackendEENtNtB5_6config16EndpointWrappers21call_set_state_activeCsVH6ELXPoQD_15unDelegate_test
FN:9,_RNvYINtCs2WGRDwQOHLQ_14liquid_staking11ContractObjINtNtNtNtCseUmQFO6d1K9_22multiversx_sc_scenario3api7impl_vh12vm_hooks_api10VMHooksApiNtNtBR_9debug_api15DebugApiBackendEENtNtB5_6config16EndpointWrappers22call_register_ls_tokenCsVH6ELXPoQD_15unDelegate_test
FN:9,_RNvYINtCs2WGRDwQOHLQ_14liquid_staking11ContractObjINtNtNtNtCseUmQFO6d1K9_22multiversx_sc_scenario3api7impl_vh12vm_hooks_api10VMHooksApiNtNtBR_9debug_api15DebugApiBackendEENtNtB5_6config16EndpointWrappers23call_set_minimum_roundsCsVH6ELXPoQD_15unDelegate_test
FN:9,_RNvYINtCs2WGRDwQOHLQ_14liquid_staking11ContractObjINtNtNtNtCseUmQFO6d1K9_22multiversx_sc_scenario3api7impl_vh12vm_hooks_api10VMHooksApiNtNtBR_9debug_api15DebugApiBackendEENtNtB5_6config16EndpointWrappers23call_set_state_inactiveCsVH6ELXPoQD_15unDelegate_test
FN:9,_RNvYINtCs2WGRDwQOHLQ_14liquid_staking11ContractObjINtNtNtNtCseUmQFO6d1K9_22multiversx_sc_scenario3api7impl_vh12vm_hooks_api10VMHooksApiNtNtBR_9debug_api15DebugApiBackendEENtNtB5_6config16EndpointWrappers24call_unstake_token_nonceCsVH6ELXPoQD_15unDelegate_test
FN:9,_RNvYINtCs2WGRDwQOHLQ_14liquid_staking11ContractObjINtNtNtNtCseUmQFO6d1K9_22multiversx_sc_scenario3api7impl_vh12vm_hooks_api10VMHooksApiNtNtBR_9debug_api15DebugApiBackendEENtNtB5_6config16EndpointWrappers25call_accumulator_contractCsVH6ELXPoQD_15unDelegate_test
FN:9,_RNvYINtCs2WGRDwQOHLQ_14liquid_staking11ContractObjINtNtNtNtCseUmQFO6d1K9_22multiversx_sc_scenario3api7impl_vh12vm_hooks_api10VMHooksApiNtNtBR_9debug_api15DebugApiBackendEENtNtB5_6config16EndpointWrappers25call_set_rounds_per_epochCsVH6ELXPoQD_15unDelegate_test
FN:9,_RNvYINtCs2WGRDwQOHLQ_14liquid_staking11ContractObjINtNtNtNtCseUmQFO6d1K9_22multiversx_sc_scenario3api7impl_vh12vm_hooks_api10VMHooksApiNtNtBR_9debug_api15DebugApiBackendEENtNtB5_6config16EndpointWrappers25call_total_withdrawn_egldCsVH6ELXPoQD_15unDelegate_test
FN:9,_RNvYINtCs2WGRDwQOHLQ_14liquid_staking11ContractObjINtNtNtNtCseUmQFO6d1K9_22multiversx_sc_scenario3api7impl_vh12vm_hooks_api10VMHooksApiNtNtBR_9debug_api15DebugApiBackendEENtNtB5_6config16EndpointWrappers25call_virtual_egld_reserveCsVH6ELXPoQD_15unDelegate_test
FN:9,_RNvYINtCs2WGRDwQOHLQ_14liquid_staking11ContractObjINtNtNtNtCseUmQFO6d1K9_22multiversx_sc_scenario3api7impl_vh12vm_hooks_api10VMHooksApiNtNtBR_9debug_api15DebugApiBackendEENtNtB5_6config16EndpointWrappers27call_pending_ls_for_unstakeCsVH6ELXPoQD_15unDelegate_test
FN:9,_RNvYINtCs2WGRDwQOHLQ_14liquid_staking11ContractObjINtNtNtNtCseUmQFO6d1K9_22multiversx_sc_scenario3api7impl_vh12vm_hooks_api10VMHooksApiNtNtBR_9debug_api15DebugApiBackendEENtNtB5_6config16EndpointWrappers27call_register_unstake_tokenCsVH6ELXPoQD_15unDelegate_test
FN:9,_RNvYINtCs2WGRDwQOHLQ_14liquid_staking11ContractObjINtNtNtNtCseUmQFO6d1K9_22multiversx_sc_scenario3api7impl_vh12vm_hooks_api10VMHooksApiNtNtBR_9debug_api15DebugApiBackendEENtNtB5_6config16EndpointWrappers29call_set_accumulator_contractCsVH6ELXPoQD_15unDelegate_test
FN:9,_RNvYINtCs2WGRDwQOHLQ_14liquid_staking11ContractObjINtNtNtNtCseUmQFO6d1K9_22multiversx_sc_scenario3api7impl_vh12vm_hooks_api10VMHooksApiNtNtBR_9debug_api15DebugApiBackendEENtNtB5_6config16EndpointWrappers4callCsVH6ELXPoQD_15unDelegate_test
FN:9,_RNvYINtCs2WGRDwQOHLQ_14liquid_staking11ContractObjINtNtNtNtCseUmQFO6d1K9_22multiversx_sc_scenario3api7impl_vh12vm_hooks_api10VMHooksApiNtNtBR_9debug_api15DebugApiBackendEENtNtB5_6config16EndpointWrappers8callbackCsVH6ELXPoQD_15unDelegate_test
FN:9,_RNvYINtCs2WGRDwQOHLQ_14liquid_staking11ContractObjINtNtNtNtCseUmQFO6d1K9_22multiversx_sc_scenario3api7impl_vh12vm_hooks_api10VMHooksApiNtNtBR_9debug_api15DebugApiBackendEENtNtB5_6config16EndpointWrappers9call_feesCsVH6ELXPoQD_15unDelegate_test
FN:9,_RNvXNtCs2WGRDwQOHLQ_14liquid_staking6configINtB4_11ContractObjINtNtNtNtCseUmQFO6d1K9_22multiversx_sc_scenario3api7impl_vh12vm_hooks_api10VMHooksApiNtNtB13_9debug_api15DebugApiBackendEENtB2_12ConfigModule12pending_egldCshHwHQpnfuGH_11unbond_test
FN:9,_RNvXNtCs2WGRDwQOHLQ_14liquid_staking6configINtB4_11ContractObjINtNtNtNtCseUmQFO6d1K9_22multiversx_sc_scenario3api7impl_vh12vm_hooks_api10VMHooksApiNtNtB13_9debug_api15DebugApiBackendEENtB2_12ConfigModule13unstake_tokenCshHwHQpnfuGH_11unbond_test
FN:9,_RNvXNtCs2WGRDwQOHLQ_14liquid_staking6configINtB4_11ContractObjINtNtNtNtCseUmQFO6d1K9_22multiversx_sc_scenario3api7impl_vh12vm_hooks_api10VMHooksApiNtNtB13_9debug_api15DebugApiBackendEENtB2_12ConfigModule14minimum_roundsCshHwHQpnfuGH_11unbond_test
FN:9,_RNvXNtCs2WGRDwQOHLQ_14liquid_staking6configINtB4_11ContractObjINtNtNtNtCseUmQFO6d1K9_22multiversx_sc_scenario3api7impl_vh12vm_hooks_api10VMHooksApiNtNtB13_9debug_api15DebugApiBackendEENtB2_12ConfigModule15ls_token_supplyCshHwHQpnfuGH_11unbond_test
FN:9,_RNvXNtCs2WGRDwQOHLQ_14liquid_staking6configINtB4_11ContractObjINtNtNtNtCseUmQFO6d1K9_22multiversx_sc_scenario3api7impl_vh12vm_hooks_api10VMHooksApiNtNtB13_9debug_api15DebugApiBackendEENtB2_12ConfigModule15rewards_reserveCshHwHQpnfuGH_11unbond_test
FN:9,_RNvXNtCs2WGRDwQOHLQ_14liquid_staking6configINtB4_11ContractObjINtNtNtNtCseUmQFO6d1K9_22multiversx_sc_scenario3api7impl_vh12vm_hooks_api10VMHooksApiNtNtB13_9debug_api15DebugApiBackendEENtB2_12ConfigModule16rounds_per_epochCshHwHQpnfuGH_11unbond_test
FN:9,_RNvXNtCs2WGRDwQOHLQ_14liquid_staking6configINtB4_11ContractObjINtNtNtNtCseUmQFO6d1K9_22multiversx_sc_scenario3api7impl_vh12vm_hooks_api10VMHooksApiNtNtB13_9debug_api15DebugApiBackendEENtB2_12ConfigModule19unstake_token_nonceCshHwHQpnfuGH_11unbond_test
FN:9,_RNvXNtCs2WGRDwQOHLQ_14liquid_staking6configINtB4_11ContractObjINtNtNtNtCseUmQFO6d1K9_22multiversx_sc_scenario3api7impl_vh12vm_hooks_api10VMHooksApiNtNtB13_9debug_api15DebugApiBackendEENtB2_12ConfigModule20accumulator_contractCshHwHQpnfuGH_11unbond_test
FN:9,_RNvXNtCs2WGRDwQOHLQ_14liquid_staking6configINtB4_11ContractObjINtNtNtNtCseUmQFO6d1K9_22multiversx_sc_scenario3api7impl_vh12vm_hooks_api10VMHooksApiNtNtB13_9debug_api15DebugApiBackendEENtB2_12ConfigModule20total_withdrawn_egldCshHwHQpnfuGH_11unbond_test
FN:9,_RNvXNtCs2WGRDwQOHLQ_14liquid_staking6configINtB4_11ContractObjINtNtNtNtCseUmQFO6d1K9_22multiversx_sc_scenario3api7impl_vh12vm_hooks_api10VMHooksApiNtNtB13_9debug_api15DebugApiBackendEENtB2_12ConfigModule20virtual_egld_reserveCshHwHQpnfuGH_11unbond_test
FN:9,_RNvXNtCs2WGRDwQOHLQ_14liquid_staking6configINtB4_11ContractObjINtNtNtNtCseUmQFO6d1K9_22multiversx_sc_scenario3api7impl_vh12vm_hooks_api10VMHooksApiNtNtB13_9debug_api15DebugApiBackendEENtB2_12ConfigModule22pending_ls_for_unstakeCshHwHQpnfuGH_11unbond_test
FN:9,_RNvXNtCs2WGRDwQOHLQ_14liquid_staking6configINtB4_11ContractObjINtNtNtNtCseUmQFO6d1K9_22multiversx_sc_scenario3api7impl_vh12vm_hooks_api10VMHooksApiNtNtB13_9debug_api15DebugApiBackendEENtB2_12ConfigModule4feesCshHwHQpnfuGH_11unbond_test
FN:9,_RNvXNtCs2WGRDwQOHLQ_14liquid_staking6configINtB4_11ContractObjINtNtNtNtCseUmQFO6d1K9_22multiversx_sc_scenario3api7impl_vh12vm_hooks_api10VMHooksApiNtNtB13_9debug_api15DebugApiBackendEENtB2_12ConfigModule5stateCshHwHQpnfuGH_11unbond_test
FN:9,_RNvXNtCs2WGRDwQOHLQ_14liquid_staking6configINtB4_11ContractObjINtNtNtNtCseUmQFO6d1K9_22multiversx_sc_scenario3api7impl_vh12vm_hooks_api10VMHooksApiNtNtB13_9debug_api15DebugApiBackendEENtB2_12ConfigModule8ls_tokenCshHwHQpnfuGH_11unbond_test
FN:87,_RNvYINtCs2WGRDwQOHLQ_14liquid_staking11ContractObjINtNtNtNtCseUmQFO6d1K9_22multiversx_sc_scenario3api7impl_vh12vm_hooks_api10VMHooksApiNtNtBR_9debug_api15DebugApiBackendEENtNtB5_6config12ConfigModule15is_state_activeCshHwHQpnfuGH_11unbond_test
FN:52,_RNvYINtCs2WGRDwQOHLQ_14liquid_staking11ContractObjINtNtNtNtCseUmQFO6d1K9_22multiversx_sc_scenario3api7impl_vh12vm_hooks_api10VMHooksApiNtNtBR_9debug_api15DebugApiBackendEENtNtB5_6config12ConfigModule16set_state_activeCshHwHQpnfuGH_11unbond_test
FN:19,_RNvYINtCs2WGRDwQOHLQ_14liquid_staking11ContractObjINtNtNtNtCseUmQFO6d1K9_22multiversx_sc_scenario3api7impl_vh12vm_hooks_api10VMHooksApiNtNtBR_9debug_api15DebugApiBackendEENtNtB5_6config12ConfigModule17register_ls_tokenCshHwHQpnfuGH_11unbond_test
FN:82,_RNvYINtCs2WGRDwQOHLQ_14liquid_staking11ContractObjINtNtNtNtCseUmQFO6d1K9_22multiversx_sc_scenario3api7impl_vh12vm_hooks_api10VMHooksApiNtNtBR_9debug_api15DebugApiBackendEENtNtB5_6config12ConfigModule18set_minimum_roundsCshHwHQpnfuGH_11unbond_test
FN:58,_RNvYINtCs2WGRDwQOHLQ_14liquid_staking11ContractObjINtNtNtNtCseUmQFO6d1K9_22multiversx_sc_scenario3api7impl_vh12vm_hooks_api10VMHooksApiNtNtBR_9debug_api15DebugApiBackendEENtNtB5_6config12ConfigModule18set_state_inactiveCshHwHQpnfuGH_11unbond_test
FN:76,_RNvYINtCs2WGRDwQOHLQ_14liquid_staking11ContractObjINtNtNtNtCseUmQFO6d1K9_22multiversx_sc_scenario3api7impl_vh12vm_hooks_api10VMHooksApiNtNtBR_9debug_api15DebugApiBackendEENtNtB5_6config12ConfigModule20set_rounds_per_epochCshHwHQpnfuGH_11unbond_test
FN:38,_RNvYINtCs2WGRDwQOHLQ_14liquid_staking11ContractObjINtNtNtNtCseUmQFO6d1K9_22multiversx_sc_scenario3api7impl_vh12vm_hooks_api10VMHooksApiNtNtBR_9debug_api15DebugApiBackendEENtNtB5_6config12ConfigModule22register_unstake_tokenCshHwHQpnfuGH_11unbond_test
FN:64,_RNvYINtCs2WGRDwQOHLQ_14liquid_staking11ContractObjINtNtNtNtCseUmQFO6d1K9_22multiversx_sc_scenario3api7impl_vh12vm_hooks_api10VMHooksApiNtNtBR_9debug_api15DebugApiBackendEENtNtB5_6config12ConfigModule24set_accumulator_contractCshHwHQpnfuGH_11unbond_test
FN:70,_RNvYINtCs2WGRDwQOHLQ_14liquid_staking11ContractObjINtNtNtNtCseUmQFO6d1K9_22multiversx_sc_scenario3api7impl_vh12vm_hooks_api10VMHooksApiNtNtBR_9debug_api15DebugApiBackendEENtNtB5_6config12ConfigModule8set_feesCshHwHQpnfuGH_11unbond_test
FN:9,_RNvYINtCs2WGRDwQOHLQ_14liquid_staking11ContractObjINtNtNtNtCseUmQFO6d1K9_22multiversx_sc_scenario3api7impl_vh12vm_hooks_api10VMHooksApiNtNtBR_9debug_api15DebugApiBackendEENtNtB5_6config16EndpointWrappers10call_stateCshHwHQpnfuGH_11unbond_test
FN:9,_RNvYINtCs2WGRDwQOHLQ_14liquid_staking11ContractObjINtNtNtNtCseUmQFO6d1K9_22multiversx_sc_scenario3api7impl_vh12vm_hooks_api10VMHooksApiNtNtBR_9debug_api15DebugApiBackendEENtNtB5_6config16EndpointWrappers13call_ls_tokenCshHwHQpnfuGH_11unbond_test
FN:9,_RNvYINtCs2WGRDwQOHLQ_14liquid_staking11ContractObjINtNtNtNtCseUmQFO6d1K9_22multiversx_sc_scenario3api7impl_vh12vm_hooks_api10VMHooksApiNtNtBR_9debug_api15DebugApiBackendEENtNtB5_6config16EndpointWrappers13call_set_feesCshHwHQpnfuGH_11unbond_test
FN:9,_RNvYINtCs2WGRDwQOHLQ_14liquid_staking11ContractObjINtNtNtNtCseUmQFO6d1K9_22multiversx_sc_scenario3api7impl_vh12vm_hooks_api10VMHooksApiNtNtBR_9debug_api15DebugApiBackendEENtNtB5_6config16EndpointWrappers17call_pending_egldCshHwHQpnfuGH_11unbond_test
FN:9,_RNvYINtCs2WGRDwQOHLQ_14liquid_staking11ContractObjINtNtNtNtCseUmQFO6d1K9_22multiversx_sc_scenario3api7impl_vh12vm_hooks_api10VMHooksApiNtNtBR_9debug_api15DebugApiBackendEENtNtB5_6config16EndpointWrappers17callback_selectorCshHwHQpnfuGH_11unbond_test
FN:9,_RNvYINtCs2WGRDwQOHLQ_14liquid_staking11ContractObjINtNtNtNtCseUmQFO6d1K9_22multiversx_sc_scenario3api7impl_vh12vm_hooks_api10VMHooksApiNtNtBR_9debug_api15DebugApiBackendEENtNtB5_6config16EndpointWrappers18call_unstake_tokenCshHwHQpnfuGH_11unbond_test
FN:9,_RNvYINtCs2WGRDwQOHLQ_14liquid_staking11ContractObjINtNtNtNtCseUmQFO6d1K9_22multiversx_sc_scenario3api7impl_vh12vm_hooks_api10VMHooksApiNtNtBR_9debug_api15DebugApiBackendEENtNtB5_6config16EndpointWrappers19call_minimum_roundsCshHwHQpnfuGH_11unbond_test
FN:9,_RNvYINtCs2WGRDwQOHLQ_14liquid_staking11ContractObjINtNtNtNtCseUmQFO6d1K9_22multiversx_sc_scenario3api7impl_vh12vm_hooks_api10VMHooksApiNtNtBR_9debug_api15DebugApiBackendEENtNtB5_6config16EndpointWrappers20call_ls_token_supplyCshHwHQpnfuGH_11unbond_test
FN:9,_RNvYINtCs2WGRDwQOHLQ_14liquid_staking11ContractObjINtNtNtNtCseUmQFO6d1K9_22multiversx_sc_scenario3api7impl_vh12vm_hooks_api10VMHooksApiNtNtBR_9debug_api15DebugApiBackendEENtNtB5_6config16EndpointWrappers20call_rewards_reserveCshHwHQpnfuGH_11unbond_test
FN:9,_RNvYINtCs2WGRDwQOHLQ_14liquid_staking11ContractObjINtNtNtNtCseUmQFO6d1K9_22multiversx_sc_scenario3api7impl_vh12vm_hooks_api10VMHooksApiNtNtBR_9debug_api15DebugApiBackendEENtNtB5_6config16EndpointWrappers21call_rounds_per_epochCshHwHQpnfuGH_11unbond_test
FN:9,_RNvYINtCs2WGRDwQOHLQ_14liquid_staking11ContractObjINtNtNtNtCseUmQFO6d1K9_22multiversx_sc_scenario3api7impl_vh12vm_hooks_api10VMHooksApiNtNtBR_9debug_api15DebugApiBackendEENtNtB5_6config16EndpointWrappers21call_set_state_activeCshHwHQpnfuGH_11unbond_test
FN:9,_RNvYINtCs2WGRDwQOHLQ_14liquid_staking11ContractObjINtNtNtNtCseUmQFO6d1K9_22multiversx_sc_scenario3api7impl_vh12vm_hooks_api10VMHooksApiNtNtBR_9debug_api15DebugApiBackendEENtNtB5_6config16EndpointWrappers22call_register_ls_tokenCshHwHQpnfuGH_11unbond_test
FN:9,_RNvYINtCs2WGRDwQOHLQ_14liquid_staking11ContractObjINtNtNtNtCseUmQFO6d1K9_22multiversx_sc_scenario3api7impl_vh12vm_hooks_api10VMHooksApiNtNtBR_9debug_api15DebugApiBackendEENtNtB5_6config16EndpointWrappers23call_set_minimum_roundsCshHwHQpnfuGH_11unbond_test
FN:9,_RNvYINtCs2WGRDwQOHLQ_14liquid_staking11ContractObjINtNtNtNtCseUmQFO6d1K9_22multiversx_sc_scenario3api7impl_vh12vm_hooks_api10VMHooksApiNtNtBR_9debug_api15DebugApiBackendEENtNtB5_6config16EndpointWrappers23call_set_state_inactiveCshHwHQpnfuGH_11unbond_test
FN:9,_RNvYINtCs2WGRDwQOHLQ_14liquid_staking11ContractObjINtNtNtNtCseUmQFO6d1K9_22multiversx_sc_scenario3api7impl_vh12vm_hooks_api10VMHooksApiNtNtBR_9debug_api15DebugApiBackendEENtNtB5_6config16EndpointWrappers24call_unstake_token_nonceCshHwHQpnfuGH_11unbond_test
FN:9,_RNvYINtCs2WGRDwQOHLQ_14liquid_staking11ContractObjINtNtNtNtCseUmQFO6d1K9_22multiversx_sc_scenario3api7impl_vh12vm_hooks_api10VMHooksApiNtNtBR_9debug_api15DebugApiBackendEENtNtB5_6config16EndpointWrappers25call_accumulator_contractCshHwHQpnfuGH_11unbond_test
FN:9,_RNvYINtCs2WGRDwQOHLQ_14liquid_staking11ContractObjINtNtNtNtCseUmQFO6d1K9_22multiversx_sc_scenario3api7impl_vh12vm_hooks_api10VMHooksApiNtNtBR_9debug_api15DebugApiBackendEENtNtB5_6config16EndpointWrappers25call_set_rounds_per_epochCshHwHQpnfuGH_11unbond_test
FN:9,_RNvYINtCs2WGRDwQOHLQ_14liquid_staking11ContractObjINtNtNtNtCseUmQFO6d1K9_22multiversx_sc_scenario3api7impl_vh12vm_hooks_api10VMHooksApiNtNtBR_9debug_api15DebugApiBackendEENtNtB5_6config16EndpointWrappers25call_total_withdrawn_egldCshHwHQpnfuGH_11unbond_test
FN:9,_RNvYINtCs2WGRDwQOHLQ_14liquid_staking11ContractObjINtNtNtNtCseUmQFO6d1K9_22multiversx_sc_scenario3api7impl_vh12vm_hooks_api10VMHooksApiNtNtBR_9debug_api15DebugApiBackendEENtNtB5_6config16EndpointWrappers25call_virtual_egld_reserveCshHwHQpnfuGH_11unbond_test
FN:9,_RNvYINtCs2WGRDwQOHLQ_14liquid_staking11ContractObjINtNtNtNtCseUmQFO6d1K9_22multiversx_sc_scenario3api7impl_vh12vm_hooks_api10VMHooksApiNtNtBR_9debug_api15DebugApiBackendEENtNtB5_6config16EndpointWrappers27call_pending_ls_for_unstakeCshHwHQpnfuGH_11unbond_test
FN:9,_RNvYINtCs2WGRDwQOHLQ_14liquid_staking11ContractObjINtNtNtNtCseUmQFO6d1K9_22multiversx_sc_scenario3api7impl_vh12vm_hooks_api10VMHooksApiNtNtBR_9debug_api15DebugApiBackendEENtNtB5_6config16EndpointWrappers27call_register_unstake_tokenCshHwHQpnfuGH_11unbond_test
FN:9,_RNvYINtCs2WGRDwQOHLQ_14liquid_staking11ContractObjINtNtNtNtCseUmQFO6d1K9_22multiversx_sc_scenario3api7impl_vh12vm_hooks_api10VMHooksApiNtNtBR_9debug_api15DebugApiBackendEENtNtB5_6config16EndpointWrappers29call_set_accumulator_contractCshHwHQpnfuGH_11unbond_test
FN:9,_RNvYINtCs2WGRDwQOHLQ_14liquid_staking11ContractObjINtNtNtNtCseUmQFO6d1K9_22multiversx_sc_scenario3api7impl_vh12vm_hooks_api10VMHooksApiNtNtBR_9debug_api15DebugApiBackendEENtNtB5_6config16EndpointWrappers4callCshHwHQpnfuGH_11unbond_test
FN:9,_RNvYINtCs2WGRDwQOHLQ_14liquid_staking11ContractObjINtNtNtNtCseUmQFO6d1K9_22multiversx_sc_scenario3api7impl_vh12vm_hooks_api10VMHooksApiNtNtBR_9debug_api15DebugApiBackendEENtNtB5_6config16EndpointWrappers8callbackCshHwHQpnfuGH_11unbond_test
FN:9,_RNvYINtCs2WGRDwQOHLQ_14liquid_staking11ContractObjINtNtNtNtCseUmQFO6d1K9_22multiversx_sc_scenario3api7impl_vh12vm_hooks_api10VMHooksApiNtNtBR_9debug_api15DebugApiBackendEENtNtB5_6config16EndpointWrappers9call_feesCshHwHQpnfuGH_11unbond_test
FNDA:69,_RNvXNtCs2WGRDwQOHLQ_14liquid_staking6configINtB4_11ContractObjINtNtNtNtCseUmQFO6d1K9_22multiversx_sc_scenario3api7impl_vh12vm_hooks_api10VMHooksApiNtNtB13_9debug_api15DebugApiBackendEENtB2_12ConfigModule12pending_egldCskEhliFuVTlV_13delegate_test
FNDA:17,_RNvXNtCs2WGRDwQOHLQ_14liquid_staking6configINtB4_11ContractObjINtNtNtNtCseUmQFO6d1K9_22multiversx_sc_scenario3api7impl_vh12vm_hooks_api10VMHooksApiNtNtB13_9debug_api15DebugApiBackendEENtB2_12ConfigModule13unstake_tokenCskEhliFuVTlV_13delegate_test
FNDA:14,_RNvXNtCs2WGRDwQOHLQ_14liquid_staking6configINtB4_11ContractObjINtNtNtNtCseUmQFO6d1K9_22multiversx_sc_scenario3api7impl_vh12vm_hooks_api10VMHooksApiNtNtB13_9debug_api15DebugApiBackendEENtB2_12ConfigModule14minimum_roundsCskEhliFuVTlV_13delegate_test
FNDA:67,_RNvXNtCs2WGRDwQOHLQ_14liquid_staking6configINtB4_11ContractObjINtNtNtNtCseUmQFO6d1K9_22multiversx_sc_scenario3api7impl_vh12vm_hooks_api10VMHooksApiNtNtB13_9debug_api15DebugApiBackendEENtB2_12ConfigModule15ls_token_supplyCskEhliFuVTlV_13delegate_test
FNDA:67,_RNvXNtCs2WGRDwQOHLQ_14liquid_staking6configINtB4_11ContractObjINtNtNtNtCseUmQFO6d1K9_22multiversx_sc_scenario3api7impl_vh12vm_hooks_api10VMHooksApiNtNtB13_9debug_api15DebugApiBackendEENtB2_12ConfigModule15rewards_reserveCskEhliFuVTlV_13delegate_test
FNDA:14,_RNvXNtCs2WGRDwQOHLQ_14liquid_staking6configINtB4_11ContractObjINtNtNtNtCseUmQFO6d1K9_22multiversx_sc_scenario3api7impl_vh12vm_hooks_api10VMHooksApiNtNtB13_9debug_api15DebugApiBackendEENtB2_12ConfigModule16rounds_per_epochCskEhliFuVTlV_13delegate_test
FNDA:4,_RNvXNtCs2WGRDwQOHLQ_14liquid_staking6configINtB4_11ContractObjINtNtNtNtCseUmQFO6d1K9_22multiversx_sc_scenario3api7impl_vh12vm_hooks_api10VMHooksApiNtNtB13_9debug_api15DebugApiBackendEENtB2_12ConfigModule19unstake_token_nonceCskEhliFuVTlV_13delegate_test
FNDA:9,_RNvXNtCs2WGRDwQOHLQ_14liquid_staking6configINtB4_11ContractObjINtNtNtNtCseUmQFO6d1K9_22multiversx_sc_scenario3api7impl_vh12vm_hooks_api10VMHooksApiNtNtB13_9debug_api15DebugApiBackendEENtB2_12ConfigModule20accumulator_contractCskEhliFuVTlV_13delegate_test
FNDA:68,_RNvXNtCs2WGRDwQOHLQ_14liquid_staking6configINtB4_11ContractObjINtNtNtNtCseUmQFO6d1K9_22multiversx_sc_scenario3api7impl_vh12vm_hooks_api10VMHooksApiNtNtB13_9debug_api15DebugApiBackendEENtB2_12ConfigModule20total_withdrawn_egldCskEhliFuVTlV_13delegate_test
FNDA:67,_RNvXNtCs2WGRDwQOHLQ_14liquid_staking6configINtB4_11ContractObjINtNtNtNtCseUmQFO6d1K9_22multiversx_sc_scenario3api7impl_vh12vm_hooks_api10VMHooksApiNtNtB13_9debug_api15DebugApiBackendEENtB2_12ConfigModule20virtual_egld_reserveCskEhliFuVTlV_13delegate_test
FNDA:67,_RNvXNtCs2WGRDwQOHLQ_14liquid_staking6configINtB4_11ContractObjINtNtNtNtCseUmQFO6d1K9_22multiversx_sc_scenario3api7impl_vh12vm_hooks_api10VMHooksApiNtNtB13_9debug_api15DebugApiBackendEENtB2_12ConfigModule22pending_ls_for_unstakeCskEhliFuVTlV_13delegate_test
FNDA:9,_RNvXNtCs2WGRDwQOHLQ_14liquid_staking6configINtB4_11ContractObjINtNtNtNtCseUmQFO6d1K9_22multiversx_sc_scenario3api7impl_vh12vm_hooks_api10VMHooksApiNtNtB13_9debug_api15DebugApiBackendEENtB2_12ConfigModule4feesCskEhliFuVTlV_13delegate_test
FNDA:46,_RNvXNtCs2WGRDwQOHLQ_14liquid_staking6configINtB4_11ContractObjINtNtNtNtCseUmQFO6d1K9_22multiversx_sc_scenario3api7impl_vh12vm_hooks_api10VMHooksApiNtNtB13_9debug_api15DebugApiBackendEENtB2_12ConfigModule5stateCskEhliFuVTlV_13delegate_test
FNDA:47,_RNvXNtCs2WGRDwQOHLQ_14liquid_staking6configINtB4_11ContractObjINtNtNtNtCseUmQFO6d1K9_22multiversx_sc_scenario3api7impl_vh12vm_hooks_api10VMHooksApiNtNtB13_9debug_api15DebugApiBackendEENtB2_12ConfigModule8ls_tokenCskEhliFuVTlV_13delegate_test
FNDA:23,_RNvYINtCs2WGRDwQOHLQ_14liquid_staking11ContractObjINtNtNtNtCseUmQFO6d1K9_22multiversx_sc_scenario3api7impl_vh12vm_hooks_api10VMHooksApiNtNtBR_9debug_api15DebugApiBackendEENtNtB5_6config12ConfigModule15is_state_activeCskEhliFuVTlV_13delegate_test
FNDA:9,_RNvYINtCs2WGRDwQOHLQ_14liquid_staking11ContractObjINtNtNtNtCseUmQFO6d1K9_22multiversx_sc_scenario3api7impl_vh12vm_hooks_api10VMHooksApiNtNtBR_9debug_api15DebugApiBackendEENtNtB5_6config12ConfigModule16set_state_activeCskEhliFuVTlV_13delegate_test
FNDA:0,_RNvYINtCs2WGRDwQOHLQ_14liquid_staking11ContractObjINtNtNtNtCseUmQFO6d1K9_22multiversx_sc_scenario3api7impl_vh12vm_hooks_api10VMHooksApiNtNtBR_9debug_api15DebugApiBackendEENtNtB5_6config12ConfigModule17register_ls_tokenCskEhliFuVTlV_13delegate_test
FNDA:0,_RNvYINtCs2WGRDwQOHLQ_14liquid_staking11ContractObjINtNtNtNtCseUmQFO6d1K9_22multiversx_sc_scenario3api7impl_vh12vm_hooks_api10VMHooksApiNtNtBR_9debug_api15DebugApiBackendEENtNtB5_6config12ConfigModule18set_minimum_roundsCskEhliFuVTlV_13delegate_test
FNDA:1,_RNvYINtCs2WGRDwQOHLQ_14liquid_staking11ContractObjINtNtNtNtCseUmQFO6d1K9_22multiversx_sc_scenario3api7impl_vh12vm_hooks_api10VMHooksApiNtNtBR_9debug_api15DebugApiBackendEENtNtB5_6config12ConfigModule18set_state_inactiveCskEhliFuVTlV_13delegate_test
FNDA:0,_RNvYINtCs2WGRDwQOHLQ_14liquid_staking11ContractObjINtNtNtNtCseUmQFO6d1K9_22multiversx_sc_scenario3api7impl_vh12vm_hooks_api10VMHooksApiNtNtBR_9debug_api15DebugApiBackendEENtNtB5_6config12ConfigModule20set_rounds_per_epochCskEhliFuVTlV_13delegate_test
FNDA:0,_RNvYINtCs2WGRDwQOHLQ_14liquid_staking11ContractObjINtNtNtNtCseUmQFO6d1K9_22multiversx_sc_scenario3api7impl_vh12vm_hooks_api10VMHooksApiNtNtBR_9debug_api15DebugApiBackendEENtNtB5_6config12ConfigModule22register_unstake_tokenCskEhliFuVTlV_13delegate_test
FNDA:0,_RNvYINtCs2WGRDwQOHLQ_14liquid_staking11ContractObjINtNtNtNtCseUmQFO6d1K9_22multiversx_sc_scenario3api7impl_vh12vm_hooks_api10VMHooksApiNtNtBR_9debug_api15DebugApiBackendEENtNtB5_6config12ConfigModule24set_accumulator_contractCskEhliFuVTlV_13delegate_test
FNDA:0,_RNvYINtCs2WGRDwQOHLQ_14liquid_staking11ContractObjINtNtNtNtCseUmQFO6d1K9_22multiversx_sc_scenario3api7impl_vh12vm_hooks_api10VMHooksApiNtNtBR_9debug_api15DebugApiBackendEENtNtB5_6config12ConfigModule8set_feesCskEhliFuVTlV_13delegate_test
FNDA:0,_RNvYINtCs2WGRDwQOHLQ_14liquid_staking11ContractObjINtNtNtNtCseUmQFO6d1K9_22multiversx_sc_scenario3api7impl_vh12vm_hooks_api10VMHooksApiNtNtBR_9debug_api15DebugApiBackendEENtNtB5_6config16EndpointWrappers10call_stateCskEhliFuVTlV_13delegate_test
FNDA:0,_RNvYINtCs2WGRDwQOHLQ_14liquid_staking11ContractObjINtNtNtNtCseUmQFO6d1K9_22multiversx_sc_scenario3api7impl_vh12vm_hooks_api10VMHooksApiNtNtBR_9debug_api15DebugApiBackendEENtNtB5_6config16EndpointWrappers13call_ls_tokenCskEhliFuVTlV_13delegate_test
FNDA:0,_RNvYINtCs2WGRDwQOHLQ_14liquid_staking11ContractObjINtNtNtNtCseUmQFO6d1K9_22multiversx_sc_scenario3api7impl_vh12vm_hooks_api10VMHooksApiNtNtBR_9debug_api15DebugApiBackendEENtNtB5_6config16EndpointWrappers13call_set_feesCskEhliFuVTlV_13delegate_test
FNDA:0,_RNvYINtCs2WGRDwQOHLQ_14liquid_staking11ContractObjINtNtNtNtCseUmQFO6d1K9_22multiversx_sc_scenario3api7impl_vh12vm_hooks_api10VMHooksApiNtNtBR_9debug_api15DebugApiBackendEENtNtB5_6config16EndpointWrappers17call_pending_egldCskEhliFuVTlV_13delegate_test
FNDA:0,_RNvYINtCs2WGRDwQOHLQ_14liquid_staking11ContractObjINtNtNtNtCseUmQFO6d1K9_22multiversx_sc_scenario3api7impl_vh12vm_hooks_api10VMHooksApiNtNtBR_9debug_api15DebugApiBackendEENtNtB5_6config16EndpointWrappers17callback_selectorCskEhliFuVTlV_13delegate_test
FNDA:0,_RNvYINtCs2WGRDwQOHLQ_14liquid_staking11ContractObjINtNtNtNtCseUmQFO6d1K9_22multiversx_sc_scenario3api7impl_vh12vm_hooks_api10VMHooksApiNtNtBR_9debug_api15DebugApiBackendEENtNtB5_6config16EndpointWrappers18call_unstake_tokenCskEhliFuVTlV_13delegate_test
FNDA:0,_RNvYINtCs2WGRDwQOHLQ_14liquid_staking11ContractObjINtNtNtNtCseUmQFO6d1K9_22multiversx_sc_scenario3api7impl_vh12vm_hooks_api10VMHooksApiNtNtBR_9debug_api15DebugApiBackendEENtNtB5_6config16EndpointWrappers19call_minimum_roundsCskEhliFuVTlV_13delegate_test
FNDA:0,_RNvYINtCs2WGRDwQOHLQ_14liquid_staking11ContractObjINtNtNtNtCseUmQFO6d1K9_22multiversx_sc_scenario3api7impl_vh12vm_hooks_api10VMHooksApiNtNtBR_9debug_api15DebugApiBackendEENtNtB5_6config16EndpointWrappers20call_ls_token_supplyCskEhliFuVTlV_13delegate_test
FNDA:0,_RNvYINtCs2WGRDwQOHLQ_14liquid_staking11ContractObjINtNtNtNtCseUmQFO6d1K9_22multiversx_sc_scenario3api7impl_vh12vm_hooks_api10VMHooksApiNtNtBR_9debug_api15DebugApiBackendEENtNtB5_6config16EndpointWrappers20call_rewards_reserveCskEhliFuVTlV_13delegate_test
FNDA:0,_RNvYINtCs2WGRDwQOHLQ_14liquid_staking11ContractObjINtNtNtNtCseUmQFO6d1K9_22multiversx_sc_scenario3api7impl_vh12vm_hooks_api10VMHooksApiNtNtBR_9debug_api15DebugApiBackendEENtNtB5_6config16EndpointWrappers21call_rounds_per_epochCskEhliFuVTlV_13delegate_test
FNDA:0,_RNvYINtCs2WGRDwQOHLQ_14liquid_staking11ContractObjINtNtNtNtCseUmQFO6d1K9_22multiversx_sc_scenario3api7impl_vh12vm_hooks_api10VMHooksApiNtNtBR_9debug_api15DebugApiBackendEENtNtB5_6config16EndpointWrappers21call_set_state_activeCskEhliFuVTlV_13delegate_test
FNDA:0,_RNvYINtCs2WGRDwQOHLQ_14liquid_staking11ContractObjINtNtNtNtCseUmQFO6d1K9_22multiversx_sc_scenario3api7impl_vh12vm_hooks_api10VMHooksApiNtNtBR_9debug_api15DebugApiBackendEENtNtB5_6config16EndpointWrappers22call_register_ls_tokenCskEhliFuVTlV_13delegate_test
FNDA:0,_RNvYINtCs2WGRDwQOHLQ_14liquid_staking11ContractObjINtNtNtNtCseUmQFO6d1K9_22multiversx_sc_scenario3api7impl_vh12vm_hooks_api10VMHooksApiNtNtBR_9debug_api15DebugApiBackendEENtNtB5_6config16EndpointWrappers23call_set_minimum_roundsCskEhliFuVTlV_13delegate_test
FNDA:0,_RNvYINtCs2WGRDwQOHLQ_14liquid_staking11ContractObjINtNtNtNtCseUmQFO6d1K9_22multiversx_sc_scenario3api7impl_vh12vm_hooks_api10VMHooksApiNtNtBR_9debug_api15DebugApiBackendEENtNtB5_6config16EndpointWrappers23call_set_state_inactiveCskEhliFuVTlV_13delegate_test
FNDA:0,_RNvYINtCs2WGRDwQOHLQ_14liquid_staking11ContractObjINtNtNtNtCseUmQFO6d1K9_22multiversx_sc_scenario3api7impl_vh12vm_hooks_api10VMHooksApiNtNtBR_9debug_api15DebugApiBackendEENtNtB5_6config16EndpointWrappers24call_unstake_token_nonceCskEhliFuVTlV_13delegate_test
FNDA:0,_RNvYINtCs2WGRDwQOHLQ_14liquid_staking11ContractObjINtNtNtNtCseUmQFO6d1K9_22multiversx_sc_scenario3api7impl_vh12vm_hooks_api10VMHooksApiNtNtBR_9debug_api15DebugApiBackendEENtNtB5_6config16EndpointWrappers25call_accumulator_contractCskEhliFuVTlV_13delegate_test
FNDA:0,_RNvYINtCs2WGRDwQOHLQ_14liquid_staking11ContractObjINtNtNtNtCseUmQFO6d1K9_22multiversx_sc_scenario3api7impl_vh12vm_hooks_api10VMHooksApiNtNtBR_9debug_api15DebugApiBackendEENtNtB5_6config16EndpointWrappers25call_set_rounds_per_epochCskEhliFuVTlV_13delegate_test
FNDA:0,_RNvYINtCs2WGRDwQOHLQ_14liquid_staking11ContractObjINtNtNtNtCseUmQFO6d1K9_22multiversx_sc_scenario3api7impl_vh12vm_hooks_api10VMHooksApiNtNtBR_9debug_api15DebugApiBackendEENtNtB5_6config16EndpointWrappers25call_total_withdrawn_egldCskEhliFuVTlV_13delegate_test
FNDA:0,_RNvYINtCs2WGRDwQOHLQ_14liquid_staking11ContractObjINtNtNtNtCseUmQFO6d1K9_22multiversx_sc_scenario3api7impl_vh12vm_hooks_api10VMHooksApiNtNtBR_9debug_api15DebugApiBackendEENtNtB5_6config16EndpointWrappers25call_virtual_egld_reserveCskEhliFuVTlV_13delegate_test
FNDA:0,_RNvYINtCs2WGRDwQOHLQ_14liquid_staking11ContractObjINtNtNtNtCseUmQFO6d1K9_22multiversx_sc_scenario3api7impl_vh12vm_hooks_api10VMHooksApiNtNtBR_9debug_api15DebugApiBackendEENtNtB5_6config16EndpointWrappers27call_pending_ls_for_unstakeCskEhliFuVTlV_13delegate_test
FNDA:0,_RNvYINtCs2WGRDwQOHLQ_14liquid_staking11ContractObjINtNtNtNtCseUmQFO6d1K9_22multiversx_sc_scenario3api7impl_vh12vm_hooks_api10VMHooksApiNtNtBR_9debug_api15DebugApiBackendEENtNtB5_6config16EndpointWrappers27call_register_unstake_tokenCskEhliFuVTlV_13delegate_test
FNDA:0,_RNvYINtCs2WGRDwQOHLQ_14liquid_staking11ContractObjINtNtNtNtCseUmQFO6d1K9_22multiversx_sc_scenario3api7impl_vh12vm_hooks_api10VMHooksApiNtNtBR_9debug_api15DebugApiBackendEENtNtB5_6config16EndpointWrappers29call_set_accumulator_contractCskEhliFuVTlV_13delegate_test
FNDA:32,_RNvYINtCs2WGRDwQOHLQ_14liquid_staking11ContractObjINtNtNtNtCseUmQFO6d1K9_22multiversx_sc_scenario3api7impl_vh12vm_hooks_api10VMHooksApiNtNtBR_9debug_api15DebugApiBackendEENtNtB5_6config16EndpointWrappers4callCskEhliFuVTlV_13delegate_test
FNDA:0,_RNvYINtCs2WGRDwQOHLQ_14liquid_staking11ContractObjINtNtNtNtCseUmQFO6d1K9_22multiversx_sc_scenario3api7impl_vh12vm_hooks_api10VMHooksApiNtNtBR_9debug_api15DebugApiBackendEENtNtB5_6config16EndpointWrappers8callbackCskEhliFuVTlV_13delegate_test
FNDA:0,_RNvYINtCs2WGRDwQOHLQ_14liquid_staking11ContractObjINtNtNtNtCseUmQFO6d1K9_22multiversx_sc_scenario3api7impl_vh12vm_hooks_api10VMHooksApiNtNtBR_9debug_api15DebugApiBackendEENtNtB5_6config16EndpointWrappers9call_feesCskEhliFuVTlV_13delegate_test
FNDA:0,_RNvYpNtNtCsdRzYvL09OST_14liquid_staking6config12ConfigModule17register_ls_tokenB7_
FNDA:0,_RNvYpNtNtCsdRzYvL09OST_14liquid_staking6config12ConfigModule22register_unstake_tokenB7_
FNDA:0,_RNvYpNtNtCsdRzYvL09OST_14liquid_staking6config12ConfigModule16set_state_activeB7_
FNDA:0,_RNvYpNtNtCsdRzYvL09OST_14liquid_staking6config12ConfigModule18set_state_inactiveB7_
FNDA:0,_RNvYpNtNtCsdRzYvL09OST_14liquid_staking6config12ConfigModule24set_accumulator_contractB7_
FNDA:0,_RNvYpNtNtCsdRzYvL09OST_14liquid_staking6config12ConfigModule8set_feesB7_
FNDA:0,_RNvYpNtNtCsdRzYvL09OST_14liquid_staking6config12ConfigModule20set_rounds_per_epochB7_
FNDA:0,_RNvYpNtNtCsdRzYvL09OST_14liquid_staking6config12ConfigModule18set_minimum_roundsB7_
FNDA:0,_RNvYpNtNtCsdRzYvL09OST_14liquid_staking6config12ConfigModule15is_state_activeB7_
FNDA:0,_RNvXININtCsdRzYvL09OST_14liquid_staking6config0pEpNtB5_12ConfigModule4feesB7_
FNDA:0,_RNvXININtCsdRzYvL09OST_14liquid_staking6config0pEpNtB5_12ConfigModule20accumulator_contractB7_
FNDA:0,_RNvXININtCsdRzYvL09OST_14liquid_staking6config0pEpNtB5_12ConfigModule16rounds_per_epochB7_
FNDA:0,_RNvXININtCsdRzYvL09OST_14liquid_staking6config0pEpNtB5_12ConfigModule14minimum_roundsB7_
FNDA:0,_RNvXININtCsdRzYvL09OST_14liquid_staking6config0pEpNtB5_12ConfigModule5stateB7_
FNDA:0,_RNvXININtCsdRzYvL09OST_14liquid_staking6config0pEpNtB5_12ConfigModule8ls_tokenB7_
FNDA:0,_RNvXININtCsdRzYvL09OST_14liquid_staking6config0pEpNtB5_12ConfigModule15ls_token_supplyB7_
FNDA:0,_RNvXININtCsdRzYvL09OST_14liquid_staking6config0pEpNtB5_12ConfigModule20virtual_egld_reserveB7_
FNDA:0,_RNvXININtCsdRzYvL09OST_14liquid_staking6config0pEpNtB5_12ConfigModule15rewards_reserveB7_
FNDA:0,_RNvXININtCsdRzYvL09OST_14liquid_staking6config0pEpNtB5_12ConfigModule20total_withdrawn_egldB7_
FNDA:0,_RNvXININtCsdRzYvL09OST_14liquid_staking6config0pEpNtB5_12ConfigModule13unstake_tokenB7_
FNDA:0,_RNvXININtCsdRzYvL09OST_14liquid_staking6config0pEpNtB5_12ConfigModule12pending_egldB7_
FNDA:0,_RNvXININtCsdRzYvL09OST_14liquid_staking6config0pEpNtB5_12ConfigModule22pending_ls_for_unstakeB7_
FNDA:0,_RNvXININtCsdRzYvL09OST_14liquid_staking6config0pEpNtB5_12ConfigModule19unstake_token_nonceB7_
FNDA:0,_RNvYpNtNtCsdRzYvL09OST_14liquid_staking6config16EndpointWrappers22call_register_ls_tokenB7_
FNDA:0,_RNvYpNtNtCsdRzYvL09OST_14liquid_staking6config16EndpointWrappers27call_register_unstake_tokenB7_
FNDA:0,_RNvYpNtNtCsdRzYvL09OST_14liquid_staking6config16EndpointWrappers21call_set_state_activeB7_
FNDA:0,_RNvYpNtNtCsdRzYvL09OST_14liquid_staking6config16EndpointWrappers23call_set_state_inactiveB7_
FNDA:0,_RNvYpNtNtCsdRzYvL09OST_14liquid_staking6config16EndpointWrappers29call_set_accumulator_contractB7_
FNDA:0,_RNvYpNtNtCsdRzYvL09OST_14liquid_staking6config16EndpointWrappers13call_set_feesB7_
FNDA:0,_RNvYpNtNtCsdRzYvL09OST_14liquid_staking6config16EndpointWrappers25call_set_rounds_per_epochB7_
FNDA:0,_RNvYpNtNtCsdRzYvL09OST_14liquid_staking6config16EndpointWrappers23call_set_minimum_roundsB7_
FNDA:0,_RNvYpNtNtCsdRzYvL09OST_14liquid_staking6config16EndpointWrappers9call_feesB7_
FNDA:0,_RNvYpNtNtCsdRzYvL09OST_14liquid_staking6config16EndpointWrappers25call_accumulator_contractB7_
FNDA:0,_RNvYpNtNtCsdRzYvL09OST_14liquid_staking6config16EndpointWrappers21call_rounds_per_epochB7_
FNDA:0,_RNvYpNtNtCsdRzYvL09OST_14liquid_staking6config16EndpointWrappers19call_minimum_roundsB7_
FNDA:0,_RNvYpNtNtCsdRzYvL09OST_14liquid_staking6config16EndpointWrappers10call_stateB7_
FNDA:0,_RNvYpNtNtCsdRzYvL09OST_14liquid_staking6config16EndpointWrappers13call_ls_tokenB7_
FNDA:0,_RNvYpNtNtCsdRzYvL09OST_14liquid_staking6config16EndpointWrappers20call_ls_token_supplyB7_
FNDA:0,_RNvYpNtNtCsdRzYvL09OST_14liquid_staking6config16EndpointWrappers25call_virtual_egld_reserveB7_
FNDA:0,_RNvYpNtNtCsdRzYvL09OST_14liquid_staking6config16EndpointWrappers20call_rewards_reserveB7_
FNDA:0,_RNvYpNtNtCsdRzYvL09OST_14liquid_staking6config16EndpointWrappers25call_total_withdrawn_egldB7_
FNDA:0,_RNvYpNtNtCsdRzYvL09OST_14liquid_staking6config16EndpointWrappers18call_unstake_tokenB7_
FNDA:0,_RNvYpNtNtCsdRzYvL09OST_14liquid_staking6config16EndpointWrappers17call_pending_egldB7_
FNDA:0,_RNvYpNtNtCsdRzYvL09OST_14liquid_staking6config16EndpointWrappers27call_pending_ls_for_unstakeB7_
FNDA:0,_RNvYpNtNtCsdRzYvL09OST_14liquid_staking6config16EndpointWrappers24call_unstake_token_nonceB7_
FNDA:0,_RNvYpNtNtCsdRzYvL09OST_14liquid_staking6config16EndpointWrappers4callB7_
FNDA:0,_RNvYpNtNtCsdRzYvL09OST_14liquid_staking6config16EndpointWrappers17callback_selectorB7_
FNDA:0,_RNvYpNtNtCsdRzYvL09OST_14liquid_staking6config16EndpointWrappers8callbackB7_
FNDA:0,_RNvXs1_NtCsdRzYvL09OST_14liquid_staking6configNtB5_11AbiProviderNtNtNtCs4WmCETBkTZ5_13multiversx_sc13contract_base21contract_abi_provider19ContractAbiProvider3abi
FNDA:0,_RNvXININtCsdRzYvL09OST_14liquid_staking6configs5_0pEINtB5_11ContractObjpENtNtNtCs4WmCETBkTZ5_13multiversx_sc13contract_base17callable_contract16CallableContract4callB7_
FNDA:0,_RINvNtCsdRzYvL09OST_14liquid_staking6config12contract_objpEB4_
FNDA:0,_RINvXs6_NtCsdRzYvL09OST_14liquid_staking6configNtB6_15ContractBuilderNtNtNtCs4WmCETBkTZ5_13multiversx_sc13contract_base17callable_contract23CallableContractBuilder16new_contract_objpEB8_
FNDA:0,_RINvNtNtCsdRzYvL09OST_14liquid_staking6config19___wasm__endpoints__17register_ls_tokenpEB6_
FNDA:0,_RINvNtNtCsdRzYvL09OST_14liquid_staking6config19___wasm__endpoints__22register_unstake_tokenpEB6_
FNDA:0,_RINvNtNtCsdRzYvL09OST_14liquid_staking6config19___wasm__endpoints__16set_state_activepEB6_
FNDA:0,_RINvNtNtCsdRzYvL09OST_14liquid_staking6config19___wasm__endpoints__18set_state_inactivepEB6_
FNDA:0,_RINvNtNtCsdRzYvL09OST_14liquid_staking6config19___wasm__endpoints__24set_accumulator_contractpEB6_
FNDA:0,_RINvNtNtCsdRzYvL09OST_14liquid_staking6config19___wasm__endpoints__8set_feespEB6_
FNDA:0,_RINvNtNtCsdRzYvL09OST_14liquid_staking6config19___wasm__endpoints__20set_rounds_per_epochpEB6_
FNDA:0,_RINvNtNtCsdRzYvL09OST_14liquid_staking6config19___wasm__endpoints__18set_minimum_roundspEB6_
FNDA:0,_RINvNtNtCsdRzYvL09OST_14liquid_staking6config19___wasm__endpoints__4feespEB6_
FNDA:0,_RINvNtNtCsdRzYvL09OST_14liquid_staking6config19___wasm__endpoints__20accumulator_contractpEB6_
FNDA:0,_RINvNtNtCsdRzYvL09OST_14liquid_staking6config19___wasm__endpoints__16rounds_per_epochpEB6_
FNDA:0,_RINvNtNtCsdRzYvL09OST_14liquid_staking6config19___wasm__endpoints__14minimum_roundspEB6_
FNDA:0,_RINvNtNtCsdRzYvL09OST_14liquid_staking6config19___wasm__endpoints__5statepEB6_
FNDA:0,_RINvNtNtCsdRzYvL09OST_14liquid_staking6config19___wasm__endpoints__8ls_tokenpEB6_
FNDA:0,_RINvNtNtCsdRzYvL09OST_14liquid_staking6config19___wasm__endpoints__15ls_token_supplypEB6_
FNDA:0,_RINvNtNtCsdRzYvL09OST_14liquid_staking6config19___wasm__endpoints__20virtual_egld_reservepEB6_
FNDA:0,_RINvNtNtCsdRzYvL09OST_14liquid_staking6config19___wasm__endpoints__15rewards_reservepEB6_
FNDA:0,_RINvNtNtCsdRzYvL09OST_14liquid_staking6config19___wasm__endpoints__20total_withdrawn_egldpEB6_
FNDA:0,_RINvNtNtCsdRzYvL09OST_14liquid_staking6config19___wasm__endpoints__13unstake_tokenpEB6_
FNDA:0,_RINvNtNtCsdRzYvL09OST_14liquid_staking6config19___wasm__endpoints__12pending_egldpEB6_
FNDA:0,_RINvNtNtCsdRzYvL09OST_14liquid_staking6config19___wasm__endpoints__22pending_ls_for_unstakepEB6_
FNDA:0,_RINvNtNtCsdRzYvL09OST_14liquid_staking6config19___wasm__endpoints__19unstake_token_noncepEB6_
FNDA:0,_RINvYpNtNtCsdRzYvL09OST_14liquid_staking6config10ProxyTrait17register_ls_tokenpppEB8_
FNDA:0,_RINvYpNtNtCsdRzYvL09OST_14liquid_staking6config10ProxyTrait22register_unstake_tokenpppEB8_
FNDA:0,_RNvYpNtNtCsdRzYvL09OST_14liquid_staking6config10ProxyTrait16set_state_activeB7_
FNDA:0,_RNvYpNtNtCsdRzYvL09OST_14liquid_staking6config10ProxyTrait18set_state_inactiveB7_
FNDA:0,_RINvYpNtNtCsdRzYvL09OST_14liquid_staking6config10ProxyTrait24set_accumulator_contractpEB8_
FNDA:0,_RINvYpNtNtCsdRzYvL09OST_14liquid_staking6config10ProxyTrait8set_feespEB8_
FNDA:0,_RINvYpNtNtCsdRzYvL09OST_14liquid_staking6config10ProxyTrait20set_rounds_per_epochpEB8_
FNDA:0,_RINvYpNtNtCsdRzYvL09OST_14liquid_staking6config10ProxyTrait18set_minimum_roundspEB8_
FNDA:0,_RNvYpNtNtCsdRzYvL09OST_14liquid_staking6config10ProxyTrait4feesB7_
FNDA:0,_RNvYpNtNtCsdRzYvL09OST_14liquid_staking6config10ProxyTrait20accumulator_contractB7_
FNDA:0,_RNvYpNtNtCsdRzYvL09OST_14liquid_staking6config10ProxyTrait16rounds_per_epochB7_
FNDA:0,_RNvYpNtNtCsdRzYvL09OST_14liquid_staking6config10ProxyTrait14minimum_roundsB7_
FNDA:0,_RNvYpNtNtCsdRzYvL09OST_14liquid_staking6config10ProxyTrait5stateB7_
FNDA:0,_RNvYpNtNtCsdRzYvL09OST_14liquid_staking6config10ProxyTrait8ls_tokenB7_
FNDA:0,_RNvYpNtNtCsdRzYvL09OST_14liquid_staking6config10ProxyTrait15ls_token_supplyB7_
FNDA:0,_RNvYpNtNtCsdRzYvL09OST_14liquid_staking6config10ProxyTrait20virtual_egld_reserveB7_
FNDA:0,_RNvYpNtNtCsdRzYvL09OST_14liquid_staking6config10ProxyTrait15rewards_reserveB7_
FNDA:0,_RNvYpNtNtCsdRzYvL09OST_14liquid_staking6config10ProxyTrait20total_withdrawn_egldB7_
FNDA:0,_RNvYpNtNtCsdRzYvL09OST_14liquid_staking6config10ProxyTrait13unstake_tokenB7_
FNDA:0,_RNvYpNtNtCsdRzYvL09OST_14liquid_staking6config10ProxyTrait12pending_egldB7_
FNDA:0,_RNvYpNtNtCsdRzYvL09OST_14liquid_staking6config10ProxyTrait22pending_ls_for_unstakeB7_
FNDA:0,_RINvYpNtNtCsdRzYvL09OST_14liquid_staking6config10ProxyTrait19unstake_token_noncepEB8_
FNDA:118,_RNvXNtCs2WGRDwQOHLQ_14liquid_staking6configINtB4_11ContractObjINtNtNtNtCseUmQFO6d1K9_22multiversx_sc_scenario3api7impl_vh12vm_hooks_api10VMHooksApiNtNtB13_9debug_api15DebugApiBackendEENtB2_12ConfigModule12pending_egldCsaR2MVHtCDM0_4test
FNDA:22,_RNvXNtCs2WGRDwQOHLQ_14liquid_staking6configINtB4_11ContractObjINtNtNtNtCseUmQFO6d1K9_22multiversx_sc_scenario3api7impl_vh12vm_hooks_api10VMHooksApiNtNtB13_9debug_api15DebugApiBackendEENtB2_12ConfigModule13unstake_tokenCsaR2MVHtCDM0_4test
FNDA:12,_RNvXNtCs2WGRDwQOHLQ_14liquid_staking6configINtB4_11ContractObjINtNtNtNtCseUmQFO6d1K9_22multiversx_sc_scenario3api7impl_vh12vm_hooks_api10VMHooksApiNtNtB13_9debug_api15DebugApiBackendEENtB2_12ConfigModule14minimum_roundsCsaR2MVHtCDM0_4test
FNDA:118,_RNvXNtCs2WGRDwQOHLQ_14liquid_staking6configINtB4_11ContractObjINtNtNtNtCseUmQFO6d1K9_22multiversx_sc_scenario3api7impl_vh12vm_hooks_api10VMHooksApiNtNtB13_9debug_api15DebugApiBackendEENtB2_12ConfigModule15ls_token_supplyCsaR2MVHtCDM0_4test
FNDA:121,_RNvXNtCs2WGRDwQOHLQ_14liquid_staking6configINtB4_11ContractObjINtNtNtNtCseUmQFO6d1K9_22multiversx_sc_scenario3api7impl_vh12vm_hooks_api10VMHooksApiNtNtB13_9debug_api15DebugApiBackendEENtB2_12ConfigModule15rewards_reserveCsaR2MVHtCDM0_4test
FNDA:12,_RNvXNtCs2WGRDwQOHLQ_14liquid_staking6configINtB4_11ContractObjINtNtNtNtCseUmQFO6d1K9_22multiversx_sc_scenario3api7impl_vh12vm_hooks_api10VMHooksApiNtNtB13_9debug_api15DebugApiBackendEENtB2_12ConfigModule16rounds_per_epochCsaR2MVHtCDM0_4test
FNDA:5,_RNvXNtCs2WGRDwQOHLQ_14liquid_staking6configINtB4_11ContractObjINtNtNtNtCseUmQFO6d1K9_22multiversx_sc_scenario3api7impl_vh12vm_hooks_api10VMHooksApiNtNtB13_9debug_api15DebugApiBackendEENtB2_12ConfigModule19unstake_token_nonceCsaR2MVHtCDM0_4test
FNDA:5,_RNvXNtCs2WGRDwQOHLQ_14liquid_staking6configINtB4_11ContractObjINtNtNtNtCseUmQFO6d1K9_22multiversx_sc_scenario3api7impl_vh12vm_hooks_api10VMHooksApiNtNtB13_9debug_api15DebugApiBackendEENtB2_12ConfigModule20accumulator_contractCsaR2MVHtCDM0_4test
FNDA:118,_RNvXNtCs2WGRDwQOHLQ_14liquid_staking6configINtB4_11ContractObjINtNtNtNtCseUmQFO6d1K9_22multiversx_sc_scenario3api7impl_vh12vm_hooks_api10VMHooksApiNtNtB13_9debug_api15DebugApiBackendEENtB2_12ConfigModule20total_withdrawn_egldCsaR2MVHtCDM0_4test
FNDA:118,_RNvXNtCs2WGRDwQOHLQ_14liquid_staking6configINtB4_11ContractObjINtNtNtNtCseUmQFO6d1K9_22multiversx_sc_scenario3api7impl_vh12vm_hooks_api10VMHooksApiNtNtB13_9debug_api15DebugApiBackendEENtB2_12ConfigModule20virtual_egld_reserveCsaR2MVHtCDM0_4test
FNDA:120,_RNvXNtCs2WGRDwQOHLQ_14liquid_staking6configINtB4_11ContractObjINtNtNtNtCseUmQFO6d1K9_22multiversx_sc_scenario3api7impl_vh12vm_hooks_api10VMHooksApiNtNtB13_9debug_api15DebugApiBackendEENtB2_12ConfigModule22pending_ls_for_unstakeCsaR2MVHtCDM0_4test
FNDA:5,_RNvXNtCs2WGRDwQOHLQ_14liquid_staking6configINtB4_11ContractObjINtNtNtNtCseUmQFO6d1K9_22multiversx_sc_scenario3api7impl_vh12vm_hooks_api10VMHooksApiNtNtB13_9debug_api15DebugApiBackendEENtB2_12ConfigModule4feesCsaR2MVHtCDM0_4test
FNDA:64,_RNvXNtCs2WGRDwQOHLQ_14liquid_staking6configINtB4_11ContractObjINtNtNtNtCseUmQFO6d1K9_22multiversx_sc_scenario3api7impl_vh12vm_hooks_api10VMHooksApiNtNtB13_9debug_api15DebugApiBackendEENtB2_12ConfigModule5stateCsaR2MVHtCDM0_4test
FNDA:70,_RNvXNtCs2WGRDwQOHLQ_14liquid_staking6configINtB4_11ContractObjINtNtNtNtCseUmQFO6d1K9_22multiversx_sc_scenario3api7impl_vh12vm_hooks_api10VMHooksApiNtNtB13_9debug_api15DebugApiBackendEENtB2_12ConfigModule8ls_tokenCsaR2MVHtCDM0_4test
FNDA:28,_RNvYINtCs2WGRDwQOHLQ_14liquid_staking11ContractObjINtNtNtNtCseUmQFO6d1K9_22multiversx_sc_scenario3api7impl_vh12vm_hooks_api10VMHooksApiNtNtBR_9debug_api15DebugApiBackendEENtNtB5_6config12ConfigModule15is_state_activeCsaR2MVHtCDM0_4test
FNDA:4,_RNvYINtCs2WGRDwQOHLQ_14liquid_staking11ContractObjINtNtNtNtCseUmQFO6d1K9_22multiversx_sc_scenario3api7impl_vh12vm_hooks_api10VMHooksApiNtNtBR_9debug_api15DebugApiBackendEENtNtB5_6config12ConfigModule16set_state_activeCsaR2MVHtCDM0_4test
FNDA:0,_RNvYINtCs2WGRDwQOHLQ_14liquid_staking11ContractObjINtNtNtNtCseUmQFO6d1K9_22multiversx_sc_scenario3api7impl_vh12vm_hooks_api10VMHooksApiNtNtBR_9debug_api15DebugApiBackendEENtNtB5_6config12ConfigModule17register_ls_tokenCsaR2MVHtCDM0_4test
FNDA:0,_RNvYINtCs2WGRDwQOHLQ_14liquid_staking11ContractObjINtNtNtNtCseUmQFO6d1K9_22multiversx_sc_scenario3api7impl_vh12vm_hooks_api10VMHooksApiNtNtBR_9debug_api15DebugApiBackendEENtNtB5_6config12ConfigModule18set_minimum_roundsCsaR2MVHtCDM0_4test
FNDA:0,_RNvYINtCs2WGRDwQOHLQ_14liquid_staking11ContractObjINtNtNtNtCseUmQFO6d1K9_22multiversx_sc_scenario3api7impl_vh12vm_hooks_api10VMHooksApiNtNtBR_9debug_api15DebugApiBackendEENtNtB5_6config12ConfigModule18set_state_inactiveCsaR2MVHtCDM0_4test
FNDA:0,_RNvYINtCs2WGRDwQOHLQ_14liquid_staking11ContractObjINtNtNtNtCseUmQFO6d1K9_22multiversx_sc_scenario3api7impl_vh12vm_hooks_api10VMHooksApiNtNtBR_9debug_api15DebugApiBackendEENtNtB5_6config12ConfigModule20set_rounds_per_epochCsaR2MVHtCDM0_4test
FNDA:0,_RNvYINtCs2WGRDwQOHLQ_14liquid_staking11ContractObjINtNtNtNtCseUmQFO6d1K9_22multiversx_sc_scenario3api7impl_vh12vm_hooks_api10VMHooksApiNtNtBR_9debug_api15DebugApiBackendEENtNtB5_6config12ConfigModule22register_unstake_tokenCsaR2MVHtCDM0_4test
FNDA:0,_RNvYINtCs2WGRDwQOHLQ_14liquid_staking11ContractObjINtNtNtNtCseUmQFO6d1K9_22multiversx_sc_scenario3api7impl_vh12vm_hooks_api10VMHooksApiNtNtBR_9debug_api15DebugApiBackendEENtNtB5_6config12ConfigModule24set_accumulator_contractCsaR2MVHtCDM0_4test
FNDA:0,_RNvYINtCs2WGRDwQOHLQ_14liquid_staking11ContractObjINtNtNtNtCseUmQFO6d1K9_22multiversx_sc_scenario3api7impl_vh12vm_hooks_api10VMHooksApiNtNtBR_9debug_api15DebugApiBackendEENtNtB5_6config12ConfigModule8set_feesCsaR2MVHtCDM0_4test
FNDA:0,_RNvYINtCs2WGRDwQOHLQ_14liquid_staking11ContractObjINtNtNtNtCseUmQFO6d1K9_22multiversx_sc_scenario3api7impl_vh12vm_hooks_api10VMHooksApiNtNtBR_9debug_api15DebugApiBackendEENtNtB5_6config16EndpointWrappers10call_stateCsaR2MVHtCDM0_4test
FNDA:0,_RNvYINtCs2WGRDwQOHLQ_14liquid_staking11ContractObjINtNtNtNtCseUmQFO6d1K9_22multiversx_sc_scenario3api7impl_vh12vm_hooks_api10VMHooksApiNtNtBR_9debug_api15DebugApiBackendEENtNtB5_6config16EndpointWrappers13call_ls_tokenCsaR2MVHtCDM0_4test
FNDA:0,_RNvYINtCs2WGRDwQOHLQ_14liquid_staking11ContractObjINtNtNtNtCseUmQFO6d1K9_22multiversx_sc_scenario3api7impl_vh12vm_hooks_api10VMHooksApiNtNtBR_9debug_api15DebugApiBackendEENtNtB5_6config16EndpointWrappers13call_set_feesCsaR2MVHtCDM0_4test
FNDA:0,_RNvYINtCs2WGRDwQOHLQ_14liquid_staking11ContractObjINtNtNtNtCseUmQFO6d1K9_22multiversx_sc_scenario3api7impl_vh12vm_hooks_api10VMHooksApiNtNtBR_9debug_api15DebugApiBackendEENtNtB5_6config16EndpointWrappers17call_pending_egldCsaR2MVHtCDM0_4test
FNDA:0,_RNvYINtCs2WGRDwQOHLQ_14liquid_staking11ContractObjINtNtNtNtCseUmQFO6d1K9_22multiversx_sc_scenario3api7impl_vh12vm_hooks_api10VMHooksApiNtNtBR_9debug_api15DebugApiBackendEENtNtB5_6config16EndpointWrappers17callback_selectorCsaR2MVHtCDM0_4test
FNDA:0,_RNvYINtCs2WGRDwQOHLQ_14liquid_staking11ContractObjINtNtNtNtCseUmQFO6d1K9_22multiversx_sc_scenario3api7impl_vh12vm_hooks_api10VMHooksApiNtNtBR_9debug_api15DebugApiBackendEENtNtB5_6config16EndpointWrappers18call_unstake_tokenCsaR2MVHtCDM0_4test
FNDA:0,_RNvYINtCs2WGRDwQOHLQ_14liquid_staking11ContractObjINtNtNtNtCseUmQFO6d1K9_22multiversx_sc_scenario3api7impl_vh12vm_hooks_api10VMHooksApiNtNtBR_9debug_api15DebugApiBackendEENtNtB5_6config16EndpointWrappers19call_minimum_roundsCsaR2MVHtCDM0_4test
FNDA:0,_RNvYINtCs2WGRDwQOHLQ_14liquid_staking11ContractObjINtNtNtNtCseUmQFO6d1K9_22multiversx_sc_scenario3api7impl_vh12vm_hooks_api10VMHooksApiNtNtBR_9debug_api15DebugApiBackendEENtNtB5_6config16EndpointWrappers20call_ls_token_supplyCsaR2MVHtCDM0_4test
FNDA:0,_RNvYINtCs2WGRDwQOHLQ_14liquid_staking11ContractObjINtNtNtNtCseUmQFO6d1K9_22multiversx_sc_scenario3api7impl_vh12vm_hooks_api10VMHooksApiNtNtBR_9debug_api15DebugApiBackendEENtNtB5_6config16EndpointWrappers20call_rewards_reserveCsaR2MVHtCDM0_4test
FNDA:0,_RNvYINtCs2WGRDwQOHLQ_14liquid_staking11ContractObjINtNtNtNtCseUmQFO6d1K9_22multiversx_sc_scenario3api7impl_vh12vm_hooks_api10VMHooksApiNtNtBR_9debug_api15DebugApiBackendEENtNtB5_6config16EndpointWrappers21call_rounds_per_epochCsaR2MVHtCDM0_4test
FNDA:0,_RNvYINtCs2WGRDwQOHLQ_14liquid_staking11ContractObjINtNtNtNtCseUmQFO6d1K9_22multiversx_sc_scenario3api7impl_vh12vm_hooks_api10VMHooksApiNtNtBR_9debug_api15DebugApiBackendEENtNtB5_6config16EndpointWrappers21call_set_state_activeCsaR2MVHtCDM0_4test
FNDA:0,_RNvYINtCs2WGRDwQOHLQ_14liquid_staking11ContractObjINtNtNtNtCseUmQFO6d1K9_22multiversx_sc_scenario3api7impl_vh12vm_hooks_api10VMHooksApiNtNtBR_9debug_api15DebugApiBackendEENtNtB5_6config16EndpointWrappers22call_register_ls_tokenCsaR2MVHtCDM0_4test
FNDA:0,_RNvYINtCs2WGRDwQOHLQ_14liquid_staking11ContractObjINtNtNtNtCseUmQFO6d1K9_22multiversx_sc_scenario3api7impl_vh12vm_hooks_api10VMHooksApiNtNtBR_9debug_api15DebugApiBackendEENtNtB5_6config16EndpointWrappers23call_set_minimum_roundsCsaR2MVHtCDM0_4test
FNDA:0,_RNvYINtCs2WGRDwQOHLQ_14liquid_staking11ContractObjINtNtNtNtCseUmQFO6d1K9_22multiversx_sc_scenario3api7impl_vh12vm_hooks_api10VMHooksApiNtNtBR_9debug_api15DebugApiBackendEENtNtB5_6config16EndpointWrappers23call_set_state_inactiveCsaR2MVHtCDM0_4test
FNDA:0,_RNvYINtCs2WGRDwQOHLQ_14liquid_staking11ContractObjINtNtNtNtCseUmQFO6d1K9_22multiversx_sc_scenario3api7impl_vh12vm_hooks_api10VMHooksApiNtNtBR_9debug_api15DebugApiBackendEENtNtB5_6config16EndpointWrappers24call_unstake_token_nonceCsaR2MVHtCDM0_4test
FNDA:0,_RNvYINtCs2WGRDwQOHLQ_14liquid_staking11ContractObjINtNtNtNtCseUmQFO6d1K9_22multiversx_sc_scenario3api7impl_vh12vm_hooks_api10VMHooksApiNtNtBR_9debug_api15DebugApiBackendEENtNtB5_6config16EndpointWrappers25call_accumulator_contractCsaR2MVHtCDM0_4test
FNDA:0,_RNvYINtCs2WGRDwQOHLQ_14liquid_staking11ContractObjINtNtNtNtCseUmQFO6d1K9_22multiversx_sc_scenario3api7impl_vh12vm_hooks_api10VMHooksApiNtNtBR_9debug_api15DebugApiBackendEENtNtB5_6config16EndpointWrappers25call_set_rounds_per_epochCsaR2MVHtCDM0_4test
FNDA:0,_RNvYINtCs2WGRDwQOHLQ_14liquid_staking11ContractObjINtNtNtNtCseUmQFO6d1K9_22multiversx_sc_scenario3api7impl_vh12vm_hooks_api10VMHooksApiNtNtBR_9debug_api15DebugApiBackendEENtNtB5_6config16EndpointWrappers25call_total_withdrawn_egldCsaR2MVHtCDM0_4test
FNDA:0,_RNvYINtCs2WGRDwQOHLQ_14liquid_staking11ContractObjINtNtNtNtCseUmQFO6d1K9_22multiversx_sc_scenario3api7impl_vh12vm_hooks_api10VMHooksApiNtNtBR_9debug_api15DebugApiBackendEENtNtB5_6config16EndpointWrappers25call_virtual_egld_reserveCsaR2MVHtCDM0_4test
FNDA:0,_RNvYINtCs2WGRDwQOHLQ_14liquid_staking11ContractObjINtNtNtNtCseUmQFO6d1K9_22multiversx_sc_scenario3api7impl_vh12vm_hooks_api10VMHooksApiNtNtBR_9debug_api15DebugApiBackendEENtNtB5_6config16EndpointWrappers27call_pending_ls_for_unstakeCsaR2MVHtCDM0_4test
FNDA:0,_RNvYINtCs2WGRDwQOHLQ_14liquid_staking11ContractObjINtNtNtNtCseUmQFO6d1K9_22multiversx_sc_scenario3api7impl_vh12vm_hooks_api10VMHooksApiNtNtBR_9debug_api15DebugApiBackendEENtNtB5_6config16EndpointWrappers27call_register_unstake_tokenCsaR2MVHtCDM0_4test
FNDA:0,_RNvYINtCs2WGRDwQOHLQ_14liquid_staking11ContractObjINtNtNtNtCseUmQFO6d1K9_22multiversx_sc_scenario3api7impl_vh12vm_hooks_api10VMHooksApiNtNtBR_9debug_api15DebugApiBackendEENtNtB5_6config16EndpointWrappers29call_set_accumulator_contractCsaR2MVHtCDM0_4test
FNDA:224,_RNvYINtCs2WGRDwQOHLQ_14liquid_staking11ContractObjINtNtNtNtCseUmQFO6d1K9_22multiversx_sc_scenario3api7impl_vh12vm_hooks_api10VMHooksApiNtNtBR_9debug_api15DebugApiBackendEENtNtB5_6config16EndpointWrappers4callCsaR2MVHtCDM0_4test
FNDA:0,_RNvYINtCs2WGRDwQOHLQ_14liquid_staking11ContractObjINtNtNtNtCseUmQFO6d1K9_22multiversx_sc_scenario3api7impl_vh12vm_hooks_api10VMHooksApiNtNtBR_9debug_api15DebugApiBackendEENtNtB5_6config16EndpointWrappers8callbackCsaR2MVHtCDM0_4test
FNDA:0,_RNvYINtCs2WGRDwQOHLQ_14liquid_staking11ContractObjINtNtNtNtCseUmQFO6d1K9_22multiversx_sc_scenario3api7impl_vh12vm_hooks_api10VMHooksApiNtNtBR_9debug_api15DebugApiBackendEENtNtB5_6config16EndpointWrappers9call_feesCsaR2MVHtCDM0_4test
FNDA:54,_RNvXNtCs2WGRDwQOHLQ_14liquid_staking6configINtB4_11ContractObjINtNtNtNtCseUmQFO6d1K9_22multiversx_sc_scenario3api7impl_vh12vm_hooks_api10VMHooksApiNtNtB13_9debug_api15DebugApiBackendEENtB2_12ConfigModule12pending_egldCsVH6ELXPoQD_15unDelegate_test
FNDA:14,_RNvXNtCs2WGRDwQOHLQ_14liquid_staking6configINtB4_11ContractObjINtNtNtNtCseUmQFO6d1K9_22multiversx_sc_scenario3api7impl_vh12vm_hooks_api10VMHooksApiNtNtB13_9debug_api15DebugApiBackendEENtB2_12ConfigModule13unstake_tokenCsVH6ELXPoQD_15unDelegate_test
FNDA:10,_RNvXNtCs2WGRDwQOHLQ_14liquid_staking6configINtB4_11ContractObjINtNtNtNtCseUmQFO6d1K9_22multiversx_sc_scenario3api7impl_vh12vm_hooks_api10VMHooksApiNtNtB13_9debug_api15DebugApiBackendEENtB2_12ConfigModule14minimum_roundsCsVH6ELXPoQD_15unDelegate_test
FNDA:52,_RNvXNtCs2WGRDwQOHLQ_14liquid_staking6configINtB4_11ContractObjINtNtNtNtCseUmQFO6d1K9_22multiversx_sc_scenario3api7impl_vh12vm_hooks_api10VMHooksApiNtNtB13_9debug_api15DebugApiBackendEENtB2_12ConfigModule15ls_token_supplyCsVH6ELXPoQD_15unDelegate_test
FNDA:52,_RNvXNtCs2WGRDwQOHLQ_14liquid_staking6configINtB4_11ContractObjINtNtNtNtCseUmQFO6d1K9_22multiversx_sc_scenario3api7impl_vh12vm_hooks_api10VMHooksApiNtNtB13_9debug_api15DebugApiBackendEENtB2_12ConfigModule15rewards_reserveCsVH6ELXPoQD_15unDelegate_test
FNDA:10,_RNvXNtCs2WGRDwQOHLQ_14liquid_staking6configINtB4_11ContractObjINtNtNtNtCseUmQFO6d1K9_22multiversx_sc_scenario3api7impl_vh12vm_hooks_api10VMHooksApiNtNtB13_9debug_api15DebugApiBackendEENtB2_12ConfigModule16rounds_per_epochCsVH6ELXPoQD_15unDelegate_test
FNDA:4,_RNvXNtCs2WGRDwQOHLQ_14liquid_staking6configINtB4_11ContractObjINtNtNtNtCseUmQFO6d1K9_22multiversx_sc_scenario3api7impl_vh12vm_hooks_api10VMHooksApiNtNtB13_9debug_api15DebugApiBackendEENtB2_12ConfigModule19unstake_token_nonceCsVH6ELXPoQD_15unDelegate_test
FNDA:5,_RNvXNtCs2WGRDwQOHLQ_14liquid_staking6configINtB4_11ContractObjINtNtNtNtCseUmQFO6d1K9_22multiversx_sc_scenario3api7impl_vh12vm_hooks_api10VMHooksApiNtNtB13_9debug_api15DebugApiBackendEENtB2_12ConfigModule20accumulator_contractCsVH6ELXPoQD_15unDelegate_test
FNDA:52,_RNvXNtCs2WGRDwQOHLQ_14liquid_staking6configINtB4_11ContractObjINtNtNtNtCseUmQFO6d1K9_22multiversx_sc_scenario3api7impl_vh12vm_hooks_api10VMHooksApiNtNtB13_9debug_api15DebugApiBackendEENtB2_12ConfigModule20total_withdrawn_egldCsVH6ELXPoQD_15unDelegate_test
FNDA:52,_RNvXNtCs2WGRDwQOHLQ_14liquid_staking6configINtB4_11ContractObjINtNtNtNtCseUmQFO6d1K9_22multiversx_sc_scenario3api7impl_vh12vm_hooks_api10VMHooksApiNtNtB13_9debug_api15DebugApiBackendEENtB2_12ConfigModule20virtual_egld_reserveCsVH6ELXPoQD_15unDelegate_test
FNDA:53,_RNvXNtCs2WGRDwQOHLQ_14liquid_staking6configINtB4_11ContractObjINtNtNtNtCseUmQFO6d1K9_22multiversx_sc_scenario3api7impl_vh12vm_hooks_api10VMHooksApiNtNtB13_9debug_api15DebugApiBackendEENtB2_12ConfigModule22pending_ls_for_unstakeCsVH6ELXPoQD_15unDelegate_test
FNDA:5,_RNvXNtCs2WGRDwQOHLQ_14liquid_staking6configINtB4_11ContractObjINtNtNtNtCseUmQFO6d1K9_22multiversx_sc_scenario3api7impl_vh12vm_hooks_api10VMHooksApiNtNtB13_9debug_api15DebugApiBackendEENtB2_12ConfigModule4feesCsVH6ELXPoQD_15unDelegate_test
FNDA:32,_RNvXNtCs2WGRDwQOHLQ_14liquid_staking6configINtB4_11ContractObjINtNtNtNtCseUmQFO6d1K9_22multiversx_sc_scenario3api7impl_vh12vm_hooks_api10VMHooksApiNtNtB13_9debug_api15DebugApiBackendEENtB2_12ConfigModule5stateCsVH6ELXPoQD_15unDelegate_test
FNDA:36,_RNvXNtCs2WGRDwQOHLQ_14liquid_staking6configINtB4_11ContractObjINtNtNtNtCseUmQFO6d1K9_22multiversx_sc_scenario3api7impl_vh12vm_hooks_api10VMHooksApiNtNtB13_9debug_api15DebugApiBackendEENtB2_12ConfigModule8ls_tokenCsVH6ELXPoQD_15unDelegate_test
FNDA:17,_RNvYINtCs2WGRDwQOHLQ_14liquid_staking11ContractObjINtNtNtNtCseUmQFO6d1K9_22multiversx_sc_scenario3api7impl_vh12vm_hooks_api10VMHooksApiNtNtBR_9debug_api15DebugApiBackendEENtNtB5_6config12ConfigModule15is_state_activeCsVH6ELXPoQD_15unDelegate_test
FNDA:5,_RNvYINtCs2WGRDwQOHLQ_14liquid_staking11ContractObjINtNtNtNtCseUmQFO6d1K9_22multiversx_sc_scenario3api7impl_vh12vm_hooks_api10VMHooksApiNtNtBR_9debug_api15DebugApiBackendEENtNtB5_6config12ConfigModule16set_state_activeCsVH6ELXPoQD_15unDelegate_test
FNDA:0,_RNvYINtCs2WGRDwQOHLQ_14liquid_staking11ContractObjINtNtNtNtCseUmQFO6d1K9_22multiversx_sc_scenario3api7impl_vh12vm_hooks_api10VMHooksApiNtNtBR_9debug_api15DebugApiBackendEENtNtB5_6config12ConfigModule17register_ls_tokenCsVH6ELXPoQD_15unDelegate_test
FNDA:0,_RNvYINtCs2WGRDwQOHLQ_14liquid_staking11ContractObjINtNtNtNtCseUmQFO6d1K9_22multiversx_sc_scenario3api7impl_vh12vm_hooks_api10VMHooksApiNtNtBR_9debug_api15DebugApiBackendEENtNtB5_6config12ConfigModule18set_minimum_roundsCsVH6ELXPoQD_15unDelegate_test
FNDA:0,_RNvYINtCs2WGRDwQOHLQ_14liquid_staking11ContractObjINtNtNtNtCseUmQFO6d1K9_22multiversx_sc_scenario3api7impl_vh12vm_hooks_api10VMHooksApiNtNtBR_9debug_api15DebugApiBackendEENtNtB5_6config12ConfigModule18set_state_inactiveCsVH6ELXPoQD_15unDelegate_test
FNDA:0,_RNvYINtCs2WGRDwQOHLQ_14liquid_staking11ContractObjINtNtNtNtCseUmQFO6d1K9_22multiversx_sc_scenario3api7impl_vh12vm_hooks_api10VMHooksApiNtNtBR_9debug_api15DebugApiBackendEENtNtB5_6config12ConfigModule20set_rounds_per_epochCsVH6ELXPoQD_15unDelegate_test
FNDA:0,_RNvYINtCs2WGRDwQOHLQ_14liquid_staking11ContractObjINtNtNtNtCseUmQFO6d1K9_22multiversx_sc_scenario3api7impl_vh12vm_hooks_api10VMHooksApiNtNtBR_9debug_api15DebugApiBackendEENtNtB5_6config12ConfigModule22register_unstake_tokenCsVH6ELXPoQD_15unDelegate_test
FNDA:0,_RNvYINtCs2WGRDwQOHLQ_14liquid_staking11ContractObjINtNtNtNtCseUmQFO6d1K9_22multiversx_sc_scenario3api7impl_vh12vm_hooks_api10VMHooksApiNtNtBR_9debug_api15DebugApiBackendEENtNtB5_6config12ConfigModule24set_accumulator_contractCsVH6ELXPoQD_15unDelegate_test
FNDA:0,_RNvYINtCs2WGRDwQOHLQ_14liquid_staking11ContractObjINtNtNtNtCseUmQFO6d1K9_22multiversx_sc_scenario3api7impl_vh12vm_hooks_api10VMHooksApiNtNtBR_9debug_api15DebugApiBackendEENtNtB5_6config12ConfigModule8set_feesCsVH6ELXPoQD_15unDelegate_test
FNDA:0,_RNvYINtCs2WGRDwQOHLQ_14liquid_staking11ContractObjINtNtNtNtCseUmQFO6d1K9_22multiversx_sc_scenario3api7impl_vh12vm_hooks_api10VMHooksApiNtNtBR_9debug_api15DebugApiBackendEENtNtB5_6config16EndpointWrappers10call_stateCsVH6ELXPoQD_15unDelegate_test
FNDA:0,_RNvYINtCs2WGRDwQOHLQ_14liquid_staking11ContractObjINtNtNtNtCseUmQFO6d1K9_22multiversx_sc_scenario3api7impl_vh12vm_hooks_api10VMHooksApiNtNtBR_9debug_api15DebugApiBackendEENtNtB5_6config16EndpointWrappers13call_ls_tokenCsVH6ELXPoQD_15unDelegate_test
FNDA:0,_RNvYINtCs2WGRDwQOHLQ_14liquid_staking11ContractObjINtNtNtNtCseUmQFO6d1K9_22multiversx_sc_scenario3api7impl_vh12vm_hooks_api10VMHooksApiNtNtBR_9debug_api15DebugApiBackendEENtNtB5_6config16EndpointWrappers13call_set_feesCsVH6ELXPoQD_15unDelegate_test
FNDA:0,_RNvYINtCs2WGRDwQOHLQ_14liquid_staking11ContractObjINtNtNtNtCseUmQFO6d1K9_22multiversx_sc_scenario3api7impl_vh12vm_hooks_api10VMHooksApiNtNtBR_9debug_api15DebugApiBackendEENtNtB5_6config16EndpointWrappers17call_pending_egldCsVH6ELXPoQD_15unDelegate_test
FNDA:0,_RNvYINtCs2WGRDwQOHLQ_14liquid_staking11ContractObjINtNtNtNtCseUmQFO6d1K9_22multiversx_sc_scenario3api7impl_vh12vm_hooks_api10VMHooksApiNtNtBR_9debug_api15DebugApiBackendEENtNtB5_6config16EndpointWrappers17callback_selectorCsVH6ELXPoQD_15unDelegate_test
FNDA:0,_RNvYINtCs2WGRDwQOHLQ_14liquid_staking11ContractObjINtNtNtNtCseUmQFO6d1K9_22multiversx_sc_scenario3api7impl_vh12vm_hooks_api10VMHooksApiNtNtBR_9debug_api15DebugApiBackendEENtNtB5_6config16EndpointWrappers18call_unstake_tokenCsVH6ELXPoQD_15unDelegate_test
FNDA:0,_RNvYINtCs2WGRDwQOHLQ_14liquid_staking11ContractObjINtNtNtNtCseUmQFO6d1K9_22multiversx_sc_scenario3api7impl_vh12vm_hooks_api10VMHooksApiNtNtBR_9debug_api15DebugApiBackendEENtNtB5_6config16EndpointWrappers19call_minimum_roundsCsVH6ELXPoQD_15unDelegate_test
FNDA:0,_RNvYINtCs2WGRDwQOHLQ_14liquid_staking11ContractObjINtNtNtNtCseUmQFO6d1K9_22multiversx_sc_scenario3api7impl_vh12vm_hooks_api10VMHooksApiNtNtBR_9debug_api15DebugApiBackendEENtNtB5_6config16EndpointWrappers20call_ls_token_supplyCsVH6ELXPoQD_15unDelegate_test
FNDA:0,_RNvYINtCs2WGRDwQOHLQ_14liquid_staking11ContractObjINtNtNtNtCseUmQFO6d1K9_22multiversx_sc_scenario3api7impl_vh12vm_hooks_api10VMHooksApiNtNtBR_9debug_api15DebugApiBackendEENtNtB5_6config16EndpointWrappers20call_rewards_reserveCsVH6ELXPoQD_15unDelegate_test
FNDA:0,_RNvYINtCs2WGRDwQOHLQ_14liquid_staking11ContractObjINtNtNtNtCseUmQFO6d1K9_22multiversx_sc_scenario3api7impl_vh12vm_hooks_api10VMHooksApiNtNtBR_9debug_api15DebugApiBackendEENtNtB5_6config16EndpointWrappers21call_rounds_per_epochCsVH6ELXPoQD_15unDelegate_test
FNDA:0,_RNvYINtCs2WGRDwQOHLQ_14liquid_staking11ContractObjINtNtNtNtCseUmQFO6d1K9_22multiversx_sc_scenario3api7impl_vh12vm_hooks_api10VMHooksApiNtNtBR_9debug_api15DebugApiBackendEENtNtB5_6config16EndpointWrappers21call_set_state_activeCsVH6ELXPoQD_15unDelegate_test
FNDA:0,_RNvYINtCs2WGRDwQOHLQ_14liquid_staking11ContractObjINtNtNtNtCseUmQFO6d1K9_22multiversx_sc_scenario3api7impl_vh12vm_hooks_api10VMHooksApiNtNtBR_9debug_api15DebugApiBackendEENtNtB5_6config16EndpointWrappers22call_register_ls_tokenCsVH6ELXPoQD_15unDelegate_test
FNDA:0,_RNvYINtCs2WGRDwQOHLQ_14liquid_staking11ContractObjINtNtNtNtCseUmQFO6d1K9_22multiversx_sc_scenario3api7impl_vh12vm_hooks_api10VMHooksApiNtNtBR_9debug_api15DebugApiBackendEENtNtB5_6config16EndpointWrappers23call_set_minimum_roundsCsVH6ELXPoQD_15unDelegate_test
FNDA:0,_RNvYINtCs2WGRDwQOHLQ_14liquid_staking11ContractObjINtNtNtNtCseUmQFO6d1K9_22multiversx_sc_scenario3api7impl_vh12vm_hooks_api10VMHooksApiNtNtBR_9debug_api15DebugApiBackendEENtNtB5_6config16EndpointWrappers23call_set_state_inactiveCsVH6ELXPoQD_15unDelegate_test
FNDA:0,_RNvYINtCs2WGRDwQOHLQ_14liquid_staking11ContractObjINtNtNtNtCseUmQFO6d1K9_22multiversx_sc_scenario3api7impl_vh12vm_hooks_api10VMHooksApiNtNtBR_9debug_api15DebugApiBackendEENtNtB5_6config16EndpointWrappers24call_unstake_token_nonceCsVH6ELXPoQD_15unDelegate_test
FNDA:0,_RNvYINtCs2WGRDwQOHLQ_14liquid_staking11ContractObjINtNtNtNtCseUmQFO6d1K9_22multiversx_sc_scenario3api7impl_vh12vm_hooks_api10VMHooksApiNtNtBR_9debug_api15DebugApiBackendEENtNtB5_6config16EndpointWrappers25call_accumulator_contractCsVH6ELXPoQD_15unDelegate_test
FNDA:0,_RNvYINtCs2WGRDwQOHLQ_14liquid_staking11ContractObjINtNtNtNtCseUmQFO6d1K9_22multiversx_sc_scenario3api7impl_vh12vm_hooks_api10VMHooksApiNtNtBR_9debug_api15DebugApiBackendEENtNtB5_6config16EndpointWrappers25call_set_rounds_per_epochCsVH6ELXPoQD_15unDelegate_test
FNDA:0,_RNvYINtCs2WGRDwQOHLQ_14liquid_staking11ContractObjINtNtNtNtCseUmQFO6d1K9_22multiversx_sc_scenario3api7impl_vh12vm_hooks_api10VMHooksApiNtNtBR_9debug_api15DebugApiBackendEENtNtB5_6config16EndpointWrappers25call_total_withdrawn_egldCsVH6ELXPoQD_15unDelegate_test
FNDA:0,_RNvYINtCs2WGRDwQOHLQ_14liquid_staking11ContractObjINtNtNtNtCseUmQFO6d1K9_22multiversx_sc_scenario3api7impl_vh12vm_hooks_api10VMHooksApiNtNtBR_9debug_api15DebugApiBackendEENtNtB5_6config16EndpointWrappers25call_virtual_egld_reserveCsVH6ELXPoQD_15unDelegate_test
FNDA:0,_RNvYINtCs2WGRDwQOHLQ_14liquid_staking11ContractObjINtNtNtNtCseUmQFO6d1K9_22multiversx_sc_scenario3api7impl_vh12vm_hooks_api10VMHooksApiNtNtBR_9debug_api15DebugApiBackendEENtNtB5_6config16EndpointWrappers27call_pending_ls_for_unstakeCsVH6ELXPoQD_15unDelegate_test
FNDA:0,_RNvYINtCs2WGRDwQOHLQ_14liquid_staking11ContractObjINtNtNtNtCseUmQFO6d1K9_22multiversx_sc_scenario3api7impl_vh12vm_hooks_api10VMHooksApiNtNtBR_9debug_api15DebugApiBackendEENtNtB5_6config16EndpointWrappers27call_register_unstake_tokenCsVH6ELXPoQD_15unDelegate_test
FNDA:0,_RNvYINtCs2WGRDwQOHLQ_14liquid_staking11ContractObjINtNtNtNtCseUmQFO6d1K9_22multiversx_sc_scenario3api7impl_vh12vm_hooks_api10VMHooksApiNtNtBR_9debug_api15DebugApiBackendEENtNtB5_6config16EndpointWrappers29call_set_accumulator_contractCsVH6ELXPoQD_15unDelegate_test
FNDA:40,_RNvYINtCs2WGRDwQOHLQ_14liquid_staking11ContractObjINtNtNtNtCseUmQFO6d1K9_22multiversx_sc_scenario3api7impl_vh12vm_hooks_api10VMHooksApiNtNtBR_9debug_api15DebugApiBackendEENtNtB5_6config16EndpointWrappers4callCsVH6ELXPoQD_15unDelegate_test
FNDA:0,_RNvYINtCs2WGRDwQOHLQ_14liquid_staking11ContractObjINtNtNtNtCseUmQFO6d1K9_22multiversx_sc_scenario3api7impl_vh12vm_hooks_api10VMHooksApiNtNtBR_9debug_api15DebugApiBackendEENtNtB5_6config16EndpointWrappers8callbackCsVH6ELXPoQD_15unDelegate_test
FNDA:0,_RNvYINtCs2WGRDwQOHLQ_14liquid_staking11ContractObjINtNtNtNtCseUmQFO6d1K9_22multiversx_sc_scenario3api7impl_vh12vm_hooks_api10VMHooksApiNtNtBR_9debug_api15DebugApiBackendEENtNtB5_6config16EndpointWrappers9call_feesCsVH6ELXPoQD_15unDelegate_test
FNDA:90,_RNvXNtCs2WGRDwQOHLQ_14liquid_staking6configINtB4_11ContractObjINtNtNtNtCseUmQFO6d1K9_22multiversx_sc_scenario3api7impl_vh12vm_hooks_api10VMHooksApiNtNtB13_9debug_api15DebugApiBackendEENtB2_12ConfigModule12pending_egldCshHwHQpnfuGH_11unbond_test
FNDA:28,_RNvXNtCs2WGRDwQOHLQ_14liquid_staking6configINtB4_11ContractObjINtNtNtNtCseUmQFO6d1K9_22multiversx_sc_scenario3api7impl_vh12vm_hooks_api10VMHooksApiNtNtB13_9debug_api15DebugApiBackendEENtB2_12ConfigModule13unstake_tokenCshHwHQpnfuGH_11unbond_test
FNDA:15,_RNvXNtCs2WGRDwQOHLQ_14liquid_staking6configINtB4_11ContractObjINtNtNtNtCseUmQFO6d1K9_22multiversx_sc_scenario3api7impl_vh12vm_hooks_api10VMHooksApiNtNtB13_9debug_api15DebugApiBackendEENtB2_12ConfigModule14minimum_roundsCshHwHQpnfuGH_11unbond_test
FNDA:90,_RNvXNtCs2WGRDwQOHLQ_14liquid_staking6configINtB4_11ContractObjINtNtNtNtCseUmQFO6d1K9_22multiversx_sc_scenario3api7impl_vh12vm_hooks_api10VMHooksApiNtNtB13_9debug_api15DebugApiBackendEENtB2_12ConfigModule15ls_token_supplyCshHwHQpnfuGH_11unbond_test
FNDA:90,_RNvXNtCs2WGRDwQOHLQ_14liquid_staking6configINtB4_11ContractObjINtNtNtNtCseUmQFO6d1K9_22multiversx_sc_scenario3api7impl_vh12vm_hooks_api10VMHooksApiNtNtB13_9debug_api15DebugApiBackendEENtB2_12ConfigModule15rewards_reserveCshHwHQpnfuGH_11unbond_test
FNDA:15,_RNvXNtCs2WGRDwQOHLQ_14liquid_staking6configINtB4_11ContractObjINtNtNtNtCseUmQFO6d1K9_22multiversx_sc_scenario3api7impl_vh12vm_hooks_api10VMHooksApiNtNtB13_9debug_api15DebugApiBackendEENtB2_12ConfigModule16rounds_per_epochCshHwHQpnfuGH_11unbond_test
FNDA:5,_RNvXNtCs2WGRDwQOHLQ_14liquid_staking6configINtB4_11ContractObjINtNtNtNtCseUmQFO6d1K9_22multiversx_sc_scenario3api7impl_vh12vm_hooks_api10VMHooksApiNtNtB13_9debug_api15DebugApiBackendEENtB2_12ConfigModule19unstake_token_nonceCshHwHQpnfuGH_11unbond_test
FNDA:5,_RNvXNtCs2WGRDwQOHLQ_14liquid_staking6configINtB4_11ContractObjINtNtNtNtCseUmQFO6d1K9_22multiversx_sc_scenario3api7impl_vh12vm_hooks_api10VMHooksApiNtNtB13_9debug_api15DebugApiBackendEENtB2_12ConfigModule20accumulator_contractCshHwHQpnfuGH_11unbond_test
FNDA:90,_RNvXNtCs2WGRDwQOHLQ_14liquid_staking6configINtB4_11ContractObjINtNtNtNtCseUmQFO6d1K9_22multiversx_sc_scenario3api7impl_vh12vm_hooks_api10VMHooksApiNtNtB13_9debug_api15DebugApiBackendEENtB2_12ConfigModule20total_withdrawn_egldCshHwHQpnfuGH_11unbond_test
FNDA:90,_RNvXNtCs2WGRDwQOHLQ_14liquid_staking6configINtB4_11ContractObjINtNtNtNtCseUmQFO6d1K9_22multiversx_sc_scenario3api7impl_vh12vm_hooks_api10VMHooksApiNtNtB13_9debug_api15DebugApiBackendEENtB2_12ConfigModule20virtual_egld_reserveCshHwHQpnfuGH_11unbond_test
FNDA:90,_RNvXNtCs2WGRDwQOHLQ_14liquid_staking6configINtB4_11ContractObjINtNtNtNtCseUmQFO6d1K9_22multiversx_sc_scenario3api7impl_vh12vm_hooks_api10VMHooksApiNtNtB13_9debug_api15DebugApiBackendEENtB2_12ConfigModule22pending_ls_for_unstakeCshHwHQpnfuGH_11unbond_test
FNDA:5,_RNvXNtCs2WGRDwQOHLQ_14liquid_staking6configINtB4_11ContractObjINtNtNtNtCseUmQFO6d1K9_22multiversx_sc_scenario3api7impl_vh12vm_hooks_api10VMHooksApiNtNtB13_9debug_api15DebugApiBackendEENtB2_12ConfigModule4feesCshHwHQpnfuGH_11unbond_test
FNDA:54,_RNvXNtCs2WGRDwQOHLQ_14liquid_staking6configINtB4_11ContractObjINtNtNtNtCseUmQFO6d1K9_22multiversx_sc_scenario3api7impl_vh12vm_hooks_api10VMHooksApiNtNtB13_9debug_api15DebugApiBackendEENtB2_12ConfigModule5stateCshHwHQpnfuGH_11unbond_test
FNDA:58,_RNvXNtCs2WGRDwQOHLQ_14liquid_staking6configINtB4_11ContractObjINtNtNtNtCseUmQFO6d1K9_22multiversx_sc_scenario3api7impl_vh12vm_hooks_api10VMHooksApiNtNtB13_9debug_api15DebugApiBackendEENtB2_12ConfigModule8ls_tokenCshHwHQpnfuGH_11unbond_test
FNDA:29,_RNvYINtCs2WGRDwQOHLQ_14liquid_staking11ContractObjINtNtNtNtCseUmQFO6d1K9_22multiversx_sc_scenario3api7impl_vh12vm_hooks_api10VMHooksApiNtNtBR_9debug_api15DebugApiBackendEENtNtB5_6config12ConfigModule15is_state_activeCshHwHQpnfuGH_11unbond_test
FNDA:5,_RNvYINtCs2WGRDwQOHLQ_14liquid_staking11ContractObjINtNtNtNtCseUmQFO6d1K9_22multiversx_sc_scenario3api7impl_vh12vm_hooks_api10VMHooksApiNtNtBR_9debug_api15DebugApiBackendEENtNtB5_6config12ConfigModule16set_state_activeCshHwHQpnfuGH_11unbond_test
FNDA:0,_RNvYINtCs2WGRDwQOHLQ_14liquid_staking11ContractObjINtNtNtNtCseUmQFO6d1K9_22multiversx_sc_scenario3api7impl_vh12vm_hooks_api10VMHooksApiNtNtBR_9debug_api15DebugApiBackendEENtNtB5_6config12ConfigModule17register_ls_tokenCshHwHQpnfuGH_11unbond_test
FNDA:0,_RNvYINtCs2WGRDwQOHLQ_14liquid_staking11ContractObjINtNtNtNtCseUmQFO6d1K9_22multiversx_sc_scenario3api7impl_vh12vm_hooks_api10VMHooksApiNtNtBR_9debug_api15DebugApiBackendEENtNtB5_6config12ConfigModule18set_minimum_roundsCshHwHQpnfuGH_11unbond_test
FNDA:1,_RNvYINtCs2WGRDwQOHLQ_14liquid_staking11ContractObjINtNtNtNtCseUmQFO6d1K9_22multiversx_sc_scenario3api7impl_vh12vm_hooks_api10VMHooksApiNtNtBR_9debug_api15DebugApiBackendEENtNtB5_6config12ConfigModule18set_state_inactiveCshHwHQpnfuGH_11unbond_test
FNDA:0,_RNvYINtCs2WGRDwQOHLQ_14liquid_staking11ContractObjINtNtNtNtCseUmQFO6d1K9_22multiversx_sc_scenario3api7impl_vh12vm_hooks_api10VMHooksApiNtNtBR_9debug_api15DebugApiBackendEENtNtB5_6config12ConfigModule20set_rounds_per_epochCshHwHQpnfuGH_11unbond_test
FNDA:0,_RNvYINtCs2WGRDwQOHLQ_14liquid_staking11ContractObjINtNtNtNtCseUmQFO6d1K9_22multiversx_sc_scenario3api7impl_vh12vm_hooks_api10VMHooksApiNtNtBR_9debug_api15DebugApiBackendEENtNtB5_6config12ConfigModule22register_unstake_tokenCshHwHQpnfuGH_11unbond_test
FNDA:0,_RNvYINtCs2WGRDwQOHLQ_14liquid_staking11ContractObjINtNtNtNtCseUmQFO6d1K9_22multiversx_sc_scenario3api7impl_vh12vm_hooks_api10VMHooksApiNtNtBR_9debug_api15DebugApiBackendEENtNtB5_6config12ConfigModule24set_accumulator_contractCshHwHQpnfuGH_11unbond_test
FNDA:0,_RNvYINtCs2WGRDwQOHLQ_14liquid_staking11ContractObjINtNtNtNtCseUmQFO6d1K9_22multiversx_sc_scenario3api7impl_vh12vm_hooks_api10VMHooksApiNtNtBR_9debug_api15DebugApiBackendEENtNtB5_6config12ConfigModule8set_feesCshHwHQpnfuGH_11unbond_test
FNDA:0,_RNvYINtCs2WGRDwQOHLQ_14liquid_staking11ContractObjINtNtNtNtCseUmQFO6d1K9_22multiversx_sc_scenario3api7impl_vh12vm_hooks_api10VMHooksApiNtNtBR_9debug_api15DebugApiBackendEENtNtB5_6config16EndpointWrappers10call_stateCshHwHQpnfuGH_11unbond_test
FNDA:0,_RNvYINtCs2WGRDwQOHLQ_14liquid_staking11ContractObjINtNtNtNtCseUmQFO6d1K9_22multiversx_sc_scenario3api7impl_vh12vm_hooks_api10VMHooksApiNtNtBR_9debug_api15DebugApiBackendEENtNtB5_6config16EndpointWrappers13call_ls_tokenCshHwHQpnfuGH_11unbond_test
FNDA:0,_RNvYINtCs2WGRDwQOHLQ_14liquid_staking11ContractObjINtNtNtNtCseUmQFO6d1K9_22multiversx_sc_scenario3api7impl_vh12vm_hooks_api10VMHooksApiNtNtBR_9debug_api15DebugApiBackendEENtNtB5_6config16EndpointWrappers13call_set_feesCshHwHQpnfuGH_11unbond_test
FNDA:0,_RNvYINtCs2WGRDwQOHLQ_14liquid_staking11ContractObjINtNtNtNtCseUmQFO6d1K9_22multiversx_sc_scenario3api7impl_vh12vm_hooks_api10VMHooksApiNtNtBR_9debug_api15DebugApiBackendEENtNtB5_6config16EndpointWrappers17call_pending_egldCshHwHQpnfuGH_11unbond_test
FNDA:0,_RNvYINtCs2WGRDwQOHLQ_14liquid_staking11ContractObjINtNtNtNtCseUmQFO6d1K9_22multiversx_sc_scenario3api7impl_vh12vm_hooks_api10VMHooksApiNtNtBR_9debug_api15DebugApiBackendEENtNtB5_6config16EndpointWrappers17callback_selectorCshHwHQpnfuGH_11unbond_test
FNDA:0,_RNvYINtCs2WGRDwQOHLQ_14liquid_staking11ContractObjINtNtNtNtCseUmQFO6d1K9_22multiversx_sc_scenario3api7impl_vh12vm_hooks_api10VMHooksApiNtNtBR_9debug_api15DebugApiBackendEENtNtB5_6config16EndpointWrappers18call_unstake_tokenCshHwHQpnfuGH_11unbond_test
FNDA:0,_RNvYINtCs2WGRDwQOHLQ_14liquid_staking11ContractObjINtNtNtNtCseUmQFO6d1K9_22multiversx_sc_scenario3api7impl_vh12vm_hooks_api10VMHooksApiNtNtBR_9debug_api15DebugApiBackendEENtNtB5_6config16EndpointWrappers19call_minimum_roundsCshHwHQpnfuGH_11unbond_test
FNDA:0,_RNvYINtCs2WGRDwQOHLQ_14liquid_staking11ContractObjINtNtNtNtCseUmQFO6d1K9_22multiversx_sc_scenario3api7impl_vh12vm_hooks_api10VMHooksApiNtNtBR_9debug_api15DebugApiBackendEENtNtB5_6config16EndpointWrappers20call_ls_token_supplyCshHwHQpnfuGH_11unbond_test
FNDA:0,_RNvYINtCs2WGRDwQOHLQ_14liquid_staking11ContractObjINtNtNtNtCseUmQFO6d1K9_22multiversx_sc_scenario3api7impl_vh12vm_hooks_api10VMHooksApiNtNtBR_9debug_api15DebugApiBackendEENtNtB5_6config16EndpointWrappers20call_rewards_reserveCshHwHQpnfuGH_11unbond_test
FNDA:0,_RNvYINtCs2WGRDwQOHLQ_14liquid_staking11ContractObjINtNtNtNtCseUmQFO6d1K9_22multiversx_sc_scenario3api7impl_vh12vm_hooks_api10VMHooksApiNtNtBR_9debug_api15DebugApiBackendEENtNtB5_6config16EndpointWrappers21call_rounds_per_epochCshHwHQpnfuGH_11unbond_test
FNDA:0,_RNvYINtCs2WGRDwQOHLQ_14liquid_staking11ContractObjINtNtNtNtCseUmQFO6d1K9_22multiversx_sc_scenario3api7impl_vh12vm_hooks_api10VMHooksApiNtNtBR_9debug_api15DebugApiBackendEENtNtB5_6config16EndpointWrappers21call_set_state_activeCshHwHQpnfuGH_11unbond_test
FNDA:0,_RNvYINtCs2WGRDwQOHLQ_14liquid_staking11ContractObjINtNtNtNtCseUmQFO6d1K9_22multiversx_sc_scenario3api7impl_vh12vm_hooks_api10VMHooksApiNtNtBR_9debug_api15DebugApiBackendEENtNtB5_6config16EndpointWrappers22call_register_ls_tokenCshHwHQpnfuGH_11unbond_test
FNDA:0,_RNvYINtCs2WGRDwQOHLQ_14liquid_staking11ContractObjINtNtNtNtCseUmQFO6d1K9_22multiversx_sc_scenario3api7impl_vh12vm_hooks_api10VMHooksApiNtNtBR_9debug_api15DebugApiBackendEENtNtB5_6config16EndpointWrappers23call_set_minimum_roundsCshHwHQpnfuGH_11unbond_test
FNDA:0,_RNvYINtCs2WGRDwQOHLQ_14liquid_staking11ContractObjINtNtNtNtCseUmQFO6d1K9_22multiversx_sc_scenario3api7impl_vh12vm_hooks_api10VMHooksApiNtNtBR_9debug_api15DebugApiBackendEENtNtB5_6config16EndpointWrappers23call_set_state_inactiveCshHwHQpnfuGH_11unbond_test
FNDA:0,_RNvYINtCs2WGRDwQOHLQ_14liquid_staking11ContractObjINtNtNtNtCseUmQFO6d1K9_22multiversx_sc_scenario3api7impl_vh12vm_hooks_api10VMHooksApiNtNtBR_9debug_api15DebugApiBackendEENtNtB5_6config16EndpointWrappers24call_unstake_token_nonceCshHwHQpnfuGH_11unbond_test
FNDA:0,_RNvYINtCs2WGRDwQOHLQ_14liquid_staking11ContractObjINtNtNtNtCseUmQFO6d1K9_22multiversx_sc_scenario3api7impl_vh12vm_hooks_api10VMHooksApiNtNtBR_9debug_api15DebugApiBackendEENtNtB5_6config16EndpointWrappers25call_accumulator_contractCshHwHQpnfuGH_11unbond_test
FNDA:0,_RNvYINtCs2WGRDwQOHLQ_14liquid_staking11ContractObjINtNtNtNtCseUmQFO6d1K9_22multiversx_sc_scenario3api7impl_vh12vm_hooks_api10VMHooksApiNtNtBR_9debug_api15DebugApiBackendEENtNtB5_6config16EndpointWrappers25call_set_rounds_per_epochCshHwHQpnfuGH_11unbond_test
FNDA:0,_RNvYINtCs2WGRDwQOHLQ_14liquid_staking11ContractObjINtNtNtNtCseUmQFO6d1K9_22multiversx_sc_scenario3api7impl_vh12vm_hooks_api10VMHooksApiNtNtBR_9debug_api15DebugApiBackendEENtNtB5_6config16EndpointWrappers25call_total_withdrawn_egldCshHwHQpnfuGH_11unbond_test
FNDA:0,_RNvYINtCs2WGRDwQOHLQ_14liquid_staking11ContractObjINtNtNtNtCseUmQFO6d1K9_22multiversx_sc_scenario3api7impl_vh12vm_hooks_api10VMHooksApiNtNtBR_9debug_api15DebugApiBackendEENtNtB5_6config16EndpointWrappers25call_virtual_egld_reserveCshHwHQpnfuGH_11unbond_test
FNDA:0,_RNvYINtCs2WGRDwQOHLQ_14liquid_staking11ContractObjINtNtNtNtCseUmQFO6d1K9_22multiversx_sc_scenario3api7impl_vh12vm_hooks_api10VMHooksApiNtNtBR_9debug_api15DebugApiBackendEENtNtB5_6config16EndpointWrappers27call_pending_ls_for_unstakeCshHwHQpnfuGH_11unbond_test
FNDA:0,_RNvYINtCs2WGRDwQOHLQ_14liquid_staking11ContractObjINtNtNtNtCseUmQFO6d1K9_22multiversx_sc_scenario3api7impl_vh12vm_hooks_api10VMHooksApiNtNtBR_9debug_api15DebugApiBackendEENtNtB5_6config16EndpointWrappers27call_register_unstake_tokenCshHwHQpnfuGH_11unbond_test
FNDA:0,_RNvYINtCs2WGRDwQOHLQ_14liquid_staking11ContractObjINtNtNtNtCseUmQFO6d1K9_22multiversx_sc_scenario3api7impl_vh12vm_hooks_api10VMHooksApiNtNtBR_9debug_api15DebugApiBackendEENtNtB5_6config16EndpointWrappers29call_set_accumulator_contractCshHwHQpnfuGH_11unbond_test
FNDA:112,_RNvYINtCs2WGRDwQOHLQ_14liquid_staking11ContractObjINtNtNtNtCseUmQFO6d1K9_22multiversx_sc_scenario3api7impl_vh12vm_hooks_api10VMHooksApiNtNtBR_9debug_api15DebugApiBackendEENtNtB5_6config16EndpointWrappers4callCshHwHQpnfuGH_11unbond_test
FNDA:0,_RNvYINtCs2WGRDwQOHLQ_14liquid_staking11ContractObjINtNtNtNtCseUmQFO6d1K9_22multiversx_sc_scenario3api7impl_vh12vm_hooks_api10VMHooksApiNtNtBR_9debug_api15DebugApiBackendEENtNtB5_6config16EndpointWrappers8callbackCshHwHQpnfuGH_11unbond_test
FNDA:0,_RNvYINtCs2WGRDwQOHLQ_14liquid_staking11ContractObjINtNtNtNtCseUmQFO6d1K9_22multiversx_sc_scenario3api7impl_vh12vm_hooks_api10VMHooksApiNtNtBR_9debug_api15DebugApiBackendEENtNtB5_6config16EndpointWrappers9call_feesCshHwHQpnfuGH_11unbond_test
FNF:10
FNH:4
DA:9,408
DA:19,0
DA:20,0
DA:21,0
DA:22,0
DA:23,0
DA:24,0
DA:25,0
DA:26,0
DA:27,0
DA:38,0
DA:39,0
DA:40,0
DA:41,0
DA:42,0
DA:43,0
DA:44,0
DA:45,0
DA:46,0
DA:47,0
DA:52,23
DA:53,23
DA:58,2
DA:59,2
DA:64,0
DA:65,0
DA:70,0
DA:71,0
DA:76,0
DA:77,0
DA:82,0
DA:83,0
DA:87,97
DA:88,97
BRF:0
BRH:0
LF:34
LH:7
end_of_record
SF:/Users/mihaieremia/GitHub/rs-egld-liquid-staking/liquid-staking/src/contexts/base.rs
FN:25,_RNvMNtNtCs2WGRDwQOHLQ_14liquid_staking8contexts4baseINtB2_12StorageCacheINtB6_11ContractObjINtNtNtNtCseUmQFO6d1K9_22multiversx_sc_scenario3api7impl_vh12vm_hooks_api10VMHooksApiNtNtB1w_9debug_api15DebugApiBackendEEE3newCskEhliFuVTlV_13delegate_test
FN:44,_RNvXs_NtNtCs2WGRDwQOHLQ_14liquid_staking8contexts4baseINtB4_12StorageCacheINtB8_11ContractObjINtNtNtNtCseUmQFO6d1K9_22multiversx_sc_scenario3api7impl_vh12vm_hooks_api10VMHooksApiNtNtB1y_9debug_api15DebugApiBackendEEENtNtNtCslGS7pEIChKc_4core3ops4drop4Drop4dropCskEhliFuVTlV_13delegate_test
FN:25,_RNvMNtNtCsdRzYvL09OST_14liquid_staking8contexts4baseINtB2_12StorageCachepE3newB6_
FN:44,_RNvXININtNtCsdRzYvL09OST_14liquid_staking8contexts4bases_0pEINtB5_12StorageCachepENtNtNtCslGS7pEIChKc_4core3ops4drop4Drop4dropB9_
FN:44,_RNvXs_NtNtCs2WGRDwQOHLQ_14liquid_staking8contexts4baseINtB4_12StorageCacheINtB8_11ContractObjINtNtNtNtCseUmQFO6d1K9_22multiversx_sc_scenario3api7impl_vh12vm_hooks_api10VMHooksApiNtNtB1y_9debug_api15DebugApiBackendEEENtNtNtCslGS7pEIChKc_4core3ops4drop4Drop4dropCsaR2MVHtCDM0_4test
FN:25,_RNvMNtNtCs2WGRDwQOHLQ_14liquid_staking8contexts4baseINtB2_12StorageCacheINtB6_11ContractObjINtNtNtNtCseUmQFO6d1K9_22multiversx_sc_scenario3api7impl_vh12vm_hooks_api10VMHooksApiNtNtB1w_9debug_api15DebugApiBackendEEE3newCsaR2MVHtCDM0_4test
FN:44,_RNvXs_NtNtCs2WGRDwQOHLQ_14liquid_staking8contexts4baseINtB4_12StorageCacheINtB8_11ContractObjINtNtNtNtCseUmQFO6d1K9_22multiversx_sc_scenario3api7impl_vh12vm_hooks_api10VMHooksApiNtNtB1y_9debug_api15DebugApiBackendEEENtNtNtCslGS7pEIChKc_4core3ops4drop4Drop4dropCsVH6ELXPoQD_15unDelegate_test
FN:25,_RNvMNtNtCs2WGRDwQOHLQ_14liquid_staking8contexts4baseINtB2_12StorageCacheINtB6_11ContractObjINtNtNtNtCseUmQFO6d1K9_22multiversx_sc_scenario3api7impl_vh12vm_hooks_api10VMHooksApiNtNtB1w_9debug_api15DebugApiBackendEEE3newCsVH6ELXPoQD_15unDelegate_test
FN:25,_RNvMNtNtCs2WGRDwQOHLQ_14liquid_staking8contexts4baseINtB2_12StorageCacheINtB6_11ContractObjINtNtNtNtCseUmQFO6d1K9_22multiversx_sc_scenario3api7impl_vh12vm_hooks_api10VMHooksApiNtNtB1w_9debug_api15DebugApiBackendEEE3newCshHwHQpnfuGH_11unbond_test
FN:44,_RNvXs_NtNtCs2WGRDwQOHLQ_14liquid_staking8contexts4baseINtB4_12StorageCacheINtB8_11ContractObjINtNtNtNtCseUmQFO6d1K9_22multiversx_sc_scenario3api7impl_vh12vm_hooks_api10VMHooksApiNtNtB1y_9debug_api15DebugApiBackendEEENtNtNtCslGS7pEIChKc_4core3ops4drop4Drop4dropCshHwHQpnfuGH_11unbond_test
FNDA:27,_RNvMNtNtCs2WGRDwQOHLQ_14liquid_staking8contexts4baseINtB2_12StorageCacheINtB6_11ContractObjINtNtNtNtCseUmQFO6d1K9_22multiversx_sc_scenario3api7impl_vh12vm_hooks_api10VMHooksApiNtNtB1w_9debug_api15DebugApiBackendEEE3newCskEhliFuVTlV_13delegate_test
FNDA:27,_RNvXs_NtNtCs2WGRDwQOHLQ_14liquid_staking8contexts4baseINtB4_12StorageCacheINtB8_11ContractObjINtNtNtNtCseUmQFO6d1K9_22multiversx_sc_scenario3api7impl_vh12vm_hooks_api10VMHooksApiNtNtB1y_9debug_api15DebugApiBackendEEENtNtNtCslGS7pEIChKc_4core3ops4drop4Drop4dropCskEhliFuVTlV_13delegate_test
FNDA:0,_RNvMNtNtCsdRzYvL09OST_14liquid_staking8contexts4baseINtB2_12StorageCachepE3newB6_
FNDA:0,_RNvXININtNtCsdRzYvL09OST_14liquid_staking8contexts4bases_0pEINtB5_12StorageCachepENtNtNtCslGS7pEIChKc_4core3ops4drop4Drop4dropB9_
FNDA:56,_RNvXs_NtNtCs2WGRDwQOHLQ_14liquid_staking8contexts4baseINtB4_12StorageCacheINtB8_11ContractObjINtNtNtNtCseUmQFO6d1K9_22multiversx_sc_scenario3api7impl_vh12vm_hooks_api10VMHooksApiNtNtB1y_9debug_api15DebugApiBackendEEENtNtNtCslGS7pEIChKc_4core3ops4drop4Drop4dropCsaR2MVHtCDM0_4test
FNDA:56,_RNvMNtNtCs2WGRDwQOHLQ_14liquid_staking8contexts4baseINtB2_12StorageCacheINtB6_11ContractObjINtNtNtNtCseUmQFO6d1K9_22multiversx_sc_scenario3api7impl_vh12vm_hooks_api10VMHooksApiNtNtB1w_9debug_api15DebugApiBackendEEE3newCsaR2MVHtCDM0_4test
FNDA:22,_RNvXs_NtNtCs2WGRDwQOHLQ_14liquid_staking8contexts4baseINtB4_12StorageCacheINtB8_11ContractObjINtNtNtNtCseUmQFO6d1K9_22multiversx_sc_scenario3api7impl_vh12vm_hooks_api10VMHooksApiNtNtB1y_9debug_api15DebugApiBackendEEENtNtNtCslGS7pEIChKc_4core3ops4drop4Drop4dropCsVH6ELXPoQD_15unDelegate_test
FNDA:22,_RNvMNtNtCs2WGRDwQOHLQ_14liquid_staking8contexts4baseINtB2_12StorageCacheINtB6_11ContractObjINtNtNtNtCseUmQFO6d1K9_22multiversx_sc_scenario3api7impl_vh12vm_hooks_api10VMHooksApiNtNtB1w_9debug_api15DebugApiBackendEEE3newCsVH6ELXPoQD_15unDelegate_test
FNDA:43,_RNvMNtNtCs2WGRDwQOHLQ_14liquid_staking8contexts4baseINtB2_12StorageCacheINtB6_11ContractObjINtNtNtNtCseUmQFO6d1K9_22multiversx_sc_scenario3api7impl_vh12vm_hooks_api10VMHooksApiNtNtB1w_9debug_api15DebugApiBackendEEE3newCshHwHQpnfuGH_11unbond_test
FNDA:43,_RNvXs_NtNtCs2WGRDwQOHLQ_14liquid_staking8contexts4baseINtB4_12StorageCacheINtB8_11ContractObjINtNtNtNtCseUmQFO6d1K9_22multiversx_sc_scenario3api7impl_vh12vm_hooks_api10VMHooksApiNtNtB1y_9debug_api15DebugApiBackendEEENtNtNtCslGS7pEIChKc_4core3ops4drop4Drop4dropCshHwHQpnfuGH_11unbond_test
FNF:2
FNH:2
DA:25,148
DA:26,148
DA:27,148
DA:28,148
DA:29,148
DA:30,148
DA:31,148
DA:32,148
DA:33,148
DA:34,148
DA:35,148
DA:36,148
DA:37,148
DA:44,148
DA:45,148
DA:46,148
DA:47,148
DA:48,148
DA:49,148
DA:50,148
DA:51,148
DA:52,148
DA:53,148
DA:54,148
DA:55,148
DA:56,148
DA:57,148
DA:58,148
BRF:0
BRH:0
LF:28
LH:28
end_of_record
SF:/Users/mihaieremia/GitHub/rs-egld-liquid-staking/liquid-staking/src/delegate_utils.rs
FN:9,_RNvYINtCs2WGRDwQOHLQ_14liquid_staking11ContractObjINtNtNtNtCseUmQFO6d1K9_22multiversx_sc_scenario3api7impl_vh12vm_hooks_api10VMHooksApiNtNtBR_9debug_api15DebugApiBackendEENtNtB5_14delegate_utils16EndpointWrappers17callback_selectorCskEhliFuVTlV_13delegate_test
FN:9,_RNvYINtCs2WGRDwQOHLQ_14liquid_staking11ContractObjINtNtNtNtCseUmQFO6d1K9_22multiversx_sc_scenario3api7impl_vh12vm_hooks_api10VMHooksApiNtNtBR_9debug_api15DebugApiBackendEENtNtB5_14delegate_utils16EndpointWrappers4callCskEhliFuVTlV_13delegate_test
FN:9,_RNvYINtCs2WGRDwQOHLQ_14liquid_staking11ContractObjINtNtNtNtCseUmQFO6d1K9_22multiversx_sc_scenario3api7impl_vh12vm_hooks_api10VMHooksApiNtNtBR_9debug_api15DebugApiBackendEENtNtB5_14delegate_utils16EndpointWrappers8callbackCskEhliFuVTlV_13delegate_test
FN:89,_RNvYINtCs2WGRDwQOHLQ_14liquid_staking11ContractObjINtNtNtNtCseUmQFO6d1K9_22multiversx_sc_scenario3api7impl_vh12vm_hooks_api10VMHooksApiNtNtBR_9debug_api15DebugApiBackendEENtNtB5_14delegate_utils19DelegateUtilsModule16can_fully_redeemCskEhliFuVTlV_13delegate_test
FN:102,_RNvYINtCs2WGRDwQOHLQ_14liquid_staking11ContractObjINtNtNtNtCseUmQFO6d1K9_22multiversx_sc_scenario3api7impl_vh12vm_hooks_api10VMHooksApiNtNtBR_9debug_api15DebugApiBackendEENtNtB5_14delegate_utils19DelegateUtilsModule20can_partially_redeemCskEhliFuVTlV_13delegate_test
FN:204,_RNvYINtCs2WGRDwQOHLQ_14liquid_staking11ContractObjINtNtNtNtCseUmQFO6d1K9_22multiversx_sc_scenario3api7impl_vh12vm_hooks_api10VMHooksApiNtNtBR_9debug_api15DebugApiBackendEENtNtB5_14delegate_utils19DelegateUtilsModule20process_egld_stakingCskEhliFuVTlV_13delegate_test
FN:114,_RNvYINtCs2WGRDwQOHLQ_14liquid_staking11ContractObjINtNtNtNtCseUmQFO6d1K9_22multiversx_sc_scenario3api7impl_vh12vm_hooks_api10VMHooksApiNtNtBR_9debug_api15DebugApiBackendEENtNtB5_14delegate_utils19DelegateUtilsModule23can_fully_instant_stakeCskEhliFuVTlV_13delegate_test
FN:43,_RNvYINtCs2WGRDwQOHLQ_14liquid_staking11ContractObjINtNtNtNtCseUmQFO6d1K9_22multiversx_sc_scenario3api7impl_vh12vm_hooks_api10VMHooksApiNtNtBR_9debug_api15DebugApiBackendEENtNtB5_14delegate_utils19DelegateUtilsModule25handle_pending_redemptionCskEhliFuVTlV_13delegate_test
FN:24,_RNvYINtCs2WGRDwQOHLQ_14liquid_staking11ContractObjINtNtNtNtCseUmQFO6d1K9_22multiversx_sc_scenario3api7impl_vh12vm_hooks_api10VMHooksApiNtNtBR_9debug_api15DebugApiBackendEENtNtB5_14delegate_utils19DelegateUtilsModule26determine_delegate_amountsCskEhliFuVTlV_13delegate_test
FN:176,_RNvYINtCs2WGRDwQOHLQ_14liquid_staking11ContractObjINtNtNtNtCseUmQFO6d1K9_22multiversx_sc_scenario3api7impl_vh12vm_hooks_api10VMHooksApiNtNtBR_9debug_api15DebugApiBackendEENtNtB5_14delegate_utils19DelegateUtilsModule26process_pending_redemptionCskEhliFuVTlV_13delegate_test
FN:225,_RNvYINtCs2WGRDwQOHLQ_14liquid_staking11ContractObjINtNtNtNtCseUmQFO6d1K9_22multiversx_sc_scenario3api7impl_vh12vm_hooks_api10VMHooksApiNtNtBR_9debug_api15DebugApiBackendEENtNtB5_14delegate_utils19DelegateUtilsModule28validate_delegate_conditionsCskEhliFuVTlV_13delegate_test
FN:124,_RNvYINtCs2WGRDwQOHLQ_14liquid_staking11ContractObjINtNtNtNtCseUmQFO6d1K9_22multiversx_sc_scenario3api7impl_vh12vm_hooks_api10VMHooksApiNtNtBR_9debug_api15DebugApiBackendEENtNtB5_14delegate_utils19DelegateUtilsModule29can_handle_pending_redemptionCskEhliFuVTlV_13delegate_test
FN:134,_RNvYINtCs2WGRDwQOHLQ_14liquid_staking11ContractObjINtNtNtNtCseUmQFO6d1K9_22multiversx_sc_scenario3api7impl_vh12vm_hooks_api10VMHooksApiNtNtBR_9debug_api15DebugApiBackendEENtNtB5_14delegate_utils19DelegateUtilsModule30process_redemption_and_stakingCskEhliFuVTlV_13delegate_test
FN:24,_RNvYpNtNtCsdRzYvL09OST_14liquid_staking14delegate_utils19DelegateUtilsModule26determine_delegate_amountsB7_
FN:43,_RNvYpNtNtCsdRzYvL09OST_14liquid_staking14delegate_utils19DelegateUtilsModule25handle_pending_redemptionB7_
FN:89,_RNvYpNtNtCsdRzYvL09OST_14liquid_staking14delegate_utils19DelegateUtilsModule16can_fully_redeemB7_
FN:102,_RNvYpNtNtCsdRzYvL09OST_14liquid_staking14delegate_utils19DelegateUtilsModule20can_partially_redeemB7_
FN:114,_RNvYpNtNtCsdRzYvL09OST_14liquid_staking14delegate_utils19DelegateUtilsModule23can_fully_instant_stakeB7_
FN:124,_RNvYpNtNtCsdRzYvL09OST_14liquid_staking14delegate_utils19DelegateUtilsModule29can_handle_pending_redemptionB7_
FN:134,_RNvYpNtNtCsdRzYvL09OST_14liquid_staking14delegate_utils19DelegateUtilsModule30process_redemption_and_stakingB7_
FN:176,_RNvYpNtNtCsdRzYvL09OST_14liquid_staking14delegate_utils19DelegateUtilsModule26process_pending_redemptionB7_
FN:204,_RNvYpNtNtCsdRzYvL09OST_14liquid_staking14delegate_utils19DelegateUtilsModule20process_egld_stakingB7_
FN:225,_RNvYpNtNtCsdRzYvL09OST_14liquid_staking14delegate_utils19DelegateUtilsModule28validate_delegate_conditionsB7_
FN:9,_RNvYpNtNtCsdRzYvL09OST_14liquid_staking14delegate_utils16EndpointWrappers4callB7_
FN:9,_RNvYpNtNtCsdRzYvL09OST_14liquid_staking14delegate_utils16EndpointWrappers17callback_selectorB7_
FN:9,_RNvYpNtNtCsdRzYvL09OST_14liquid_staking14delegate_utils16EndpointWrappers8callbackB7_
FN:9,_RNvXs1_NtCsdRzYvL09OST_14liquid_staking14delegate_utilsNtB5_11AbiProviderNtNtNtCs4WmCETBkTZ5_13multiversx_sc13contract_base21contract_abi_provider19ContractAbiProvider3abi
FN:9,_RNvXININtCsdRzYvL09OST_14liquid_staking14delegate_utilssh_0pEINtB5_11ContractObjpENtNtNtCs4WmCETBkTZ5_13multiversx_sc13contract_base17callable_contract16CallableContract4callB7_
FN:9,_RINvNtCsdRzYvL09OST_14liquid_staking14delegate_utils12contract_objpEB4_
FN:9,_RINvXsi_NtCsdRzYvL09OST_14liquid_staking14delegate_utilsNtB6_15ContractBuilderNtNtNtCs4WmCETBkTZ5_13multiversx_sc13contract_base17callable_contract23CallableContractBuilder16new_contract_objpEB8_
FN:9,_RNvYINtCs2WGRDwQOHLQ_14liquid_staking11ContractObjINtNtNtNtCseUmQFO6d1K9_22multiversx_sc_scenario3api7impl_vh12vm_hooks_api10VMHooksApiNtNtBR_9debug_api15DebugApiBackendEENtNtB5_14delegate_utils16EndpointWrappers17callback_selectorCsaR2MVHtCDM0_4test
FN:9,_RNvYINtCs2WGRDwQOHLQ_14liquid_staking11ContractObjINtNtNtNtCseUmQFO6d1K9_22multiversx_sc_scenario3api7impl_vh12vm_hooks_api10VMHooksApiNtNtBR_9debug_api15DebugApiBackendEENtNtB5_14delegate_utils16EndpointWrappers4callCsaR2MVHtCDM0_4test
FN:9,_RNvYINtCs2WGRDwQOHLQ_14liquid_staking11ContractObjINtNtNtNtCseUmQFO6d1K9_22multiversx_sc_scenario3api7impl_vh12vm_hooks_api10VMHooksApiNtNtBR_9debug_api15DebugApiBackendEENtNtB5_14delegate_utils16EndpointWrappers8callbackCsaR2MVHtCDM0_4test
FN:89,_RNvYINtCs2WGRDwQOHLQ_14liquid_staking11ContractObjINtNtNtNtCseUmQFO6d1K9_22multiversx_sc_scenario3api7impl_vh12vm_hooks_api10VMHooksApiNtNtBR_9debug_api15DebugApiBackendEENtNtB5_14delegate_utils19DelegateUtilsModule16can_fully_redeemCsaR2MVHtCDM0_4test
FN:102,_RNvYINtCs2WGRDwQOHLQ_14liquid_staking11ContractObjINtNtNtNtCseUmQFO6d1K9_22multiversx_sc_scenario3api7impl_vh12vm_hooks_api10VMHooksApiNtNtBR_9debug_api15DebugApiBackendEENtNtB5_14delegate_utils19DelegateUtilsModule20can_partially_redeemCsaR2MVHtCDM0_4test
FN:204,_RNvYINtCs2WGRDwQOHLQ_14liquid_staking11ContractObjINtNtNtNtCseUmQFO6d1K9_22multiversx_sc_scenario3api7impl_vh12vm_hooks_api10VMHooksApiNtNtBR_9debug_api15DebugApiBackendEENtNtB5_14delegate_utils19DelegateUtilsModule20process_egld_stakingCsaR2MVHtCDM0_4test
FN:114,_RNvYINtCs2WGRDwQOHLQ_14liquid_staking11ContractObjINtNtNtNtCseUmQFO6d1K9_22multiversx_sc_scenario3api7impl_vh12vm_hooks_api10VMHooksApiNtNtBR_9debug_api15DebugApiBackendEENtNtB5_14delegate_utils19DelegateUtilsModule23can_fully_instant_stakeCsaR2MVHtCDM0_4test
FN:43,_RNvYINtCs2WGRDwQOHLQ_14liquid_staking11ContractObjINtNtNtNtCseUmQFO6d1K9_22multiversx_sc_scenario3api7impl_vh12vm_hooks_api10VMHooksApiNtNtBR_9debug_api15DebugApiBackendEENtNtB5_14delegate_utils19DelegateUtilsModule25handle_pending_redemptionCsaR2MVHtCDM0_4test
FN:24,_RNvYINtCs2WGRDwQOHLQ_14liquid_staking11ContractObjINtNtNtNtCseUmQFO6d1K9_22multiversx_sc_scenario3api7impl_vh12vm_hooks_api10VMHooksApiNtNtBR_9debug_api15DebugApiBackendEENtNtB5_14delegate_utils19DelegateUtilsModule26determine_delegate_amountsCsaR2MVHtCDM0_4test
FN:176,_RNvYINtCs2WGRDwQOHLQ_14liquid_staking11ContractObjINtNtNtNtCseUmQFO6d1K9_22multiversx_sc_scenario3api7impl_vh12vm_hooks_api10VMHooksApiNtNtBR_9debug_api15DebugApiBackendEENtNtB5_14delegate_utils19DelegateUtilsModule26process_pending_redemptionCsaR2MVHtCDM0_4test
FN:225,_RNvYINtCs2WGRDwQOHLQ_14liquid_staking11ContractObjINtNtNtNtCseUmQFO6d1K9_22multiversx_sc_scenario3api7impl_vh12vm_hooks_api10VMHooksApiNtNtBR_9debug_api15DebugApiBackendEENtNtB5_14delegate_utils19DelegateUtilsModule28validate_delegate_conditionsCsaR2MVHtCDM0_4test
FN:124,_RNvYINtCs2WGRDwQOHLQ_14liquid_staking11ContractObjINtNtNtNtCseUmQFO6d1K9_22multiversx_sc_scenario3api7impl_vh12vm_hooks_api10VMHooksApiNtNtBR_9debug_api15DebugApiBackendEENtNtB5_14delegate_utils19DelegateUtilsModule29can_handle_pending_redemptionCsaR2MVHtCDM0_4test
FN:134,_RNvYINtCs2WGRDwQOHLQ_14liquid_staking11ContractObjINtNtNtNtCseUmQFO6d1K9_22multiversx_sc_scenario3api7impl_vh12vm_hooks_api10VMHooksApiNtNtBR_9debug_api15DebugApiBackendEENtNtB5_14delegate_utils19DelegateUtilsModule30process_redemption_and_stakingCsaR2MVHtCDM0_4test
FN:9,_RNvYINtCs2WGRDwQOHLQ_14liquid_staking11ContractObjINtNtNtNtCseUmQFO6d1K9_22multiversx_sc_scenario3api7impl_vh12vm_hooks_api10VMHooksApiNtNtBR_9debug_api15DebugApiBackendEENtNtB5_14delegate_utils16EndpointWrappers17callback_selectorCsVH6ELXPoQD_15unDelegate_test
FN:9,_RNvYINtCs2WGRDwQOHLQ_14liquid_staking11ContractObjINtNtNtNtCseUmQFO6d1K9_22multiversx_sc_scenario3api7impl_vh12vm_hooks_api10VMHooksApiNtNtBR_9debug_api15DebugApiBackendEENtNtB5_14delegate_utils16EndpointWrappers4callCsVH6ELXPoQD_15unDelegate_test
FN:9,_RNvYINtCs2WGRDwQOHLQ_14liquid_staking11ContractObjINtNtNtNtCseUmQFO6d1K9_22multiversx_sc_scenario3api7impl_vh12vm_hooks_api10VMHooksApiNtNtBR_9debug_api15DebugApiBackendEENtNtB5_14delegate_utils16EndpointWrappers8callbackCsVH6ELXPoQD_15unDelegate_test
FN:89,_RNvYINtCs2WGRDwQOHLQ_14liquid_staking11ContractObjINtNtNtNtCseUmQFO6d1K9_22multiversx_sc_scenario3api7impl_vh12vm_hooks_api10VMHooksApiNtNtBR_9debug_api15DebugApiBackendEENtNtB5_14delegate_utils19DelegateUtilsModule16can_fully_redeemCsVH6ELXPoQD_15unDelegate_test
FN:102,_RNvYINtCs2WGRDwQOHLQ_14liquid_staking11ContractObjINtNtNtNtCseUmQFO6d1K9_22multiversx_sc_scenario3api7impl_vh12vm_hooks_api10VMHooksApiNtNtBR_9debug_api15DebugApiBackendEENtNtB5_14delegate_utils19DelegateUtilsModule20can_partially_redeemCsVH6ELXPoQD_15unDelegate_test
FN:204,_RNvYINtCs2WGRDwQOHLQ_14liquid_staking11ContractObjINtNtNtNtCseUmQFO6d1K9_22multiversx_sc_scenario3api7impl_vh12vm_hooks_api10VMHooksApiNtNtBR_9debug_api15DebugApiBackendEENtNtB5_14delegate_utils19DelegateUtilsModule20process_egld_stakingCsVH6ELXPoQD_15unDelegate_test
FN:114,_RNvYINtCs2WGRDwQOHLQ_14liquid_staking11ContractObjINtNtNtNtCseUmQFO6d1K9_22multiversx_sc_scenario3api7impl_vh12vm_hooks_api10VMHooksApiNtNtBR_9debug_api15DebugApiBackendEENtNtB5_14delegate_utils19DelegateUtilsModule23can_fully_instant_stakeCsVH6ELXPoQD_15unDelegate_test
FN:43,_RNvYINtCs2WGRDwQOHLQ_14liquid_staking11ContractObjINtNtNtNtCseUmQFO6d1K9_22multiversx_sc_scenario3api7impl_vh12vm_hooks_api10VMHooksApiNtNtBR_9debug_api15DebugApiBackendEENtNtB5_14delegate_utils19DelegateUtilsModule25handle_pending_redemptionCsVH6ELXPoQD_15unDelegate_test
FN:24,_RNvYINtCs2WGRDwQOHLQ_14liquid_staking11ContractObjINtNtNtNtCseUmQFO6d1K9_22multiversx_sc_scenario3api7impl_vh12vm_hooks_api10VMHooksApiNtNtBR_9debug_api15DebugApiBackendEENtNtB5_14delegate_utils19DelegateUtilsModule26determine_delegate_amountsCsVH6ELXPoQD_15unDelegate_test
FN:176,_RNvYINtCs2WGRDwQOHLQ_14liquid_staking11ContractObjINtNtNtNtCseUmQFO6d1K9_22multiversx_sc_scenario3api7impl_vh12vm_hooks_api10VMHooksApiNtNtBR_9debug_api15DebugApiBackendEENtNtB5_14delegate_utils19DelegateUtilsModule26process_pending_redemptionCsVH6ELXPoQD_15unDelegate_test
FN:225,_RNvYINtCs2WGRDwQOHLQ_14liquid_staking11ContractObjINtNtNtNtCseUmQFO6d1K9_22multiversx_sc_scenario3api7impl_vh12vm_hooks_api10VMHooksApiNtNtBR_9debug_api15DebugApiBackendEENtNtB5_14delegate_utils19DelegateUtilsModule28validate_delegate_conditionsCsVH6ELXPoQD_15unDelegate_test
FN:124,_RNvYINtCs2WGRDwQOHLQ_14liquid_staking11ContractObjINtNtNtNtCseUmQFO6d1K9_22multiversx_sc_scenario3api7impl_vh12vm_hooks_api10VMHooksApiNtNtBR_9debug_api15DebugApiBackendEENtNtB5_14delegate_utils19DelegateUtilsModule29can_handle_pending_redemptionCsVH6ELXPoQD_15unDelegate_test
FN:134,_RNvYINtCs2WGRDwQOHLQ_14liquid_staking11ContractObjINtNtNtNtCseUmQFO6d1K9_22multiversx_sc_scenario3api7impl_vh12vm_hooks_api10VMHooksApiNtNtBR_9debug_api15DebugApiBackendEENtNtB5_14delegate_utils19DelegateUtilsModule30process_redemption_and_stakingCsVH6ELXPoQD_15unDelegate_test
FN:9,_RNvYINtCs2WGRDwQOHLQ_14liquid_staking11ContractObjINtNtNtNtCseUmQFO6d1K9_22multiversx_sc_scenario3api7impl_vh12vm_hooks_api10VMHooksApiNtNtBR_9debug_api15DebugApiBackendEENtNtB5_14delegate_utils16EndpointWrappers17callback_selectorCshHwHQpnfuGH_11unbond_test
FN:9,_RNvYINtCs2WGRDwQOHLQ_14liquid_staking11ContractObjINtNtNtNtCseUmQFO6d1K9_22multiversx_sc_scenario3api7impl_vh12vm_hooks_api10VMHooksApiNtNtBR_9debug_api15DebugApiBackendEENtNtB5_14delegate_utils16EndpointWrappers4callCshHwHQpnfuGH_11unbond_test
FN:9,_RNvYINtCs2WGRDwQOHLQ_14liquid_staking11ContractObjINtNtNtNtCseUmQFO6d1K9_22multiversx_sc_scenario3api7impl_vh12vm_hooks_api10VMHooksApiNtNtBR_9debug_api15DebugApiBackendEENtNtB5_14delegate_utils16EndpointWrappers8callbackCshHwHQpnfuGH_11unbond_test
FN:89,_RNvYINtCs2WGRDwQOHLQ_14liquid_staking11ContractObjINtNtNtNtCseUmQFO6d1K9_22multiversx_sc_scenario3api7impl_vh12vm_hooks_api10VMHooksApiNtNtBR_9debug_api15DebugApiBackendEENtNtB5_14delegate_utils19DelegateUtilsModule16can_fully_redeemCshHwHQpnfuGH_11unbond_test
FN:102,_RNvYINtCs2WGRDwQOHLQ_14liquid_staking11ContractObjINtNtNtNtCseUmQFO6d1K9_22multiversx_sc_scenario3api7impl_vh12vm_hooks_api10VMHooksApiNtNtBR_9debug_api15DebugApiBackendEENtNtB5_14delegate_utils19DelegateUtilsModule20can_partially_redeemCshHwHQpnfuGH_11unbond_test
FN:204,_RNvYINtCs2WGRDwQOHLQ_14liquid_staking11ContractObjINtNtNtNtCseUmQFO6d1K9_22multiversx_sc_scenario3api7impl_vh12vm_hooks_api10VMHooksApiNtNtBR_9debug_api15DebugApiBackendEENtNtB5_14delegate_utils19DelegateUtilsModule20process_egld_stakingCshHwHQpnfuGH_11unbond_test
FN:114,_RNvYINtCs2WGRDwQOHLQ_14liquid_staking11ContractObjINtNtNtNtCseUmQFO6d1K9_22multiversx_sc_scenario3api7impl_vh12vm_hooks_api10VMHooksApiNtNtBR_9debug_api15DebugApiBackendEENtNtB5_14delegate_utils19DelegateUtilsModule23can_fully_instant_stakeCshHwHQpnfuGH_11unbond_test
FN:43,_RNvYINtCs2WGRDwQOHLQ_14liquid_staking11ContractObjINtNtNtNtCseUmQFO6d1K9_22multiversx_sc_scenario3api7impl_vh12vm_hooks_api10VMHooksApiNtNtBR_9debug_api15DebugApiBackendEENtNtB5_14delegate_utils19DelegateUtilsModule25handle_pending_redemptionCshHwHQpnfuGH_11unbond_test
FN:24,_RNvYINtCs2WGRDwQOHLQ_14liquid_staking11ContractObjINtNtNtNtCseUmQFO6d1K9_22multiversx_sc_scenario3api7impl_vh12vm_hooks_api10VMHooksApiNtNtBR_9debug_api15DebugApiBackendEENtNtB5_14delegate_utils19DelegateUtilsModule26determine_delegate_amountsCshHwHQpnfuGH_11unbond_test
FN:176,_RNvYINtCs2WGRDwQOHLQ_14liquid_staking11ContractObjINtNtNtNtCseUmQFO6d1K9_22multiversx_sc_scenario3api7impl_vh12vm_hooks_api10VMHooksApiNtNtBR_9debug_api15DebugApiBackendEENtNtB5_14delegate_utils19DelegateUtilsModule26process_pending_redemptionCshHwHQpnfuGH_11unbond_test
FN:225,_RNvYINtCs2WGRDwQOHLQ_14liquid_staking11ContractObjINtNtNtNtCseUmQFO6d1K9_22multiversx_sc_scenario3api7impl_vh12vm_hooks_api10VMHooksApiNtNtBR_9debug_api15DebugApiBackendEENtNtB5_14delegate_utils19DelegateUtilsModule28validate_delegate_conditionsCshHwHQpnfuGH_11unbond_test
FN:124,_RNvYINtCs2WGRDwQOHLQ_14liquid_staking11ContractObjINtNtNtNtCseUmQFO6d1K9_22multiversx_sc_scenario3api7impl_vh12vm_hooks_api10VMHooksApiNtNtBR_9debug_api15DebugApiBackendEENtNtB5_14delegate_utils19DelegateUtilsModule29can_handle_pending_redemptionCshHwHQpnfuGH_11unbond_test
FN:134,_RNvYINtCs2WGRDwQOHLQ_14liquid_staking11ContractObjINtNtNtNtCseUmQFO6d1K9_22multiversx_sc_scenario3api7impl_vh12vm_hooks_api10VMHooksApiNtNtBR_9debug_api15DebugApiBackendEENtNtB5_14delegate_utils19DelegateUtilsModule30process_redemption_and_stakingCshHwHQpnfuGH_11unbond_test
FNDA:0,_RNvYINtCs2WGRDwQOHLQ_14liquid_staking11ContractObjINtNtNtNtCseUmQFO6d1K9_22multiversx_sc_scenario3api7impl_vh12vm_hooks_api10VMHooksApiNtNtBR_9debug_api15DebugApiBackendEENtNtB5_14delegate_utils16EndpointWrappers17callback_selectorCskEhliFuVTlV_13delegate_test
FNDA:0,_RNvYINtCs2WGRDwQOHLQ_14liquid_staking11ContractObjINtNtNtNtCseUmQFO6d1K9_22multiversx_sc_scenario3api7impl_vh12vm_hooks_api10VMHooksApiNtNtBR_9debug_api15DebugApiBackendEENtNtB5_14delegate_utils16EndpointWrappers4callCskEhliFuVTlV_13delegate_test
FNDA:0,_RNvYINtCs2WGRDwQOHLQ_14liquid_staking11ContractObjINtNtNtNtCseUmQFO6d1K9_22multiversx_sc_scenario3api7impl_vh12vm_hooks_api10VMHooksApiNtNtBR_9debug_api15DebugApiBackendEENtNtB5_14delegate_utils16EndpointWrappers8callbackCskEhliFuVTlV_13delegate_test
FNDA:3,_RNvYINtCs2WGRDwQOHLQ_14liquid_staking11ContractObjINtNtNtNtCseUmQFO6d1K9_22multiversx_sc_scenario3api7impl_vh12vm_hooks_api10VMHooksApiNtNtBR_9debug_api15DebugApiBackendEENtNtB5_14delegate_utils19DelegateUtilsModule16can_fully_redeemCskEhliFuVTlV_13delegate_test
FNDA:2,_RNvYINtCs2WGRDwQOHLQ_14liquid_staking11ContractObjINtNtNtNtCseUmQFO6d1K9_22multiversx_sc_scenario3api7impl_vh12vm_hooks_api10VMHooksApiNtNtBR_9debug_api15DebugApiBackendEENtNtB5_14delegate_utils19DelegateUtilsModule20can_partially_redeemCskEhliFuVTlV_13delegate_test
FNDA:12,_RNvYINtCs2WGRDwQOHLQ_14liquid_staking11ContractObjINtNtNtNtCseUmQFO6d1K9_22multiversx_sc_scenario3api7impl_vh12vm_hooks_api10VMHooksApiNtNtBR_9debug_api15DebugApiBackendEENtNtB5_14delegate_utils19DelegateUtilsModule20process_egld_stakingCskEhliFuVTlV_13delegate_test
FNDA:13,_RNvYINtCs2WGRDwQOHLQ_14liquid_staking11ContractObjINtNtNtNtCseUmQFO6d1K9_22multiversx_sc_scenario3api7impl_vh12vm_hooks_api10VMHooksApiNtNtBR_9debug_api15DebugApiBackendEENtNtB5_14delegate_utils19DelegateUtilsModule23can_fully_instant_stakeCskEhliFuVTlV_13delegate_test
FNDA:3,_RNvYINtCs2WGRDwQOHLQ_14liquid_staking11ContractObjINtNtNtNtCseUmQFO6d1K9_22multiversx_sc_scenario3api7impl_vh12vm_hooks_api10VMHooksApiNtNtBR_9debug_api15DebugApiBackendEENtNtB5_14delegate_utils19DelegateUtilsModule25handle_pending_redemptionCskEhliFuVTlV_13delegate_test
FNDA:13,_RNvYINtCs2WGRDwQOHLQ_14liquid_staking11ContractObjINtNtNtNtCseUmQFO6d1K9_22multiversx_sc_scenario3api7impl_vh12vm_hooks_api10VMHooksApiNtNtBR_9debug_api15DebugApiBackendEENtNtB5_14delegate_utils19DelegateUtilsModule26determine_delegate_amountsCskEhliFuVTlV_13delegate_test
FNDA:3,_RNvYINtCs2WGRDwQOHLQ_14liquid_staking11ContractObjINtNtNtNtCseUmQFO6d1K9_22multiversx_sc_scenario3api7impl_vh12vm_hooks_api10VMHooksApiNtNtBR_9debug_api15DebugApiBackendEENtNtB5_14delegate_utils19DelegateUtilsModule26process_pending_redemptionCskEhliFuVTlV_13delegate_test
FNDA:14,_RNvYINtCs2WGRDwQOHLQ_14liquid_staking11ContractObjINtNtNtNtCseUmQFO6d1K9_22multiversx_sc_scenario3api7impl_vh12vm_hooks_api10VMHooksApiNtNtBR_9debug_api15DebugApiBackendEENtNtB5_14delegate_utils19DelegateUtilsModule28validate_delegate_conditionsCskEhliFuVTlV_13delegate_test
FNDA:12,_RNvYINtCs2WGRDwQOHLQ_14liquid_staking11ContractObjINtNtNtNtCseUmQFO6d1K9_22multiversx_sc_scenario3api7impl_vh12vm_hooks_api10VMHooksApiNtNtBR_9debug_api15DebugApiBackendEENtNtB5_14delegate_utils19DelegateUtilsModule29can_handle_pending_redemptionCskEhliFuVTlV_13delegate_test
FNDA:13,_RNvYINtCs2WGRDwQOHLQ_14liquid_staking11ContractObjINtNtNtNtCseUmQFO6d1K9_22multiversx_sc_scenario3api7impl_vh12vm_hooks_api10VMHooksApiNtNtBR_9debug_api15DebugApiBackendEENtNtB5_14delegate_utils19DelegateUtilsModule30process_redemption_and_stakingCskEhliFuVTlV_13delegate_test
FNDA:0,_RNvYpNtNtCsdRzYvL09OST_14liquid_staking14delegate_utils19DelegateUtilsModule26determine_delegate_amountsB7_
FNDA:0,_RNvYpNtNtCsdRzYvL09OST_14liquid_staking14delegate_utils19DelegateUtilsModule25handle_pending_redemptionB7_
FNDA:0,_RNvYpNtNtCsdRzYvL09OST_14liquid_staking14delegate_utils19DelegateUtilsModule16can_fully_redeemB7_
FNDA:0,_RNvYpNtNtCsdRzYvL09OST_14liquid_staking14delegate_utils19DelegateUtilsModule20can_partially_redeemB7_
FNDA:0,_RNvYpNtNtCsdRzYvL09OST_14liquid_staking14delegate_utils19DelegateUtilsModule23can_fully_instant_stakeB7_
FNDA:0,_RNvYpNtNtCsdRzYvL09OST_14liquid_staking14delegate_utils19DelegateUtilsModule29can_handle_pending_redemptionB7_
FNDA:0,_RNvYpNtNtCsdRzYvL09OST_14liquid_staking14delegate_utils19DelegateUtilsModule30process_redemption_and_stakingB7_
FNDA:0,_RNvYpNtNtCsdRzYvL09OST_14liquid_staking14delegate_utils19DelegateUtilsModule26process_pending_redemptionB7_
FNDA:0,_RNvYpNtNtCsdRzYvL09OST_14liquid_staking14delegate_utils19DelegateUtilsModule20process_egld_stakingB7_
FNDA:0,_RNvYpNtNtCsdRzYvL09OST_14liquid_staking14delegate_utils19DelegateUtilsModule28validate_delegate_conditionsB7_
FNDA:0,_RNvYpNtNtCsdRzYvL09OST_14liquid_staking14delegate_utils16EndpointWrappers4callB7_
FNDA:0,_RNvYpNtNtCsdRzYvL09OST_14liquid_staking14delegate_utils16EndpointWrappers17callback_selectorB7_
FNDA:0,_RNvYpNtNtCsdRzYvL09OST_14liquid_staking14delegate_utils16EndpointWrappers8callbackB7_
FNDA:0,_RNvXs1_NtCsdRzYvL09OST_14liquid_staking14delegate_utilsNtB5_11AbiProviderNtNtNtCs4WmCETBkTZ5_13multiversx_sc13contract_base21contract_abi_provider19ContractAbiProvider3abi
FNDA:0,_RNvXININtCsdRzYvL09OST_14liquid_staking14delegate_utilssh_0pEINtB5_11ContractObjpENtNtNtCs4WmCETBkTZ5_13multiversx_sc13contract_base17callable_contract16CallableContract4callB7_
FNDA:0,_RINvNtCsdRzYvL09OST_14liquid_staking14delegate_utils12contract_objpEB4_
FNDA:0,_RINvXsi_NtCsdRzYvL09OST_14liquid_staking14delegate_utilsNtB6_15ContractBuilderNtNtNtCs4WmCETBkTZ5_13multiversx_sc13contract_base17callable_contract23CallableContractBuilder16new_contract_objpEB8_
FNDA:0,_RNvYINtCs2WGRDwQOHLQ_14liquid_staking11ContractObjINtNtNtNtCseUmQFO6d1K9_22multiversx_sc_scenario3api7impl_vh12vm_hooks_api10VMHooksApiNtNtBR_9debug_api15DebugApiBackendEENtNtB5_14delegate_utils16EndpointWrappers17callback_selectorCsaR2MVHtCDM0_4test
FNDA:0,_RNvYINtCs2WGRDwQOHLQ_14liquid_staking11ContractObjINtNtNtNtCseUmQFO6d1K9_22multiversx_sc_scenario3api7impl_vh12vm_hooks_api10VMHooksApiNtNtBR_9debug_api15DebugApiBackendEENtNtB5_14delegate_utils16EndpointWrappers4callCsaR2MVHtCDM0_4test
FNDA:0,_RNvYINtCs2WGRDwQOHLQ_14liquid_staking11ContractObjINtNtNtNtCseUmQFO6d1K9_22multiversx_sc_scenario3api7impl_vh12vm_hooks_api10VMHooksApiNtNtBR_9debug_api15DebugApiBackendEENtNtB5_14delegate_utils16EndpointWrappers8callbackCsaR2MVHtCDM0_4test
FNDA:0,_RNvYINtCs2WGRDwQOHLQ_14liquid_staking11ContractObjINtNtNtNtCseUmQFO6d1K9_22multiversx_sc_scenario3api7impl_vh12vm_hooks_api10VMHooksApiNtNtBR_9debug_api15DebugApiBackendEENtNtB5_14delegate_utils19DelegateUtilsModule16can_fully_redeemCsaR2MVHtCDM0_4test
FNDA:0,_RNvYINtCs2WGRDwQOHLQ_14liquid_staking11ContractObjINtNtNtNtCseUmQFO6d1K9_22multiversx_sc_scenario3api7impl_vh12vm_hooks_api10VMHooksApiNtNtBR_9debug_api15DebugApiBackendEENtNtB5_14delegate_utils19DelegateUtilsModule20can_partially_redeemCsaR2MVHtCDM0_4test
FNDA:8,_RNvYINtCs2WGRDwQOHLQ_14liquid_staking11ContractObjINtNtNtNtCseUmQFO6d1K9_22multiversx_sc_scenario3api7impl_vh12vm_hooks_api10VMHooksApiNtNtBR_9debug_api15DebugApiBackendEENtNtB5_14delegate_utils19DelegateUtilsModule20process_egld_stakingCsaR2MVHtCDM0_4test
FNDA:8,_RNvYINtCs2WGRDwQOHLQ_14liquid_staking11ContractObjINtNtNtNtCseUmQFO6d1K9_22multiversx_sc_scenario3api7impl_vh12vm_hooks_api10VMHooksApiNtNtBR_9debug_api15DebugApiBackendEENtNtB5_14delegate_utils19DelegateUtilsModule23can_fully_instant_stakeCsaR2MVHtCDM0_4test
FNDA:0,_RNvYINtCs2WGRDwQOHLQ_14liquid_staking11ContractObjINtNtNtNtCseUmQFO6d1K9_22multiversx_sc_scenario3api7impl_vh12vm_hooks_api10VMHooksApiNtNtBR_9debug_api15DebugApiBackendEENtNtB5_14delegate_utils19DelegateUtilsModule25handle_pending_redemptionCsaR2MVHtCDM0_4test
FNDA:8,_RNvYINtCs2WGRDwQOHLQ_14liquid_staking11ContractObjINtNtNtNtCseUmQFO6d1K9_22multiversx_sc_scenario3api7impl_vh12vm_hooks_api10VMHooksApiNtNtBR_9debug_api15DebugApiBackendEENtNtB5_14delegate_utils19DelegateUtilsModule26determine_delegate_amountsCsaR2MVHtCDM0_4test
FNDA:0,_RNvYINtCs2WGRDwQOHLQ_14liquid_staking11ContractObjINtNtNtNtCseUmQFO6d1K9_22multiversx_sc_scenario3api7impl_vh12vm_hooks_api10VMHooksApiNtNtBR_9debug_api15DebugApiBackendEENtNtB5_14delegate_utils19DelegateUtilsModule26process_pending_redemptionCsaR2MVHtCDM0_4test
FNDA:8,_RNvYINtCs2WGRDwQOHLQ_14liquid_staking11ContractObjINtNtNtNtCseUmQFO6d1K9_22multiversx_sc_scenario3api7impl_vh12vm_hooks_api10VMHooksApiNtNtBR_9debug_api15DebugApiBackendEENtNtB5_14delegate_utils19DelegateUtilsModule28validate_delegate_conditionsCsaR2MVHtCDM0_4test
FNDA:8,_RNvYINtCs2WGRDwQOHLQ_14liquid_staking11ContractObjINtNtNtNtCseUmQFO6d1K9_22multiversx_sc_scenario3api7impl_vh12vm_hooks_api10VMHooksApiNtNtBR_9debug_api15DebugApiBackendEENtNtB5_14delegate_utils19DelegateUtilsModule29can_handle_pending_redemptionCsaR2MVHtCDM0_4test
FNDA:8,_RNvYINtCs2WGRDwQOHLQ_14liquid_staking11ContractObjINtNtNtNtCseUmQFO6d1K9_22multiversx_sc_scenario3api7impl_vh12vm_hooks_api10VMHooksApiNtNtBR_9debug_api15DebugApiBackendEENtNtB5_14delegate_utils19DelegateUtilsModule30process_redemption_and_stakingCsaR2MVHtCDM0_4test
FNDA:0,_RNvYINtCs2WGRDwQOHLQ_14liquid_staking11ContractObjINtNtNtNtCseUmQFO6d1K9_22multiversx_sc_scenario3api7impl_vh12vm_hooks_api10VMHooksApiNtNtBR_9debug_api15DebugApiBackendEENtNtB5_14delegate_utils16EndpointWrappers17callback_selectorCsVH6ELXPoQD_15unDelegate_test
FNDA:0,_RNvYINtCs2WGRDwQOHLQ_14liquid_staking11ContractObjINtNtNtNtCseUmQFO6d1K9_22multiversx_sc_scenario3api7impl_vh12vm_hooks_api10VMHooksApiNtNtBR_9debug_api15DebugApiBackendEENtNtB5_14delegate_utils16EndpointWrappers4callCsVH6ELXPoQD_15unDelegate_test
FNDA:0,_RNvYINtCs2WGRDwQOHLQ_14liquid_staking11ContractObjINtNtNtNtCseUmQFO6d1K9_22multiversx_sc_scenario3api7impl_vh12vm_hooks_api10VMHooksApiNtNtBR_9debug_api15DebugApiBackendEENtNtB5_14delegate_utils16EndpointWrappers8callbackCsVH6ELXPoQD_15unDelegate_test
FNDA:0,_RNvYINtCs2WGRDwQOHLQ_14liquid_staking11ContractObjINtNtNtNtCseUmQFO6d1K9_22multiversx_sc_scenario3api7impl_vh12vm_hooks_api10VMHooksApiNtNtBR_9debug_api15DebugApiBackendEENtNtB5_14delegate_utils19DelegateUtilsModule16can_fully_redeemCsVH6ELXPoQD_15unDelegate_test
FNDA:0,_RNvYINtCs2WGRDwQOHLQ_14liquid_staking11ContractObjINtNtNtNtCseUmQFO6d1K9_22multiversx_sc_scenario3api7impl_vh12vm_hooks_api10VMHooksApiNtNtBR_9debug_api15DebugApiBackendEENtNtB5_14delegate_utils19DelegateUtilsModule20can_partially_redeemCsVH6ELXPoQD_15unDelegate_test
FNDA:7,_RNvYINtCs2WGRDwQOHLQ_14liquid_staking11ContractObjINtNtNtNtCseUmQFO6d1K9_22multiversx_sc_scenario3api7impl_vh12vm_hooks_api10VMHooksApiNtNtBR_9debug_api15DebugApiBackendEENtNtB5_14delegate_utils19DelegateUtilsModule20process_egld_stakingCsVH6ELXPoQD_15unDelegate_test
FNDA:7,_RNvYINtCs2WGRDwQOHLQ_14liquid_staking11ContractObjINtNtNtNtCseUmQFO6d1K9_22multiversx_sc_scenario3api7impl_vh12vm_hooks_api10VMHooksApiNtNtBR_9debug_api15DebugApiBackendEENtNtB5_14delegate_utils19DelegateUtilsModule23can_fully_instant_stakeCsVH6ELXPoQD_15unDelegate_test
FNDA:0,_RNvYINtCs2WGRDwQOHLQ_14liquid_staking11ContractObjINtNtNtNtCseUmQFO6d1K9_22multiversx_sc_scenario3api7impl_vh12vm_hooks_api10VMHooksApiNtNtBR_9debug_api15DebugApiBackendEENtNtB5_14delegate_utils19DelegateUtilsModule25handle_pending_redemptionCsVH6ELXPoQD_15unDelegate_test
FNDA:7,_RNvYINtCs2WGRDwQOHLQ_14liquid_staking11ContractObjINtNtNtNtCseUmQFO6d1K9_22multiversx_sc_scenario3api7impl_vh12vm_hooks_api10VMHooksApiNtNtBR_9debug_api15DebugApiBackendEENtNtB5_14delegate_utils19DelegateUtilsModule26determine_delegate_amountsCsVH6ELXPoQD_15unDelegate_test
FNDA:0,_RNvYINtCs2WGRDwQOHLQ_14liquid_staking11ContractObjINtNtNtNtCseUmQFO6d1K9_22multiversx_sc_scenario3api7impl_vh12vm_hooks_api10VMHooksApiNtNtBR_9debug_api15DebugApiBackendEENtNtB5_14delegate_utils19DelegateUtilsModule26process_pending_redemptionCsVH6ELXPoQD_15unDelegate_test
FNDA:7,_RNvYINtCs2WGRDwQOHLQ_14liquid_staking11ContractObjINtNtNtNtCseUmQFO6d1K9_22multiversx_sc_scenario3api7impl_vh12vm_hooks_api10VMHooksApiNtNtBR_9debug_api15DebugApiBackendEENtNtB5_14delegate_utils19DelegateUtilsModule28validate_delegate_conditionsCsVH6ELXPoQD_15unDelegate_test
FNDA:7,_RNvYINtCs2WGRDwQOHLQ_14liquid_staking11ContractObjINtNtNtNtCseUmQFO6d1K9_22multiversx_sc_scenario3api7impl_vh12vm_hooks_api10VMHooksApiNtNtBR_9debug_api15DebugApiBackendEENtNtB5_14delegate_utils19DelegateUtilsModule29can_handle_pending_redemptionCsVH6ELXPoQD_15unDelegate_test
FNDA:7,_RNvYINtCs2WGRDwQOHLQ_14liquid_staking11ContractObjINtNtNtNtCseUmQFO6d1K9_22multiversx_sc_scenario3api7impl_vh12vm_hooks_api10VMHooksApiNtNtBR_9debug_api15DebugApiBackendEENtNtB5_14delegate_utils19DelegateUtilsModule30process_redemption_and_stakingCsVH6ELXPoQD_15unDelegate_test
FNDA:0,_RNvYINtCs2WGRDwQOHLQ_14liquid_staking11ContractObjINtNtNtNtCseUmQFO6d1K9_22multiversx_sc_scenario3api7impl_vh12vm_hooks_api10VMHooksApiNtNtBR_9debug_api15DebugApiBackendEENtNtB5_14delegate_utils16EndpointWrappers17callback_selectorCshHwHQpnfuGH_11unbond_test
FNDA:0,_RNvYINtCs2WGRDwQOHLQ_14liquid_staking11ContractObjINtNtNtNtCseUmQFO6d1K9_22multiversx_sc_scenario3api7impl_vh12vm_hooks_api10VMHooksApiNtNtBR_9debug_api15DebugApiBackendEENtNtB5_14delegate_utils16EndpointWrappers4callCshHwHQpnfuGH_11unbond_test
FNDA:0,_RNvYINtCs2WGRDwQOHLQ_14liquid_staking11ContractObjINtNtNtNtCseUmQFO6d1K9_22multiversx_sc_scenario3api7impl_vh12vm_hooks_api10VMHooksApiNtNtBR_9debug_api15DebugApiBackendEENtNtB5_14delegate_utils16EndpointWrappers8callbackCshHwHQpnfuGH_11unbond_test
FNDA:0,_RNvYINtCs2WGRDwQOHLQ_14liquid_staking11ContractObjINtNtNtNtCseUmQFO6d1K9_22multiversx_sc_scenario3api7impl_vh12vm_hooks_api10VMHooksApiNtNtBR_9debug_api15DebugApiBackendEENtNtB5_14delegate_utils19DelegateUtilsModule16can_fully_redeemCshHwHQpnfuGH_11unbond_test
FNDA:0,_RNvYINtCs2WGRDwQOHLQ_14liquid_staking11ContractObjINtNtNtNtCseUmQFO6d1K9_22multiversx_sc_scenario3api7impl_vh12vm_hooks_api10VMHooksApiNtNtBR_9debug_api15DebugApiBackendEENtNtB5_14delegate_utils19DelegateUtilsModule20can_partially_redeemCshHwHQpnfuGH_11unbond_test
FNDA:5,_RNvYINtCs2WGRDwQOHLQ_14liquid_staking11ContractObjINtNtNtNtCseUmQFO6d1K9_22multiversx_sc_scenario3api7impl_vh12vm_hooks_api10VMHooksApiNtNtBR_9debug_api15DebugApiBackendEENtNtB5_14delegate_utils19DelegateUtilsModule20process_egld_stakingCshHwHQpnfuGH_11unbond_test
FNDA:5,_RNvYINtCs2WGRDwQOHLQ_14liquid_staking11ContractObjINtNtNtNtCseUmQFO6d1K9_22multiversx_sc_scenario3api7impl_vh12vm_hooks_api10VMHooksApiNtNtBR_9debug_api15DebugApiBackendEENtNtB5_14delegate_utils19DelegateUtilsModule23can_fully_instant_stakeCshHwHQpnfuGH_11unbond_test
FNDA:0,_RNvYINtCs2WGRDwQOHLQ_14liquid_staking11ContractObjINtNtNtNtCseUmQFO6d1K9_22multiversx_sc_scenario3api7impl_vh12vm_hooks_api10VMHooksApiNtNtBR_9debug_api15DebugApiBackendEENtNtB5_14delegate_utils19DelegateUtilsModule25handle_pending_redemptionCshHwHQpnfuGH_11unbond_test
FNDA:5,_RNvYINtCs2WGRDwQOHLQ_14liquid_staking11ContractObjINtNtNtNtCseUmQFO6d1K9_22multiversx_sc_scenario3api7impl_vh12vm_hooks_api10VMHooksApiNtNtBR_9debug_api15DebugApiBackendEENtNtB5_14delegate_utils19DelegateUtilsModule26determine_delegate_amountsCshHwHQpnfuGH_11unbond_test
FNDA:0,_RNvYINtCs2WGRDwQOHLQ_14liquid_staking11ContractObjINtNtNtNtCseUmQFO6d1K9_22multiversx_sc_scenario3api7impl_vh12vm_hooks_api10VMHooksApiNtNtBR_9debug_api15DebugApiBackendEENtNtB5_14delegate_utils19DelegateUtilsModule26process_pending_redemptionCshHwHQpnfuGH_11unbond_test
FNDA:5,_RNvYINtCs2WGRDwQOHLQ_14liquid_staking11ContractObjINtNtNtNtCseUmQFO6d1K9_22multiversx_sc_scenario3api7impl_vh12vm_hooks_api10VMHooksApiNtNtBR_9debug_api15DebugApiBackendEENtNtB5_14delegate_utils19DelegateUtilsModule28validate_delegate_conditionsCshHwHQpnfuGH_11unbond_test
FNDA:5,_RNvYINtCs2WGRDwQOHLQ_14liquid_staking11ContractObjINtNtNtNtCseUmQFO6d1K9_22multiversx_sc_scenario3api7impl_vh12vm_hooks_api10VMHooksApiNtNtBR_9debug_api15DebugApiBackendEENtNtB5_14delegate_utils19DelegateUtilsModule29can_handle_pending_redemptionCshHwHQpnfuGH_11unbond_test
FNDA:5,_RNvYINtCs2WGRDwQOHLQ_14liquid_staking11ContractObjINtNtNtNtCseUmQFO6d1K9_22multiversx_sc_scenario3api7impl_vh12vm_hooks_api10VMHooksApiNtNtBR_9debug_api15DebugApiBackendEENtNtB5_14delegate_utils19DelegateUtilsModule30process_redemption_and_stakingCshHwHQpnfuGH_11unbond_test
FNF:11
FNH:10
DA:9,0
DA:24,33
DA:25,33
DA:27,1
DA:28,32
DA:30,3
DA:33,29
DA:43,3
DA:44,3
DA:45,3
DA:46,3
DA:47,3
DA:48,3
DA:49,3
DA:50,3
DA:51,1
DA:52,1
DA:53,1
DA:54,1
DA:55,1
DA:56,1
DA:57,1
DA:58,1
DA:59,1
DA:60,2
DA:61,2
DA:62,2
DA:63,2
DA:64,2
DA:65,1
DA:66,1
DA:67,1
DA:68,1
DA:69,1
DA:70,1
DA:71,1
DA:72,1
DA:73,1
DA:74,1
DA:75,1
DA:77,1
DA:78,1
DA:79,1
DA:89,3
DA:90,3
DA:91,2
DA:92,1
DA:93,1
DA:94,1
DA:102,2
DA:103,2
DA:104,1
DA:105,1
DA:106,1
DA:114,33
DA:115,33
DA:116,32
DA:117,3
DA:124,32
DA:125,32
DA:134,33
DA:135,33
DA:136,33
DA:137,33
DA:138,33
DA:139,3
DA:140,3
DA:141,3
DA:142,3
DA:143,3
DA:144,3
DA:145,30
DA:148,33
DA:149,32
DA:150,32
DA:151,32
DA:152,32
DA:153,32
DA:154,32
DA:156,33
DA:157,33
DA:158,33
DA:159,33
DA:160,33
DA:161,33
DA:162,33
DA:163,33
DA:164,33
DA:165,33
DA:166,33
DA:167,33
DA:176,3
DA:177,3
DA:178,3
DA:179,3
DA:180,0
DA:183,3
DA:184,3
DA:185,3
DA:186,3
DA:187,3
DA:188,3
DA:189,3
DA:190,3
DA:191,2
DA:192,0
DA:196,3
DA:204,32
DA:205,32
DA:206,32
DA:207,32
DA:208,32
DA:209,32
DA:210,1
DA:214,31
DA:215,31
DA:216,31
DA:217,31
DA:218,31
DA:225,34
DA:226,34
DA:227,34
DA:228,1
DA:231,33
BRF:0
BRH:0
LF:124
LH:121
end_of_record
SF:/Users/mihaieremia/GitHub/rs-egld-liquid-staking/liquid-staking/src/delegation.rs
FN:78,_RNCNvYINtCs2WGRDwQOHLQ_14liquid_staking11ContractObjINtNtNtNtCseUmQFO6d1K9_22multiversx_sc_scenario3api7impl_vh12vm_hooks_api10VMHooksApiNtNtBT_9debug_api15DebugApiBackendEENtNtB7_10delegation16DelegationModule32change_delegation_contract_admin0CskEhliFuVTlV_13delegate_test
FN:110,_RNCNvYINtCs2WGRDwQOHLQ_14liquid_staking11ContractObjINtNtNtNtCseUmQFO6d1K9_22multiversx_sc_scenario3api7impl_vh12vm_hooks_api10VMHooksApiNtNtBT_9debug_api15DebugApiBackendEENtNtB7_10delegation16DelegationModule33change_delegation_contract_params0CskEhliFuVTlV_13delegate_test
FN:37,_RNvYINtCs2WGRDwQOHLQ_14liquid_staking11ContractObjINtNtNtNtCseUmQFO6d1K9_22multiversx_sc_scenario3api7impl_vh12vm_hooks_api10VMHooksApiNtNtBR_9debug_api15DebugApiBackendEENtNtB5_10delegation16DelegationModule29whitelist_delegation_contractCskEhliFuVTlV_13delegate_test
FN:74,_RNvYINtCs2WGRDwQOHLQ_14liquid_staking11ContractObjINtNtNtNtCseUmQFO6d1K9_22multiversx_sc_scenario3api7impl_vh12vm_hooks_api10VMHooksApiNtNtBR_9debug_api15DebugApiBackendEENtNtB5_10delegation16DelegationModule32change_delegation_contract_adminCskEhliFuVTlV_13delegate_test
FN:153,_RNvYINtCs2WGRDwQOHLQ_14liquid_staking11ContractObjINtNtNtNtCseUmQFO6d1K9_22multiversx_sc_scenario3api7impl_vh12vm_hooks_api10VMHooksApiNtNtBR_9debug_api15DebugApiBackendEENtNtB5_10delegation16DelegationModule32move_delegation_contract_to_backCskEhliFuVTlV_13delegate_test
FN:91,_RNvYINtCs2WGRDwQOHLQ_14liquid_staking11ContractObjINtNtNtNtCseUmQFO6d1K9_22multiversx_sc_scenario3api7impl_vh12vm_hooks_api10VMHooksApiNtNtBR_9debug_api15DebugApiBackendEENtNtB5_10delegation16DelegationModule33change_delegation_contract_paramsCskEhliFuVTlV_13delegate_test
FN:142,_RNvYINtCs2WGRDwQOHLQ_14liquid_staking11ContractObjINtNtNtNtCseUmQFO6d1K9_22multiversx_sc_scenario3api7impl_vh12vm_hooks_api10VMHooksApiNtNtBR_9debug_api15DebugApiBackendEENtNtB5_10delegation16DelegationModule35remove_delegation_address_from_listCskEhliFuVTlV_13delegate_test
FN:23,_RNvYINtCs2WGRDwQOHLQ_14liquid_staking11ContractObjINtNtNtNtCseUmQFO6d1K9_22multiversx_sc_scenario3api7impl_vh12vm_hooks_api10VMHooksApiNtNtBR_9debug_api15DebugApiBackendEENtNtB5_10delegation16DelegationModule38update_max_delegation_addresses_numberCskEhliFuVTlV_13delegate_test
FN:118,_RNvYINtCs2WGRDwQOHLQ_14liquid_staking11ContractObjINtNtNtNtCseUmQFO6d1K9_22multiversx_sc_scenario3api7impl_vh12vm_hooks_api10VMHooksApiNtNtBR_9debug_api15DebugApiBackendEENtNtB5_10delegation16DelegationModule40add_and_order_delegation_address_in_listCskEhliFuVTlV_13delegate_test
FN:12,_RNvYINtCs2WGRDwQOHLQ_14liquid_staking11ContractObjINtNtNtNtCseUmQFO6d1K9_22multiversx_sc_scenario3api7impl_vh12vm_hooks_api10VMHooksApiNtNtBR_9debug_api15DebugApiBackendEENtNtB5_10delegation16EndpointWrappers17callback_selectorCskEhliFuVTlV_13delegate_test
FN:12,_RNvYINtCs2WGRDwQOHLQ_14liquid_staking11ContractObjINtNtNtNtCseUmQFO6d1K9_22multiversx_sc_scenario3api7impl_vh12vm_hooks_api10VMHooksApiNtNtBR_9debug_api15DebugApiBackendEENtNtB5_10delegation16EndpointWrappers34call_whitelist_delegation_contractCskEhliFuVTlV_13delegate_test
FN:12,_RNvYINtCs2WGRDwQOHLQ_14liquid_staking11ContractObjINtNtNtNtCseUmQFO6d1K9_22multiversx_sc_scenario3api7impl_vh12vm_hooks_api10VMHooksApiNtNtBR_9debug_api15DebugApiBackendEENtNtB5_10delegation16EndpointWrappers37call_change_delegation_contract_adminCskEhliFuVTlV_13delegate_test
FN:12,_RNvYINtCs2WGRDwQOHLQ_14liquid_staking11ContractObjINtNtNtNtCseUmQFO6d1K9_22multiversx_sc_scenario3api7impl_vh12vm_hooks_api10VMHooksApiNtNtBR_9debug_api15DebugApiBackendEENtNtB5_10delegation16EndpointWrappers38call_change_delegation_contract_paramsCskEhliFuVTlV_13delegate_test
FN:12,_RNvYINtCs2WGRDwQOHLQ_14liquid_staking11ContractObjINtNtNtNtCseUmQFO6d1K9_22multiversx_sc_scenario3api7impl_vh12vm_hooks_api10VMHooksApiNtNtBR_9debug_api15DebugApiBackendEENtNtB5_10delegation16EndpointWrappers43call_update_max_delegation_addresses_numberCskEhliFuVTlV_13delegate_test
FN:12,_RNvYINtCs2WGRDwQOHLQ_14liquid_staking11ContractObjINtNtNtNtCseUmQFO6d1K9_22multiversx_sc_scenario3api7impl_vh12vm_hooks_api10VMHooksApiNtNtBR_9debug_api15DebugApiBackendEENtNtB5_10delegation16EndpointWrappers4callCskEhliFuVTlV_13delegate_test
FN:12,_RNvYINtCs2WGRDwQOHLQ_14liquid_staking11ContractObjINtNtNtNtCseUmQFO6d1K9_22multiversx_sc_scenario3api7impl_vh12vm_hooks_api10VMHooksApiNtNtBR_9debug_api15DebugApiBackendEENtNtB5_10delegation16EndpointWrappers8callbackCskEhliFuVTlV_13delegate_test
FN:23,_RNvYpNtNtCsdRzYvL09OST_14liquid_staking10delegation16DelegationModule38update_max_delegation_addresses_numberB7_
FN:37,_RNvYpNtNtCsdRzYvL09OST_14liquid_staking10delegation16DelegationModule29whitelist_delegation_contractB7_
FN:74,_RNvYpNtNtCsdRzYvL09OST_14liquid_staking10delegation16DelegationModule32change_delegation_contract_adminB7_
FN:78,_RNCNvYpNtNtCsdRzYvL09OST_14liquid_staking10delegation16DelegationModule32change_delegation_contract_admin0B9_
FN:91,_RNvYpNtNtCsdRzYvL09OST_14liquid_staking10delegation16DelegationModule33change_delegation_contract_paramsB7_
FN:110,_RNCNvYpNtNtCsdRzYvL09OST_14liquid_staking10delegation16DelegationModule33change_delegation_contract_params0B9_
FN:118,_RNvYpNtNtCsdRzYvL09OST_14liquid_staking10delegation16DelegationModule40add_and_order_delegation_address_in_listB7_
FN:142,_RNvYpNtNtCsdRzYvL09OST_14liquid_staking10delegation16DelegationModule35remove_delegation_address_from_listB7_
FN:153,_RNvYpNtNtCsdRzYvL09OST_14liquid_staking10delegation16DelegationModule32move_delegation_contract_to_backB7_
FN:12,_RNvYpNtNtCsdRzYvL09OST_14liquid_staking10delegation16EndpointWrappers43call_update_max_delegation_addresses_numberB7_
FN:12,_RNvYpNtNtCsdRzYvL09OST_14liquid_staking10delegation16EndpointWrappers34call_whitelist_delegation_contractB7_
FN:12,_RNvYpNtNtCsdRzYvL09OST_14liquid_staking10delegation16EndpointWrappers37call_change_delegation_contract_adminB7_
FN:12,_RNvYpNtNtCsdRzYvL09OST_14liquid_staking10delegation16EndpointWrappers38call_change_delegation_contract_paramsB7_
FN:12,_RNvYpNtNtCsdRzYvL09OST_14liquid_staking10delegation16EndpointWrappers4callB7_
FN:12,_RNvYpNtNtCsdRzYvL09OST_14liquid_staking10delegation16EndpointWrappers17callback_selectorB7_
FN:12,_RNvYpNtNtCsdRzYvL09OST_14liquid_staking10delegation16EndpointWrappers8callbackB7_
FN:12,_RNvXs1_NtCsdRzYvL09OST_14liquid_staking10delegationNtB5_11AbiProviderNtNtNtCs4WmCETBkTZ5_13multiversx_sc13contract_base21contract_abi_provider19ContractAbiProvider3abi
FN:12,_RNvXININtCsdRzYvL09OST_14liquid_staking10delegationsh_0pEINtB5_11ContractObjpENtNtNtCs4WmCETBkTZ5_13multiversx_sc13contract_base17callable_contract16CallableContract4callB7_
FN:12,_RINvNtCsdRzYvL09OST_14liquid_staking10delegation12contract_objpEB4_
FN:12,_RINvXsi_NtCsdRzYvL09OST_14liquid_staking10delegationNtB6_15ContractBuilderNtNtNtCs4WmCETBkTZ5_13multiversx_sc13contract_base17callable_contract23CallableContractBuilder16new_contract_objpEB8_
FN:12,_RINvNtNtCsdRzYvL09OST_14liquid_staking10delegation19___wasm__endpoints__38update_max_delegation_addresses_numberpEB6_
FN:12,_RINvNtNtCsdRzYvL09OST_14liquid_staking10delegation19___wasm__endpoints__29whitelist_delegation_contractpEB6_
FN:12,_RINvNtNtCsdRzYvL09OST_14liquid_staking10delegation19___wasm__endpoints__32change_delegation_contract_adminpEB6_
FN:12,_RINvNtNtCsdRzYvL09OST_14liquid_staking10delegation19___wasm__endpoints__33change_delegation_contract_paramspEB6_
FN:12,_RINvYpNtNtCsdRzYvL09OST_14liquid_staking10delegation10ProxyTrait38update_max_delegation_addresses_numberpEB8_
FN:12,_RINvYpNtNtCsdRzYvL09OST_14liquid_staking10delegation10ProxyTrait29whitelist_delegation_contractppppppEB8_
FN:12,_RINvYpNtNtCsdRzYvL09OST_14liquid_staking10delegation10ProxyTrait32change_delegation_contract_adminppEB8_
FN:12,_RINvYpNtNtCsdRzYvL09OST_14liquid_staking10delegation10ProxyTrait33change_delegation_contract_paramspppppEB8_
FN:78,_RNCNvYINtCs2WGRDwQOHLQ_14liquid_staking11ContractObjINtNtNtNtCseUmQFO6d1K9_22multiversx_sc_scenario3api7impl_vh12vm_hooks_api10VMHooksApiNtNtBT_9debug_api15DebugApiBackendEENtNtB7_10delegation16DelegationModule32change_delegation_contract_admin0CsaR2MVHtCDM0_4test
FN:110,_RNCNvYINtCs2WGRDwQOHLQ_14liquid_staking11ContractObjINtNtNtNtCseUmQFO6d1K9_22multiversx_sc_scenario3api7impl_vh12vm_hooks_api10VMHooksApiNtNtBT_9debug_api15DebugApiBackendEENtNtB7_10delegation16DelegationModule33change_delegation_contract_params0CsaR2MVHtCDM0_4test
FN:37,_RNvYINtCs2WGRDwQOHLQ_14liquid_staking11ContractObjINtNtNtNtCseUmQFO6d1K9_22multiversx_sc_scenario3api7impl_vh12vm_hooks_api10VMHooksApiNtNtBR_9debug_api15DebugApiBackendEENtNtB5_10delegation16DelegationModule29whitelist_delegation_contractCsaR2MVHtCDM0_4test
FN:74,_RNvYINtCs2WGRDwQOHLQ_14liquid_staking11ContractObjINtNtNtNtCseUmQFO6d1K9_22multiversx_sc_scenario3api7impl_vh12vm_hooks_api10VMHooksApiNtNtBR_9debug_api15DebugApiBackendEENtNtB5_10delegation16DelegationModule32change_delegation_contract_adminCsaR2MVHtCDM0_4test
FN:153,_RNvYINtCs2WGRDwQOHLQ_14liquid_staking11ContractObjINtNtNtNtCseUmQFO6d1K9_22multiversx_sc_scenario3api7impl_vh12vm_hooks_api10VMHooksApiNtNtBR_9debug_api15DebugApiBackendEENtNtB5_10delegation16DelegationModule32move_delegation_contract_to_backCsaR2MVHtCDM0_4test
FN:91,_RNvYINtCs2WGRDwQOHLQ_14liquid_staking11ContractObjINtNtNtNtCseUmQFO6d1K9_22multiversx_sc_scenario3api7impl_vh12vm_hooks_api10VMHooksApiNtNtBR_9debug_api15DebugApiBackendEENtNtB5_10delegation16DelegationModule33change_delegation_contract_paramsCsaR2MVHtCDM0_4test
FN:142,_RNvYINtCs2WGRDwQOHLQ_14liquid_staking11ContractObjINtNtNtNtCseUmQFO6d1K9_22multiversx_sc_scenario3api7impl_vh12vm_hooks_api10VMHooksApiNtNtBR_9debug_api15DebugApiBackendEENtNtB5_10delegation16DelegationModule35remove_delegation_address_from_listCsaR2MVHtCDM0_4test
FN:23,_RNvYINtCs2WGRDwQOHLQ_14liquid_staking11ContractObjINtNtNtNtCseUmQFO6d1K9_22multiversx_sc_scenario3api7impl_vh12vm_hooks_api10VMHooksApiNtNtBR_9debug_api15DebugApiBackendEENtNtB5_10delegation16DelegationModule38update_max_delegation_addresses_numberCsaR2MVHtCDM0_4test
FN:118,_RNvYINtCs2WGRDwQOHLQ_14liquid_staking11ContractObjINtNtNtNtCseUmQFO6d1K9_22multiversx_sc_scenario3api7impl_vh12vm_hooks_api10VMHooksApiNtNtBR_9debug_api15DebugApiBackendEENtNtB5_10delegation16DelegationModule40add_and_order_delegation_address_in_listCsaR2MVHtCDM0_4test
FN:12,_RNvYINtCs2WGRDwQOHLQ_14liquid_staking11ContractObjINtNtNtNtCseUmQFO6d1K9_22multiversx_sc_scenario3api7impl_vh12vm_hooks_api10VMHooksApiNtNtBR_9debug_api15DebugApiBackendEENtNtB5_10delegation16EndpointWrappers17callback_selectorCsaR2MVHtCDM0_4test
FN:12,_RNvYINtCs2WGRDwQOHLQ_14liquid_staking11ContractObjINtNtNtNtCseUmQFO6d1K9_22multiversx_sc_scenario3api7impl_vh12vm_hooks_api10VMHooksApiNtNtBR_9debug_api15DebugApiBackendEENtNtB5_10delegation16EndpointWrappers34call_whitelist_delegation_contractCsaR2MVHtCDM0_4test
FN:12,_RNvYINtCs2WGRDwQOHLQ_14liquid_staking11ContractObjINtNtNtNtCseUmQFO6d1K9_22multiversx_sc_scenario3api7impl_vh12vm_hooks_api10VMHooksApiNtNtBR_9debug_api15DebugApiBackendEENtNtB5_10delegation16EndpointWrappers37call_change_delegation_contract_adminCsaR2MVHtCDM0_4test
FN:12,_RNvYINtCs2WGRDwQOHLQ_14liquid_staking11ContractObjINtNtNtNtCseUmQFO6d1K9_22multiversx_sc_scenario3api7impl_vh12vm_hooks_api10VMHooksApiNtNtBR_9debug_api15DebugApiBackendEENtNtB5_10delegation16EndpointWrappers38call_change_delegation_contract_paramsCsaR2MVHtCDM0_4test
FN:12,_RNvYINtCs2WGRDwQOHLQ_14liquid_staking11ContractObjINtNtNtNtCseUmQFO6d1K9_22multiversx_sc_scenario3api7impl_vh12vm_hooks_api10VMHooksApiNtNtBR_9debug_api15DebugApiBackendEENtNtB5_10delegation16EndpointWrappers43call_update_max_delegation_addresses_numberCsaR2MVHtCDM0_4test
FN:12,_RNvYINtCs2WGRDwQOHLQ_14liquid_staking11ContractObjINtNtNtNtCseUmQFO6d1K9_22multiversx_sc_scenario3api7impl_vh12vm_hooks_api10VMHooksApiNtNtBR_9debug_api15DebugApiBackendEENtNtB5_10delegation16EndpointWrappers4callCsaR2MVHtCDM0_4test
FN:12,_RNvYINtCs2WGRDwQOHLQ_14liquid_staking11ContractObjINtNtNtNtCseUmQFO6d1K9_22multiversx_sc_scenario3api7impl_vh12vm_hooks_api10VMHooksApiNtNtBR_9debug_api15DebugApiBackendEENtNtB5_10delegation16EndpointWrappers8callbackCsaR2MVHtCDM0_4test
FN:37,_RNvYINtCs2WGRDwQOHLQ_14liquid_staking11ContractObjINtNtNtNtCseUmQFO6d1K9_22multiversx_sc_scenario3api7impl_vh12vm_hooks_api10VMHooksApiNtNtBR_9debug_api15DebugApiBackendEENtNtB5_10delegation16DelegationModule29whitelist_delegation_contractCsVH6ELXPoQD_15unDelegate_test
FN:74,_RNvYINtCs2WGRDwQOHLQ_14liquid_staking11ContractObjINtNtNtNtCseUmQFO6d1K9_22multiversx_sc_scenario3api7impl_vh12vm_hooks_api10VMHooksApiNtNtBR_9debug_api15DebugApiBackendEENtNtB5_10delegation16DelegationModule32change_delegation_contract_adminCsVH6ELXPoQD_15unDelegate_test
FN:153,_RNvYINtCs2WGRDwQOHLQ_14liquid_staking11ContractObjINtNtNtNtCseUmQFO6d1K9_22multiversx_sc_scenario3api7impl_vh12vm_hooks_api10VMHooksApiNtNtBR_9debug_api15DebugApiBackendEENtNtB5_10delegation16DelegationModule32move_delegation_contract_to_backCsVH6ELXPoQD_15unDelegate_test
FN:91,_RNvYINtCs2WGRDwQOHLQ_14liquid_staking11ContractObjINtNtNtNtCseUmQFO6d1K9_22multiversx_sc_scenario3api7impl_vh12vm_hooks_api10VMHooksApiNtNtBR_9debug_api15DebugApiBackendEENtNtB5_10delegation16DelegationModule33change_delegation_contract_paramsCsVH6ELXPoQD_15unDelegate_test
FN:142,_RNvYINtCs2WGRDwQOHLQ_14liquid_staking11ContractObjINtNtNtNtCseUmQFO6d1K9_22multiversx_sc_scenario3api7impl_vh12vm_hooks_api10VMHooksApiNtNtBR_9debug_api15DebugApiBackendEENtNtB5_10delegation16DelegationModule35remove_delegation_address_from_listCsVH6ELXPoQD_15unDelegate_test
FN:23,_RNvYINtCs2WGRDwQOHLQ_14liquid_staking11ContractObjINtNtNtNtCseUmQFO6d1K9_22multiversx_sc_scenario3api7impl_vh12vm_hooks_api10VMHooksApiNtNtBR_9debug_api15DebugApiBackendEENtNtB5_10delegation16DelegationModule38update_max_delegation_addresses_numberCsVH6ELXPoQD_15unDelegate_test
FN:118,_RNvYINtCs2WGRDwQOHLQ_14liquid_staking11ContractObjINtNtNtNtCseUmQFO6d1K9_22multiversx_sc_scenario3api7impl_vh12vm_hooks_api10VMHooksApiNtNtBR_9debug_api15DebugApiBackendEENtNtB5_10delegation16DelegationModule40add_and_order_delegation_address_in_listCsVH6ELXPoQD_15unDelegate_test
FN:12,_RNvYINtCs2WGRDwQOHLQ_14liquid_staking11ContractObjINtNtNtNtCseUmQFO6d1K9_22multiversx_sc_scenario3api7impl_vh12vm_hooks_api10VMHooksApiNtNtBR_9debug_api15DebugApiBackendEENtNtB5_10delegation16EndpointWrappers17callback_selectorCsVH6ELXPoQD_15unDelegate_test
FN:12,_RNvYINtCs2WGRDwQOHLQ_14liquid_staking11ContractObjINtNtNtNtCseUmQFO6d1K9_22multiversx_sc_scenario3api7impl_vh12vm_hooks_api10VMHooksApiNtNtBR_9debug_api15DebugApiBackendEENtNtB5_10delegation16EndpointWrappers34call_whitelist_delegation_contractCsVH6ELXPoQD_15unDelegate_test
FN:12,_RNvYINtCs2WGRDwQOHLQ_14liquid_staking11ContractObjINtNtNtNtCseUmQFO6d1K9_22multiversx_sc_scenario3api7impl_vh12vm_hooks_api10VMHooksApiNtNtBR_9debug_api15DebugApiBackendEENtNtB5_10delegation16EndpointWrappers37call_change_delegation_contract_adminCsVH6ELXPoQD_15unDelegate_test
FN:12,_RNvYINtCs2WGRDwQOHLQ_14liquid_staking11ContractObjINtNtNtNtCseUmQFO6d1K9_22multiversx_sc_scenario3api7impl_vh12vm_hooks_api10VMHooksApiNtNtBR_9debug_api15DebugApiBackendEENtNtB5_10delegation16EndpointWrappers38call_change_delegation_contract_paramsCsVH6ELXPoQD_15unDelegate_test
FN:12,_RNvYINtCs2WGRDwQOHLQ_14liquid_staking11ContractObjINtNtNtNtCseUmQFO6d1K9_22multiversx_sc_scenario3api7impl_vh12vm_hooks_api10VMHooksApiNtNtBR_9debug_api15DebugApiBackendEENtNtB5_10delegation16EndpointWrappers43call_update_max_delegation_addresses_numberCsVH6ELXPoQD_15unDelegate_test
FN:12,_RNvYINtCs2WGRDwQOHLQ_14liquid_staking11ContractObjINtNtNtNtCseUmQFO6d1K9_22multiversx_sc_scenario3api7impl_vh12vm_hooks_api10VMHooksApiNtNtBR_9debug_api15DebugApiBackendEENtNtB5_10delegation16EndpointWrappers4callCsVH6ELXPoQD_15unDelegate_test
FN:12,_RNvYINtCs2WGRDwQOHLQ_14liquid_staking11ContractObjINtNtNtNtCseUmQFO6d1K9_22multiversx_sc_scenario3api7impl_vh12vm_hooks_api10VMHooksApiNtNtBR_9debug_api15DebugApiBackendEENtNtB5_10delegation16EndpointWrappers8callbackCsVH6ELXPoQD_15unDelegate_test
FN:78,_RNCNvYINtCs2WGRDwQOHLQ_14liquid_staking11ContractObjINtNtNtNtCseUmQFO6d1K9_22multiversx_sc_scenario3api7impl_vh12vm_hooks_api10VMHooksApiNtNtBT_9debug_api15DebugApiBackendEENtNtB7_10delegation16DelegationModule32change_delegation_contract_admin0CsVH6ELXPoQD_15unDelegate_test
FN:110,_RNCNvYINtCs2WGRDwQOHLQ_14liquid_staking11ContractObjINtNtNtNtCseUmQFO6d1K9_22multiversx_sc_scenario3api7impl_vh12vm_hooks_api10VMHooksApiNtNtBT_9debug_api15DebugApiBackendEENtNtB7_10delegation16DelegationModule33change_delegation_contract_params0CsVH6ELXPoQD_15unDelegate_test
FN:37,_RNvYINtCs2WGRDwQOHLQ_14liquid_staking11ContractObjINtNtNtNtCseUmQFO6d1K9_22multiversx_sc_scenario3api7impl_vh12vm_hooks_api10VMHooksApiNtNtBR_9debug_api15DebugApiBackendEENtNtB5_10delegation16DelegationModule29whitelist_delegation_contractCshHwHQpnfuGH_11unbond_test
FN:74,_RNvYINtCs2WGRDwQOHLQ_14liquid_staking11ContractObjINtNtNtNtCseUmQFO6d1K9_22multiversx_sc_scenario3api7impl_vh12vm_hooks_api10VMHooksApiNtNtBR_9debug_api15DebugApiBackendEENtNtB5_10delegation16DelegationModule32change_delegation_contract_adminCshHwHQpnfuGH_11unbond_test
FN:153,_RNvYINtCs2WGRDwQOHLQ_14liquid_staking11ContractObjINtNtNtNtCseUmQFO6d1K9_22multiversx_sc_scenario3api7impl_vh12vm_hooks_api10VMHooksApiNtNtBR_9debug_api15DebugApiBackendEENtNtB5_10delegation16DelegationModule32move_delegation_contract_to_backCshHwHQpnfuGH_11unbond_test
FN:91,_RNvYINtCs2WGRDwQOHLQ_14liquid_staking11ContractObjINtNtNtNtCseUmQFO6d1K9_22multiversx_sc_scenario3api7impl_vh12vm_hooks_api10VMHooksApiNtNtBR_9debug_api15DebugApiBackendEENtNtB5_10delegation16DelegationModule33change_delegation_contract_paramsCshHwHQpnfuGH_11unbond_test
FN:142,_RNvYINtCs2WGRDwQOHLQ_14liquid_staking11ContractObjINtNtNtNtCseUmQFO6d1K9_22multiversx_sc_scenario3api7impl_vh12vm_hooks_api10VMHooksApiNtNtBR_9debug_api15DebugApiBackendEENtNtB5_10delegation16DelegationModule35remove_delegation_address_from_listCshHwHQpnfuGH_11unbond_test
FN:23,_RNvYINtCs2WGRDwQOHLQ_14liquid_staking11ContractObjINtNtNtNtCseUmQFO6d1K9_22multiversx_sc_scenario3api7impl_vh12vm_hooks_api10VMHooksApiNtNtBR_9debug_api15DebugApiBackendEENtNtB5_10delegation16DelegationModule38update_max_delegation_addresses_numberCshHwHQpnfuGH_11unbond_test
FN:118,_RNvYINtCs2WGRDwQOHLQ_14liquid_staking11ContractObjINtNtNtNtCseUmQFO6d1K9_22multiversx_sc_scenario3api7impl_vh12vm_hooks_api10VMHooksApiNtNtBR_9debug_api15DebugApiBackendEENtNtB5_10delegation16DelegationModule40add_and_order_delegation_address_in_listCshHwHQpnfuGH_11unbond_test
FN:12,_RNvYINtCs2WGRDwQOHLQ_14liquid_staking11ContractObjINtNtNtNtCseUmQFO6d1K9_22multiversx_sc_scenario3api7impl_vh12vm_hooks_api10VMHooksApiNtNtBR_9debug_api15DebugApiBackendEENtNtB5_10delegation16EndpointWrappers17callback_selectorCshHwHQpnfuGH_11unbond_test
FN:12,_RNvYINtCs2WGRDwQOHLQ_14liquid_staking11ContractObjINtNtNtNtCseUmQFO6d1K9_22multiversx_sc_scenario3api7impl_vh12vm_hooks_api10VMHooksApiNtNtBR_9debug_api15DebugApiBackendEENtNtB5_10delegation16EndpointWrappers34call_whitelist_delegation_contractCshHwHQpnfuGH_11unbond_test
FN:12,_RNvYINtCs2WGRDwQOHLQ_14liquid_staking11ContractObjINtNtNtNtCseUmQFO6d1K9_22multiversx_sc_scenario3api7impl_vh12vm_hooks_api10VMHooksApiNtNtBR_9debug_api15DebugApiBackendEENtNtB5_10delegation16EndpointWrappers37call_change_delegation_contract_adminCshHwHQpnfuGH_11unbond_test
FN:12,_RNvYINtCs2WGRDwQOHLQ_14liquid_staking11ContractObjINtNtNtNtCseUmQFO6d1K9_22multiversx_sc_scenario3api7impl_vh12vm_hooks_api10VMHooksApiNtNtBR_9debug_api15DebugApiBackendEENtNtB5_10delegation16EndpointWrappers38call_change_delegation_contract_paramsCshHwHQpnfuGH_11unbond_test
FN:12,_RNvYINtCs2WGRDwQOHLQ_14liquid_staking11ContractObjINtNtNtNtCseUmQFO6d1K9_22multiversx_sc_scenario3api7impl_vh12vm_hooks_api10VMHooksApiNtNtBR_9debug_api15DebugApiBackendEENtNtB5_10delegation16EndpointWrappers43call_update_max_delegation_addresses_numberCshHwHQpnfuGH_11unbond_test
FN:12,_RNvYINtCs2WGRDwQOHLQ_14liquid_staking11ContractObjINtNtNtNtCseUmQFO6d1K9_22multiversx_sc_scenario3api7impl_vh12vm_hooks_api10VMHooksApiNtNtBR_9debug_api15DebugApiBackendEENtNtB5_10delegation16EndpointWrappers4callCshHwHQpnfuGH_11unbond_test
FN:12,_RNvYINtCs2WGRDwQOHLQ_14liquid_staking11ContractObjINtNtNtNtCseUmQFO6d1K9_22multiversx_sc_scenario3api7impl_vh12vm_hooks_api10VMHooksApiNtNtBR_9debug_api15DebugApiBackendEENtNtB5_10delegation16EndpointWrappers8callbackCshHwHQpnfuGH_11unbond_test
FN:78,_RNCNvYINtCs2WGRDwQOHLQ_14liquid_staking11ContractObjINtNtNtNtCseUmQFO6d1K9_22multiversx_sc_scenario3api7impl_vh12vm_hooks_api10VMHooksApiNtNtBT_9debug_api15DebugApiBackendEENtNtB7_10delegation16DelegationModule32change_delegation_contract_admin0CshHwHQpnfuGH_11unbond_test
FN:110,_RNCNvYINtCs2WGRDwQOHLQ_14liquid_staking11ContractObjINtNtNtNtCseUmQFO6d1K9_22multiversx_sc_scenario3api7impl_vh12vm_hooks_api10VMHooksApiNtNtBT_9debug_api15DebugApiBackendEENtNtB7_10delegation16DelegationModule33change_delegation_contract_params0CshHwHQpnfuGH_11unbond_test
FNDA:0,_RNCNvYINtCs2WGRDwQOHLQ_14liquid_staking11ContractObjINtNtNtNtCseUmQFO6d1K9_22multiversx_sc_scenario3api7impl_vh12vm_hooks_api10VMHooksApiNtNtBT_9debug_api15DebugApiBackendEENtNtB7_10delegation16DelegationModule32change_delegation_contract_admin0CskEhliFuVTlV_13delegate_test
FNDA:0,_RNCNvYINtCs2WGRDwQOHLQ_14liquid_staking11ContractObjINtNtNtNtCseUmQFO6d1K9_22multiversx_sc_scenario3api7impl_vh12vm_hooks_api10VMHooksApiNtNtBT_9debug_api15DebugApiBackendEENtNtB7_10delegation16DelegationModule33change_delegation_contract_params0CskEhliFuVTlV_13delegate_test
FNDA:9,_RNvYINtCs2WGRDwQOHLQ_14liquid_staking11ContractObjINtNtNtNtCseUmQFO6d1K9_22multiversx_sc_scenario3api7impl_vh12vm_hooks_api10VMHooksApiNtNtBR_9debug_api15DebugApiBackendEENtNtB5_10delegation16DelegationModule29whitelist_delegation_contractCskEhliFuVTlV_13delegate_test
FNDA:0,_RNvYINtCs2WGRDwQOHLQ_14liquid_staking11ContractObjINtNtNtNtCseUmQFO6d1K9_22multiversx_sc_scenario3api7impl_vh12vm_hooks_api10VMHooksApiNtNtBR_9debug_api15DebugApiBackendEENtNtB5_10delegation16DelegationModule32change_delegation_contract_adminCskEhliFuVTlV_13delegate_test
FNDA:4,_RNvYINtCs2WGRDwQOHLQ_14liquid_staking11ContractObjINtNtNtNtCseUmQFO6d1K9_22multiversx_sc_scenario3api7impl_vh12vm_hooks_api10VMHooksApiNtNtBR_9debug_api15DebugApiBackendEENtNtB5_10delegation16DelegationModule32move_delegation_contract_to_backCskEhliFuVTlV_13delegate_test
FNDA:0,_RNvYINtCs2WGRDwQOHLQ_14liquid_staking11ContractObjINtNtNtNtCseUmQFO6d1K9_22multiversx_sc_scenario3api7impl_vh12vm_hooks_api10VMHooksApiNtNtBR_9debug_api15DebugApiBackendEENtNtB5_10delegation16DelegationModule33change_delegation_contract_paramsCskEhliFuVTlV_13delegate_test
FNDA:4,_RNvYINtCs2WGRDwQOHLQ_14liquid_staking11ContractObjINtNtNtNtCseUmQFO6d1K9_22multiversx_sc_scenario3api7impl_vh12vm_hooks_api10VMHooksApiNtNtBR_9debug_api15DebugApiBackendEENtNtB5_10delegation16DelegationModule35remove_delegation_address_from_listCskEhliFuVTlV_13delegate_test
FNDA:0,_RNvYINtCs2WGRDwQOHLQ_14liquid_staking11ContractObjINtNtNtNtCseUmQFO6d1K9_22multiversx_sc_scenario3api7impl_vh12vm_hooks_api10VMHooksApiNtNtBR_9debug_api15DebugApiBackendEENtNtB5_10delegation16DelegationModule38update_max_delegation_addresses_numberCskEhliFuVTlV_13delegate_test
FNDA:9,_RNvYINtCs2WGRDwQOHLQ_14liquid_staking11ContractObjINtNtNtNtCseUmQFO6d1K9_22multiversx_sc_scenario3api7impl_vh12vm_hooks_api10VMHooksApiNtNtBR_9debug_api15DebugApiBackendEENtNtB5_10delegation16DelegationModule40add_and_order_delegation_address_in_listCskEhliFuVTlV_13delegate_test
FNDA:0,_RNvYINtCs2WGRDwQOHLQ_14liquid_staking11ContractObjINtNtNtNtCseUmQFO6d1K9_22multiversx_sc_scenario3api7impl_vh12vm_hooks_api10VMHooksApiNtNtBR_9debug_api15DebugApiBackendEENtNtB5_10delegation16EndpointWrappers17callback_selectorCskEhliFuVTlV_13delegate_test
FNDA:0,_RNvYINtCs2WGRDwQOHLQ_14liquid_staking11ContractObjINtNtNtNtCseUmQFO6d1K9_22multiversx_sc_scenario3api7impl_vh12vm_hooks_api10VMHooksApiNtNtBR_9debug_api15DebugApiBackendEENtNtB5_10delegation16EndpointWrappers34call_whitelist_delegation_contractCskEhliFuVTlV_13delegate_test
FNDA:0,_RNvYINtCs2WGRDwQOHLQ_14liquid_staking11ContractObjINtNtNtNtCseUmQFO6d1K9_22multiversx_sc_scenario3api7impl_vh12vm_hooks_api10VMHooksApiNtNtBR_9debug_api15DebugApiBackendEENtNtB5_10delegation16EndpointWrappers37call_change_delegation_contract_adminCskEhliFuVTlV_13delegate_test
FNDA:0,_RNvYINtCs2WGRDwQOHLQ_14liquid_staking11ContractObjINtNtNtNtCseUmQFO6d1K9_22multiversx_sc_scenario3api7impl_vh12vm_hooks_api10VMHooksApiNtNtBR_9debug_api15DebugApiBackendEENtNtB5_10delegation16EndpointWrappers38call_change_delegation_contract_paramsCskEhliFuVTlV_13delegate_test
FNDA:0,_RNvYINtCs2WGRDwQOHLQ_14liquid_staking11ContractObjINtNtNtNtCseUmQFO6d1K9_22multiversx_sc_scenario3api7impl_vh12vm_hooks_api10VMHooksApiNtNtBR_9debug_api15DebugApiBackendEENtNtB5_10delegation16EndpointWrappers43call_update_max_delegation_addresses_numberCskEhliFuVTlV_13delegate_test
FNDA:0,_RNvYINtCs2WGRDwQOHLQ_14liquid_staking11ContractObjINtNtNtNtCseUmQFO6d1K9_22multiversx_sc_scenario3api7impl_vh12vm_hooks_api10VMHooksApiNtNtBR_9debug_api15DebugApiBackendEENtNtB5_10delegation16EndpointWrappers4callCskEhliFuVTlV_13delegate_test
FNDA:0,_RNvYINtCs2WGRDwQOHLQ_14liquid_staking11ContractObjINtNtNtNtCseUmQFO6d1K9_22multiversx_sc_scenario3api7impl_vh12vm_hooks_api10VMHooksApiNtNtBR_9debug_api15DebugApiBackendEENtNtB5_10delegation16EndpointWrappers8callbackCskEhliFuVTlV_13delegate_test
FNDA:0,_RNvYpNtNtCsdRzYvL09OST_14liquid_staking10delegation16DelegationModule38update_max_delegation_addresses_numberB7_
FNDA:0,_RNvYpNtNtCsdRzYvL09OST_14liquid_staking10delegation16DelegationModule29whitelist_delegation_contractB7_
FNDA:0,_RNvYpNtNtCsdRzYvL09OST_14liquid_staking10delegation16DelegationModule32change_delegation_contract_adminB7_
FNDA:0,_RNCNvYpNtNtCsdRzYvL09OST_14liquid_staking10delegation16DelegationModule32change_delegation_contract_admin0B9_
FNDA:0,_RNvYpNtNtCsdRzYvL09OST_14liquid_staking10delegation16DelegationModule33change_delegation_contract_paramsB7_
FNDA:0,_RNCNvYpNtNtCsdRzYvL09OST_14liquid_staking10delegation16DelegationModule33change_delegation_contract_params0B9_
FNDA:0,_RNvYpNtNtCsdRzYvL09OST_14liquid_staking10delegation16DelegationModule40add_and_order_delegation_address_in_listB7_
FNDA:0,_RNvYpNtNtCsdRzYvL09OST_14liquid_staking10delegation16DelegationModule35remove_delegation_address_from_listB7_
FNDA:0,_RNvYpNtNtCsdRzYvL09OST_14liquid_staking10delegation16DelegationModule32move_delegation_contract_to_backB7_
FNDA:0,_RNvYpNtNtCsdRzYvL09OST_14liquid_staking10delegation16EndpointWrappers43call_update_max_delegation_addresses_numberB7_
FNDA:0,_RNvYpNtNtCsdRzYvL09OST_14liquid_staking10delegation16EndpointWrappers34call_whitelist_delegation_contractB7_
FNDA:0,_RNvYpNtNtCsdRzYvL09OST_14liquid_staking10delegation16EndpointWrappers37call_change_delegation_contract_adminB7_
FNDA:0,_RNvYpNtNtCsdRzYvL09OST_14liquid_staking10delegation16EndpointWrappers38call_change_delegation_contract_paramsB7_
FNDA:0,_RNvYpNtNtCsdRzYvL09OST_14liquid_staking10delegation16EndpointWrappers4callB7_
FNDA:0,_RNvYpNtNtCsdRzYvL09OST_14liquid_staking10delegation16EndpointWrappers17callback_selectorB7_
FNDA:0,_RNvYpNtNtCsdRzYvL09OST_14liquid_staking10delegation16EndpointWrappers8callbackB7_
FNDA:0,_RNvXs1_NtCsdRzYvL09OST_14liquid_staking10delegationNtB5_11AbiProviderNtNtNtCs4WmCETBkTZ5_13multiversx_sc13contract_base21contract_abi_provider19ContractAbiProvider3abi
FNDA:0,_RNvXININtCsdRzYvL09OST_14liquid_staking10delegationsh_0pEINtB5_11ContractObjpENtNtNtCs4WmCETBkTZ5_13multiversx_sc13contract_base17callable_contract16CallableContract4callB7_
FNDA:0,_RINvNtCsdRzYvL09OST_14liquid_staking10delegation12contract_objpEB4_
FNDA:0,_RINvXsi_NtCsdRzYvL09OST_14liquid_staking10delegationNtB6_15ContractBuilderNtNtNtCs4WmCETBkTZ5_13multiversx_sc13contract_base17callable_contract23CallableContractBuilder16new_contract_objpEB8_
FNDA:0,_RINvNtNtCsdRzYvL09OST_14liquid_staking10delegation19___wasm__endpoints__38update_max_delegation_addresses_numberpEB6_
FNDA:0,_RINvNtNtCsdRzYvL09OST_14liquid_staking10delegation19___wasm__endpoints__29whitelist_delegation_contractpEB6_
FNDA:0,_RINvNtNtCsdRzYvL09OST_14liquid_staking10delegation19___wasm__endpoints__32change_delegation_contract_adminpEB6_
FNDA:0,_RINvNtNtCsdRzYvL09OST_14liquid_staking10delegation19___wasm__endpoints__33change_delegation_contract_paramspEB6_
FNDA:0,_RINvYpNtNtCsdRzYvL09OST_14liquid_staking10delegation10ProxyTrait38update_max_delegation_addresses_numberpEB8_
FNDA:0,_RINvYpNtNtCsdRzYvL09OST_14liquid_staking10delegation10ProxyTrait29whitelist_delegation_contractppppppEB8_
FNDA:0,_RINvYpNtNtCsdRzYvL09OST_14liquid_staking10delegation10ProxyTrait32change_delegation_contract_adminppEB8_
FNDA:0,_RINvYpNtNtCsdRzYvL09OST_14liquid_staking10delegation10ProxyTrait33change_delegation_contract_paramspppppEB8_
FNDA:0,_RNCNvYINtCs2WGRDwQOHLQ_14liquid_staking11ContractObjINtNtNtNtCseUmQFO6d1K9_22multiversx_sc_scenario3api7impl_vh12vm_hooks_api10VMHooksApiNtNtBT_9debug_api15DebugApiBackendEENtNtB7_10delegation16DelegationModule32change_delegation_contract_admin0CsaR2MVHtCDM0_4test
FNDA:3,_RNCNvYINtCs2WGRDwQOHLQ_14liquid_staking11ContractObjINtNtNtNtCseUmQFO6d1K9_22multiversx_sc_scenario3api7impl_vh12vm_hooks_api10VMHooksApiNtNtBT_9debug_api15DebugApiBackendEENtNtB7_10delegation16DelegationModule33change_delegation_contract_params0CsaR2MVHtCDM0_4test
FNDA:6,_RNvYINtCs2WGRDwQOHLQ_14liquid_staking11ContractObjINtNtNtNtCseUmQFO6d1K9_22multiversx_sc_scenario3api7impl_vh12vm_hooks_api10VMHooksApiNtNtBR_9debug_api15DebugApiBackendEENtNtB5_10delegation16DelegationModule29whitelist_delegation_contractCsaR2MVHtCDM0_4test
FNDA:0,_RNvYINtCs2WGRDwQOHLQ_14liquid_staking11ContractObjINtNtNtNtCseUmQFO6d1K9_22multiversx_sc_scenario3api7impl_vh12vm_hooks_api10VMHooksApiNtNtBR_9debug_api15DebugApiBackendEENtNtB5_10delegation16DelegationModule32change_delegation_contract_adminCsaR2MVHtCDM0_4test
FNDA:18,_RNvYINtCs2WGRDwQOHLQ_14liquid_staking11ContractObjINtNtNtNtCseUmQFO6d1K9_22multiversx_sc_scenario3api7impl_vh12vm_hooks_api10VMHooksApiNtNtBR_9debug_api15DebugApiBackendEENtNtB5_10delegation16DelegationModule32move_delegation_contract_to_backCsaR2MVHtCDM0_4test
FNDA:3,_RNvYINtCs2WGRDwQOHLQ_14liquid_staking11ContractObjINtNtNtNtCseUmQFO6d1K9_22multiversx_sc_scenario3api7impl_vh12vm_hooks_api10VMHooksApiNtNtBR_9debug_api15DebugApiBackendEENtNtB5_10delegation16DelegationModule33change_delegation_contract_paramsCsaR2MVHtCDM0_4test
FNDA:20,_RNvYINtCs2WGRDwQOHLQ_14liquid_staking11ContractObjINtNtNtNtCseUmQFO6d1K9_22multiversx_sc_scenario3api7impl_vh12vm_hooks_api10VMHooksApiNtNtBR_9debug_api15DebugApiBackendEENtNtB5_10delegation16DelegationModule35remove_delegation_address_from_listCsaR2MVHtCDM0_4test
FNDA:0,_RNvYINtCs2WGRDwQOHLQ_14liquid_staking11ContractObjINtNtNtNtCseUmQFO6d1K9_22multiversx_sc_scenario3api7impl_vh12vm_hooks_api10VMHooksApiNtNtBR_9debug_api15DebugApiBackendEENtNtB5_10delegation16DelegationModule38update_max_delegation_addresses_numberCsaR2MVHtCDM0_4test
FNDA:8,_RNvYINtCs2WGRDwQOHLQ_14liquid_staking11ContractObjINtNtNtNtCseUmQFO6d1K9_22multiversx_sc_scenario3api7impl_vh12vm_hooks_api10VMHooksApiNtNtBR_9debug_api15DebugApiBackendEENtNtB5_10delegation16DelegationModule40add_and_order_delegation_address_in_listCsaR2MVHtCDM0_4test
FNDA:0,_RNvYINtCs2WGRDwQOHLQ_14liquid_staking11ContractObjINtNtNtNtCseUmQFO6d1K9_22multiversx_sc_scenario3api7impl_vh12vm_hooks_api10VMHooksApiNtNtBR_9debug_api15DebugApiBackendEENtNtB5_10delegation16EndpointWrappers17callback_selectorCsaR2MVHtCDM0_4test
FNDA:0,_RNvYINtCs2WGRDwQOHLQ_14liquid_staking11ContractObjINtNtNtNtCseUmQFO6d1K9_22multiversx_sc_scenario3api7impl_vh12vm_hooks_api10VMHooksApiNtNtBR_9debug_api15DebugApiBackendEENtNtB5_10delegation16EndpointWrappers34call_whitelist_delegation_contractCsaR2MVHtCDM0_4test
FNDA:0,_RNvYINtCs2WGRDwQOHLQ_14liquid_staking11ContractObjINtNtNtNtCseUmQFO6d1K9_22multiversx_sc_scenario3api7impl_vh12vm_hooks_api10VMHooksApiNtNtBR_9debug_api15DebugApiBackendEENtNtB5_10delegation16EndpointWrappers37call_change_delegation_contract_adminCsaR2MVHtCDM0_4test
FNDA:0,_RNvYINtCs2WGRDwQOHLQ_14liquid_staking11ContractObjINtNtNtNtCseUmQFO6d1K9_22multiversx_sc_scenario3api7impl_vh12vm_hooks_api10VMHooksApiNtNtBR_9debug_api15DebugApiBackendEENtNtB5_10delegation16EndpointWrappers38call_change_delegation_contract_paramsCsaR2MVHtCDM0_4test
FNDA:0,_RNvYINtCs2WGRDwQOHLQ_14liquid_staking11ContractObjINtNtNtNtCseUmQFO6d1K9_22multiversx_sc_scenario3api7impl_vh12vm_hooks_api10VMHooksApiNtNtBR_9debug_api15DebugApiBackendEENtNtB5_10delegation16EndpointWrappers43call_update_max_delegation_addresses_numberCsaR2MVHtCDM0_4test
FNDA:0,_RNvYINtCs2WGRDwQOHLQ_14liquid_staking11ContractObjINtNtNtNtCseUmQFO6d1K9_22multiversx_sc_scenario3api7impl_vh12vm_hooks_api10VMHooksApiNtNtBR_9debug_api15DebugApiBackendEENtNtB5_10delegation16EndpointWrappers4callCsaR2MVHtCDM0_4test
FNDA:0,_RNvYINtCs2WGRDwQOHLQ_14liquid_staking11ContractObjINtNtNtNtCseUmQFO6d1K9_22multiversx_sc_scenario3api7impl_vh12vm_hooks_api10VMHooksApiNtNtBR_9debug_api15DebugApiBackendEENtNtB5_10delegation16EndpointWrappers8callbackCsaR2MVHtCDM0_4test
FNDA:6,_RNvYINtCs2WGRDwQOHLQ_14liquid_staking11ContractObjINtNtNtNtCseUmQFO6d1K9_22multiversx_sc_scenario3api7impl_vh12vm_hooks_api10VMHooksApiNtNtBR_9debug_api15DebugApiBackendEENtNtB5_10delegation16DelegationModule29whitelist_delegation_contractCsVH6ELXPoQD_15unDelegate_test
FNDA:0,_RNvYINtCs2WGRDwQOHLQ_14liquid_staking11ContractObjINtNtNtNtCseUmQFO6d1K9_22multiversx_sc_scenario3api7impl_vh12vm_hooks_api10VMHooksApiNtNtBR_9debug_api15DebugApiBackendEENtNtB5_10delegation16DelegationModule32change_delegation_contract_adminCsVH6ELXPoQD_15unDelegate_test
FNDA:5,_RNvYINtCs2WGRDwQOHLQ_14liquid_staking11ContractObjINtNtNtNtCseUmQFO6d1K9_22multiversx_sc_scenario3api7impl_vh12vm_hooks_api10VMHooksApiNtNtBR_9debug_api15DebugApiBackendEENtNtB5_10delegation16DelegationModule32move_delegation_contract_to_backCsVH6ELXPoQD_15unDelegate_test
FNDA:0,_RNvYINtCs2WGRDwQOHLQ_14liquid_staking11ContractObjINtNtNtNtCseUmQFO6d1K9_22multiversx_sc_scenario3api7impl_vh12vm_hooks_api10VMHooksApiNtNtBR_9debug_api15DebugApiBackendEENtNtB5_10delegation16DelegationModule33change_delegation_contract_paramsCsVH6ELXPoQD_15unDelegate_test
FNDA:5,_RNvYINtCs2WGRDwQOHLQ_14liquid_staking11ContractObjINtNtNtNtCseUmQFO6d1K9_22multiversx_sc_scenario3api7impl_vh12vm_hooks_api10VMHooksApiNtNtBR_9debug_api15DebugApiBackendEENtNtB5_10delegation16DelegationModule35remove_delegation_address_from_listCsVH6ELXPoQD_15unDelegate_test
FNDA:0,_RNvYINtCs2WGRDwQOHLQ_14liquid_staking11ContractObjINtNtNtNtCseUmQFO6d1K9_22multiversx_sc_scenario3api7impl_vh12vm_hooks_api10VMHooksApiNtNtBR_9debug_api15DebugApiBackendEENtNtB5_10delegation16DelegationModule38update_max_delegation_addresses_numberCsVH6ELXPoQD_15unDelegate_test
FNDA:6,_RNvYINtCs2WGRDwQOHLQ_14liquid_staking11ContractObjINtNtNtNtCseUmQFO6d1K9_22multiversx_sc_scenario3api7impl_vh12vm_hooks_api10VMHooksApiNtNtBR_9debug_api15DebugApiBackendEENtNtB5_10delegation16DelegationModule40add_and_order_delegation_address_in_listCsVH6ELXPoQD_15unDelegate_test
FNDA:0,_RNvYINtCs2WGRDwQOHLQ_14liquid_staking11ContractObjINtNtNtNtCseUmQFO6d1K9_22multiversx_sc_scenario3api7impl_vh12vm_hooks_api10VMHooksApiNtNtBR_9debug_api15DebugApiBackendEENtNtB5_10delegation16EndpointWrappers17callback_selectorCsVH6ELXPoQD_15unDelegate_test
FNDA:0,_RNvYINtCs2WGRDwQOHLQ_14liquid_staking11ContractObjINtNtNtNtCseUmQFO6d1K9_22multiversx_sc_scenario3api7impl_vh12vm_hooks_api10VMHooksApiNtNtBR_9debug_api15DebugApiBackendEENtNtB5_10delegation16EndpointWrappers34call_whitelist_delegation_contractCsVH6ELXPoQD_15unDelegate_test
FNDA:0,_RNvYINtCs2WGRDwQOHLQ_14liquid_staking11ContractObjINtNtNtNtCseUmQFO6d1K9_22multiversx_sc_scenario3api7impl_vh12vm_hooks_api10VMHooksApiNtNtBR_9debug_api15DebugApiBackendEENtNtB5_10delegation16EndpointWrappers37call_change_delegation_contract_adminCsVH6ELXPoQD_15unDelegate_test
FNDA:0,_RNvYINtCs2WGRDwQOHLQ_14liquid_staking11ContractObjINtNtNtNtCseUmQFO6d1K9_22multiversx_sc_scenario3api7impl_vh12vm_hooks_api10VMHooksApiNtNtBR_9debug_api15DebugApiBackendEENtNtB5_10delegation16EndpointWrappers38call_change_delegation_contract_paramsCsVH6ELXPoQD_15unDelegate_test
FNDA:0,_RNvYINtCs2WGRDwQOHLQ_14liquid_staking11ContractObjINtNtNtNtCseUmQFO6d1K9_22multiversx_sc_scenario3api7impl_vh12vm_hooks_api10VMHooksApiNtNtBR_9debug_api15DebugApiBackendEENtNtB5_10delegation16EndpointWrappers43call_update_max_delegation_addresses_numberCsVH6ELXPoQD_15unDelegate_test
FNDA:0,_RNvYINtCs2WGRDwQOHLQ_14liquid_staking11ContractObjINtNtNtNtCseUmQFO6d1K9_22multiversx_sc_scenario3api7impl_vh12vm_hooks_api10VMHooksApiNtNtBR_9debug_api15DebugApiBackendEENtNtB5_10delegation16EndpointWrappers4callCsVH6ELXPoQD_15unDelegate_test
FNDA:0,_RNvYINtCs2WGRDwQOHLQ_14liquid_staking11ContractObjINtNtNtNtCseUmQFO6d1K9_22multiversx_sc_scenario3api7impl_vh12vm_hooks_api10VMHooksApiNtNtBR_9debug_api15DebugApiBackendEENtNtB5_10delegation16EndpointWrappers8callbackCsVH6ELXPoQD_15unDelegate_test
FNDA:0,_RNCNvYINtCs2WGRDwQOHLQ_14liquid_staking11ContractObjINtNtNtNtCseUmQFO6d1K9_22multiversx_sc_scenario3api7impl_vh12vm_hooks_api10VMHooksApiNtNtBT_9debug_api15DebugApiBackendEENtNtB7_10delegation16DelegationModule32change_delegation_contract_admin0CsVH6ELXPoQD_15unDelegate_test
FNDA:0,_RNCNvYINtCs2WGRDwQOHLQ_14liquid_staking11ContractObjINtNtNtNtCseUmQFO6d1K9_22multiversx_sc_scenario3api7impl_vh12vm_hooks_api10VMHooksApiNtNtBT_9debug_api15DebugApiBackendEENtNtB7_10delegation16DelegationModule33change_delegation_contract_params0CsVH6ELXPoQD_15unDelegate_test
FNDA:5,_RNvYINtCs2WGRDwQOHLQ_14liquid_staking11ContractObjINtNtNtNtCseUmQFO6d1K9_22multiversx_sc_scenario3api7impl_vh12vm_hooks_api10VMHooksApiNtNtBR_9debug_api15DebugApiBackendEENtNtB5_10delegation16DelegationModule29whitelist_delegation_contractCshHwHQpnfuGH_11unbond_test
FNDA:0,_RNvYINtCs2WGRDwQOHLQ_14liquid_staking11ContractObjINtNtNtNtCseUmQFO6d1K9_22multiversx_sc_scenario3api7impl_vh12vm_hooks_api10VMHooksApiNtNtBR_9debug_api15DebugApiBackendEENtNtB5_10delegation16DelegationModule32change_delegation_contract_adminCshHwHQpnfuGH_11unbond_test
FNDA:5,_RNvYINtCs2WGRDwQOHLQ_14liquid_staking11ContractObjINtNtNtNtCseUmQFO6d1K9_22multiversx_sc_scenario3api7impl_vh12vm_hooks_api10VMHooksApiNtNtBR_9debug_api15DebugApiBackendEENtNtB5_10delegation16DelegationModule32move_delegation_contract_to_backCshHwHQpnfuGH_11unbond_test
FNDA:0,_RNvYINtCs2WGRDwQOHLQ_14liquid_staking11ContractObjINtNtNtNtCseUmQFO6d1K9_22multiversx_sc_scenario3api7impl_vh12vm_hooks_api10VMHooksApiNtNtBR_9debug_api15DebugApiBackendEENtNtB5_10delegation16DelegationModule33change_delegation_contract_paramsCshHwHQpnfuGH_11unbond_test
FNDA:5,_RNvYINtCs2WGRDwQOHLQ_14liquid_staking11ContractObjINtNtNtNtCseUmQFO6d1K9_22multiversx_sc_scenario3api7impl_vh12vm_hooks_api10VMHooksApiNtNtBR_9debug_api15DebugApiBackendEENtNtB5_10delegation16DelegationModule35remove_delegation_address_from_listCshHwHQpnfuGH_11unbond_test
FNDA:0,_RNvYINtCs2WGRDwQOHLQ_14liquid_staking11ContractObjINtNtNtNtCseUmQFO6d1K9_22multiversx_sc_scenario3api7impl_vh12vm_hooks_api10VMHooksApiNtNtBR_9debug_api15DebugApiBackendEENtNtB5_10delegation16DelegationModule38update_max_delegation_addresses_numberCshHwHQpnfuGH_11unbond_test
FNDA:5,_RNvYINtCs2WGRDwQOHLQ_14liquid_staking11ContractObjINtNtNtNtCseUmQFO6d1K9_22multiversx_sc_scenario3api7impl_vh12vm_hooks_api10VMHooksApiNtNtBR_9debug_api15DebugApiBackendEENtNtB5_10delegation16DelegationModule40add_and_order_delegation_address_in_listCshHwHQpnfuGH_11unbond_test
FNDA:0,_RNvYINtCs2WGRDwQOHLQ_14liquid_staking11ContractObjINtNtNtNtCseUmQFO6d1K9_22multiversx_sc_scenario3api7impl_vh12vm_hooks_api10VMHooksApiNtNtBR_9debug_api15DebugApiBackendEENtNtB5_10delegation16EndpointWrappers17callback_selectorCshHwHQpnfuGH_11unbond_test
FNDA:0,_RNvYINtCs2WGRDwQOHLQ_14liquid_staking11ContractObjINtNtNtNtCseUmQFO6d1K9_22multiversx_sc_scenario3api7impl_vh12vm_hooks_api10VMHooksApiNtNtBR_9debug_api15DebugApiBackendEENtNtB5_10delegation16EndpointWrappers34call_whitelist_delegation_contractCshHwHQpnfuGH_11unbond_test
FNDA:0,_RNvYINtCs2WGRDwQOHLQ_14liquid_staking11ContractObjINtNtNtNtCseUmQFO6d1K9_22multiversx_sc_scenario3api7impl_vh12vm_hooks_api10VMHooksApiNtNtBR_9debug_api15DebugApiBackendEENtNtB5_10delegation16EndpointWrappers37call_change_delegation_contract_adminCshHwHQpnfuGH_11unbond_test
FNDA:0,_RNvYINtCs2WGRDwQOHLQ_14liquid_staking11ContractObjINtNtNtNtCseUmQFO6d1K9_22multiversx_sc_scenario3api7impl_vh12vm_hooks_api10VMHooksApiNtNtBR_9debug_api15DebugApiBackendEENtNtB5_10delegation16EndpointWrappers38call_change_delegation_contract_paramsCshHwHQpnfuGH_11unbond_test
FNDA:0,_RNvYINtCs2WGRDwQOHLQ_14liquid_staking11ContractObjINtNtNtNtCseUmQFO6d1K9_22multiversx_sc_scenario3api7impl_vh12vm_hooks_api10VMHooksApiNtNtBR_9debug_api15DebugApiBackendEENtNtB5_10delegation16EndpointWrappers43call_update_max_delegation_addresses_numberCshHwHQpnfuGH_11unbond_test
FNDA:0,_RNvYINtCs2WGRDwQOHLQ_14liquid_staking11ContractObjINtNtNtNtCseUmQFO6d1K9_22multiversx_sc_scenario3api7impl_vh12vm_hooks_api10VMHooksApiNtNtBR_9debug_api15DebugApiBackendEENtNtB5_10delegation16EndpointWrappers4callCshHwHQpnfuGH_11unbond_test
FNDA:0,_RNvYINtCs2WGRDwQOHLQ_14liquid_staking11ContractObjINtNtNtNtCseUmQFO6d1K9_22multiversx_sc_scenario3api7impl_vh12vm_hooks_api10VMHooksApiNtNtBR_9debug_api15DebugApiBackendEENtNtB5_10delegation16EndpointWrappers8callbackCshHwHQpnfuGH_11unbond_test
FNDA:0,_RNCNvYINtCs2WGRDwQOHLQ_14liquid_staking11ContractObjINtNtNtNtCseUmQFO6d1K9_22multiversx_sc_scenario3api7impl_vh12vm_hooks_api10VMHooksApiNtNtBT_9debug_api15DebugApiBackendEENtNtB7_10delegation16DelegationModule32change_delegation_contract_admin0CshHwHQpnfuGH_11unbond_test
FNDA:0,_RNCNvYINtCs2WGRDwQOHLQ_14liquid_staking11ContractObjINtNtNtNtCseUmQFO6d1K9_22multiversx_sc_scenario3api7impl_vh12vm_hooks_api10VMHooksApiNtNtBT_9debug_api15DebugApiBackendEENtNtB7_10delegation16DelegationModule33change_delegation_contract_params0CshHwHQpnfuGH_11unbond_test
FNF:10
FNH:6
DA:12,0
DA:23,0
DA:24,0
DA:37,26
DA:38,26
DA:39,26
DA:40,26
DA:41,26
DA:43,26
DA:44,26
DA:45,0
DA:48,26
DA:49,26
DA:50,0
DA:53,26
DA:54,26
DA:55,26
DA:56,26
DA:57,26
DA:58,26
DA:59,26
DA:60,26
DA:61,26
DA:62,26
DA:63,26
DA:64,26
DA:65,26
DA:74,0
DA:75,0
DA:76,0
DA:78,0
DA:79,0
DA:80,0
DA:91,3
DA:92,3
DA:93,3
DA:94,3
DA:95,3
DA:96,3
DA:97,3
DA:98,0
DA:100,3
DA:101,3
DA:102,0
DA:105,3
DA:106,2
DA:107,2
DA:108,1
DA:110,3
DA:111,3
DA:112,3
DA:113,3
DA:114,3
DA:115,3
DA:118,28
DA:119,28
DA:120,28
DA:121,22
DA:122,22
DA:123,6
DA:124,12
DA:125,12
DA:126,12
DA:127,12
DA:128,12
DA:129,12
DA:130,5
DA:131,5
DA:132,5
DA:133,5
DA:134,7
DA:136,6
DA:137,1
DA:138,5
DA:142,34
DA:143,35
DA:144,35
DA:145,35
DA:146,35
DA:147,34
DA:148,34
DA:149,1
DA:153,32
DA:154,32
DA:155,32
DA:156,32
BRF:0
BRH:0
LF:90
LH:75
end_of_record
SF:/Users/mihaieremia/GitHub/rs-egld-liquid-staking/liquid-staking/src/delegation_proxy.rs
FN:81,_RINvMs0_NtCs2WGRDwQOHLQ_14liquid_staking16delegation_proxyINtB6_26DelegationMockProxyMethodsINtNtNtNtNtCs4WmCETBkTZ5_13multiversx_sc5types11interaction7tx_exec9tx_env_sc7TxScEnvINtNtNtNtCseUmQFO6d1K9_22multiversx_sc_scenario3api7impl_vh12vm_hooks_api10VMHooksApiNtNtB2U_9debug_api15DebugApiBackendEEuRINtNtNtNtB1B_7managed7wrapped15managed_address14ManagedAddressB2P_EuE10undelegateRINtNtB4U_8big_uint7BigUintB2P_EECskEhliFuVTlV_13delegate_test
FN:103,_RNvMs0_NtCs2WGRDwQOHLQ_14liquid_staking16delegation_proxyINtB5_26DelegationMockProxyMethodsINtNtNtNtNtCs4WmCETBkTZ5_13multiversx_sc5types11interaction7tx_exec9tx_env_sc7TxScEnvINtNtNtNtCseUmQFO6d1K9_22multiversx_sc_scenario3api7impl_vh12vm_hooks_api10VMHooksApiNtNtB2T_9debug_api15DebugApiBackendEEuRINtNtNtNtB1A_7managed7wrapped15managed_address14ManagedAddressB2O_EuE13claim_rewardsCskEhliFuVTlV_13delegate_test
FN:73,_RNvMs0_NtCs2WGRDwQOHLQ_14liquid_staking16delegation_proxyINtB5_26DelegationMockProxyMethodsINtNtNtNtNtCs4WmCETBkTZ5_13multiversx_sc5types11interaction7tx_exec9tx_env_sc7TxScEnvINtNtNtNtCseUmQFO6d1K9_22multiversx_sc_scenario3api7impl_vh12vm_hooks_api10VMHooksApiNtNtB2T_9debug_api15DebugApiBackendEEuRINtNtNtNtB1A_7managed7wrapped15managed_address14ManagedAddressB2O_EuE8delegateCskEhliFuVTlV_13delegate_test
FN:94,_RNvMs0_NtCs2WGRDwQOHLQ_14liquid_staking16delegation_proxyINtB5_26DelegationMockProxyMethodsINtNtNtNtNtCs4WmCETBkTZ5_13multiversx_sc5types11interaction7tx_exec9tx_env_sc7TxScEnvINtNtNtNtCseUmQFO6d1K9_22multiversx_sc_scenario3api7impl_vh12vm_hooks_api10VMHooksApiNtNtB2T_9debug_api15DebugApiBackendEEuRINtNtNtNtB1A_7managed7wrapped15managed_address14ManagedAddressB2O_EuE8withdrawCskEhliFuVTlV_13delegate_test
FN:23,_RNvXNtCs2WGRDwQOHLQ_14liquid_staking16delegation_proxyNtB2_19DelegationMockProxyINtNtNtNtCs4WmCETBkTZ5_13multiversx_sc5types11interaction8tx_proxy12TxProxyTraitINtNtNtB1l_7tx_exec9tx_env_sc7TxScEnvINtNtNtNtCseUmQFO6d1K9_22multiversx_sc_scenario3api7impl_vh12vm_hooks_api10VMHooksApiNtNtB3e_9debug_api15DebugApiBackendEEuRINtNtNtNtB1n_7managed7wrapped15managed_address14ManagedAddressB39_EuE13proxy_methodsCskEhliFuVTlV_13delegate_test
FN:23,_RNvXININtCsdRzYvL09OST_14liquid_staking16delegation_proxy0ppppENtB5_19DelegationMockProxyINtNtNtNtCs4WmCETBkTZ5_13multiversx_sc5types11interaction8tx_proxy12TxProxyTraitppppE13proxy_methodsB7_
FN:46,_RNvMs_NtCsdRzYvL09OST_14liquid_staking16delegation_proxyINtB4_26DelegationMockProxyMethodsppupE4initB6_
FN:65,_RNvMs0_NtCsdRzYvL09OST_14liquid_staking16delegation_proxyINtB5_26DelegationMockProxyMethodsppppE12deposit_egldB7_
FN:73,_RNvMs0_NtCsdRzYvL09OST_14liquid_staking16delegation_proxyINtB5_26DelegationMockProxyMethodsppppE8delegateB7_
FN:81,_RINvMs0_NtCsdRzYvL09OST_14liquid_staking16delegation_proxyINtB6_26DelegationMockProxyMethodsppppE10undelegatepEB8_
FN:94,_RNvMs0_NtCsdRzYvL09OST_14liquid_staking16delegation_proxyINtB5_26DelegationMockProxyMethodsppppE8withdrawB7_
FN:103,_RNvMs0_NtCsdRzYvL09OST_14liquid_staking16delegation_proxyINtB5_26DelegationMockProxyMethodsppppE13claim_rewardsB7_
FN:81,_RINvMs0_NtCs2WGRDwQOHLQ_14liquid_staking16delegation_proxyINtB6_26DelegationMockProxyMethodsINtNtNtNtNtCs4WmCETBkTZ5_13multiversx_sc5types11interaction7tx_exec9tx_env_sc7TxScEnvINtNtNtNtCseUmQFO6d1K9_22multiversx_sc_scenario3api7impl_vh12vm_hooks_api10VMHooksApiNtNtB2U_9debug_api15DebugApiBackendEEuRINtNtNtNtB1B_7managed7wrapped15managed_address14ManagedAddressB2P_EuE10undelegateRINtNtB4U_8big_uint7BigUintB2P_EECsaR2MVHtCDM0_4test
FN:103,_RNvMs0_NtCs2WGRDwQOHLQ_14liquid_staking16delegation_proxyINtB5_26DelegationMockProxyMethodsINtNtNtNtNtCs4WmCETBkTZ5_13multiversx_sc5types11interaction7tx_exec9tx_env_sc7TxScEnvINtNtNtNtCseUmQFO6d1K9_22multiversx_sc_scenario3api7impl_vh12vm_hooks_api10VMHooksApiNtNtB2T_9debug_api15DebugApiBackendEEuRINtNtNtNtB1A_7managed7wrapped15managed_address14ManagedAddressB2O_EuE13claim_rewardsCsaR2MVHtCDM0_4test
FN:73,_RNvMs0_NtCs2WGRDwQOHLQ_14liquid_staking16delegation_proxyINtB5_26DelegationMockProxyMethodsINtNtNtNtNtCs4WmCETBkTZ5_13multiversx_sc5types11interaction7tx_exec9tx_env_sc7TxScEnvINtNtNtNtCseUmQFO6d1K9_22multiversx_sc_scenario3api7impl_vh12vm_hooks_api10VMHooksApiNtNtB2T_9debug_api15DebugApiBackendEEuRINtNtNtNtB1A_7managed7wrapped15managed_address14ManagedAddressB2O_EuE8delegateCsaR2MVHtCDM0_4test
FN:94,_RNvMs0_NtCs2WGRDwQOHLQ_14liquid_staking16delegation_proxyINtB5_26DelegationMockProxyMethodsINtNtNtNtNtCs4WmCETBkTZ5_13multiversx_sc5types11interaction7tx_exec9tx_env_sc7TxScEnvINtNtNtNtCseUmQFO6d1K9_22multiversx_sc_scenario3api7impl_vh12vm_hooks_api10VMHooksApiNtNtB2T_9debug_api15DebugApiBackendEEuRINtNtNtNtB1A_7managed7wrapped15managed_address14ManagedAddressB2O_EuE8withdrawCsaR2MVHtCDM0_4test
FN:23,_RNvXNtCs2WGRDwQOHLQ_14liquid_staking16delegation_proxyNtB2_19DelegationMockProxyINtNtNtNtCs4WmCETBkTZ5_13multiversx_sc5types11interaction8tx_proxy12TxProxyTraitINtNtNtB1l_7tx_exec9tx_env_sc7TxScEnvINtNtNtNtCseUmQFO6d1K9_22multiversx_sc_scenario3api7impl_vh12vm_hooks_api10VMHooksApiNtNtB3e_9debug_api15DebugApiBackendEEuRINtNtNtNtB1n_7managed7wrapped15managed_address14ManagedAddressB39_EuE13proxy_methodsCsaR2MVHtCDM0_4test
FN:81,_RINvMs0_NtCs2WGRDwQOHLQ_14liquid_staking16delegation_proxyINtB6_26DelegationMockProxyMethodsINtNtNtNtNtCs4WmCETBkTZ5_13multiversx_sc5types11interaction7tx_exec9tx_env_sc7TxScEnvINtNtNtNtCseUmQFO6d1K9_22multiversx_sc_scenario3api7impl_vh12vm_hooks_api10VMHooksApiNtNtB2U_9debug_api15DebugApiBackendEEuRINtNtNtNtB1B_7managed7wrapped15managed_address14ManagedAddressB2P_EuE10undelegateRINtNtB4U_8big_uint7BigUintB2P_EECsVH6ELXPoQD_15unDelegate_test
FN:103,_RNvMs0_NtCs2WGRDwQOHLQ_14liquid_staking16delegation_proxyINtB5_26DelegationMockProxyMethodsINtNtNtNtNtCs4WmCETBkTZ5_13multiversx_sc5types11interaction7tx_exec9tx_env_sc7TxScEnvINtNtNtNtCseUmQFO6d1K9_22multiversx_sc_scenario3api7impl_vh12vm_hooks_api10VMHooksApiNtNtB2T_9debug_api15DebugApiBackendEEuRINtNtNtNtB1A_7managed7wrapped15managed_address14ManagedAddressB2O_EuE13claim_rewardsCsVH6ELXPoQD_15unDelegate_test
FN:73,_RNvMs0_NtCs2WGRDwQOHLQ_14liquid_staking16delegation_proxyINtB5_26DelegationMockProxyMethodsINtNtNtNtNtCs4WmCETBkTZ5_13multiversx_sc5types11interaction7tx_exec9tx_env_sc7TxScEnvINtNtNtNtCseUmQFO6d1K9_22multiversx_sc_scenario3api7impl_vh12vm_hooks_api10VMHooksApiNtNtB2T_9debug_api15DebugApiBackendEEuRINtNtNtNtB1A_7managed7wrapped15managed_address14ManagedAddressB2O_EuE8delegateCsVH6ELXPoQD_15unDelegate_test
FN:94,_RNvMs0_NtCs2WGRDwQOHLQ_14liquid_staking16delegation_proxyINtB5_26DelegationMockProxyMethodsINtNtNtNtNtCs4WmCETBkTZ5_13multiversx_sc5types11interaction7tx_exec9tx_env_sc7TxScEnvINtNtNtNtCseUmQFO6d1K9_22multiversx_sc_scenario3api7impl_vh12vm_hooks_api10VMHooksApiNtNtB2T_9debug_api15DebugApiBackendEEuRINtNtNtNtB1A_7managed7wrapped15managed_address14ManagedAddressB2O_EuE8withdrawCsVH6ELXPoQD_15unDelegate_test
FN:23,_RNvXNtCs2WGRDwQOHLQ_14liquid_staking16delegation_proxyNtB2_19DelegationMockProxyINtNtNtNtCs4WmCETBkTZ5_13multiversx_sc5types11interaction8tx_proxy12TxProxyTraitINtNtNtB1l_7tx_exec9tx_env_sc7TxScEnvINtNtNtNtCseUmQFO6d1K9_22multiversx_sc_scenario3api7impl_vh12vm_hooks_api10VMHooksApiNtNtB3e_9debug_api15DebugApiBackendEEuRINtNtNtNtB1n_7managed7wrapped15managed_address14ManagedAddressB39_EuE13proxy_methodsCsVH6ELXPoQD_15unDelegate_test
FN:81,_RINvMs0_NtCs2WGRDwQOHLQ_14liquid_staking16delegation_proxyINtB6_26DelegationMockProxyMethodsINtNtNtNtNtCs4WmCETBkTZ5_13multiversx_sc5types11interaction7tx_exec9tx_env_sc7TxScEnvINtNtNtNtCseUmQFO6d1K9_22multiversx_sc_scenario3api7impl_vh12vm_hooks_api10VMHooksApiNtNtB2U_9debug_api15DebugApiBackendEEuRINtNtNtNtB1B_7managed7wrapped15managed_address14ManagedAddressB2P_EuE10undelegateRINtNtB4U_8big_uint7BigUintB2P_EECshHwHQpnfuGH_11unbond_test
FN:103,_RNvMs0_NtCs2WGRDwQOHLQ_14liquid_staking16delegation_proxyINtB5_26DelegationMockProxyMethodsINtNtNtNtNtCs4WmCETBkTZ5_13multiversx_sc5types11interaction7tx_exec9tx_env_sc7TxScEnvINtNtNtNtCseUmQFO6d1K9_22multiversx_sc_scenario3api7impl_vh12vm_hooks_api10VMHooksApiNtNtB2T_9debug_api15DebugApiBackendEEuRINtNtNtNtB1A_7managed7wrapped15managed_address14ManagedAddressB2O_EuE13claim_rewardsCshHwHQpnfuGH_11unbond_test
FN:73,_RNvMs0_NtCs2WGRDwQOHLQ_14liquid_staking16delegation_proxyINtB5_26DelegationMockProxyMethodsINtNtNtNtNtCs4WmCETBkTZ5_13multiversx_sc5types11interaction7tx_exec9tx_env_sc7TxScEnvINtNtNtNtCseUmQFO6d1K9_22multiversx_sc_scenario3api7impl_vh12vm_hooks_api10VMHooksApiNtNtB2T_9debug_api15DebugApiBackendEEuRINtNtNtNtB1A_7managed7wrapped15managed_address14ManagedAddressB2O_EuE8delegateCshHwHQpnfuGH_11unbond_test
FN:94,_RNvMs0_NtCs2WGRDwQOHLQ_14liquid_staking16delegation_proxyINtB5_26DelegationMockProxyMethodsINtNtNtNtNtCs4WmCETBkTZ5_13multiversx_sc5types11interaction7tx_exec9tx_env_sc7TxScEnvINtNtNtNtCseUmQFO6d1K9_22multiversx_sc_scenario3api7impl_vh12vm_hooks_api10VMHooksApiNtNtB2T_9debug_api15DebugApiBackendEEuRINtNtNtNtB1A_7managed7wrapped15managed_address14ManagedAddressB2O_EuE8withdrawCshHwHQpnfuGH_11unbond_test
FN:23,_RNvXNtCs2WGRDwQOHLQ_14liquid_staking16delegation_proxyNtB2_19DelegationMockProxyINtNtNtNtCs4WmCETBkTZ5_13multiversx_sc5types11interaction8tx_proxy12TxProxyTraitINtNtNtB1l_7tx_exec9tx_env_sc7TxScEnvINtNtNtNtCseUmQFO6d1K9_22multiversx_sc_scenario3api7impl_vh12vm_hooks_api10VMHooksApiNtNtB3e_9debug_api15DebugApiBackendEEuRINtNtNtNtB1n_7managed7wrapped15managed_address14ManagedAddressB39_EuE13proxy_methodsCshHwHQpnfuGH_11unbond_test
FNDA:0,_RINvMs0_NtCs2WGRDwQOHLQ_14liquid_staking16delegation_proxyINtB6_26DelegationMockProxyMethodsINtNtNtNtNtCs4WmCETBkTZ5_13multiversx_sc5types11interaction7tx_exec9tx_env_sc7TxScEnvINtNtNtNtCseUmQFO6d1K9_22multiversx_sc_scenario3api7impl_vh12vm_hooks_api10VMHooksApiNtNtB2U_9debug_api15DebugApiBackendEEuRINtNtNtNtB1B_7managed7wrapped15managed_address14ManagedAddressB2P_EuE10undelegateRINtNtB4U_8big_uint7BigUintB2P_EECskEhliFuVTlV_13delegate_test
FNDA:0,_RNvMs0_NtCs2WGRDwQOHLQ_14liquid_staking16delegation_proxyINtB5_26DelegationMockProxyMethodsINtNtNtNtNtCs4WmCETBkTZ5_13multiversx_sc5types11interaction7tx_exec9tx_env_sc7TxScEnvINtNtNtNtCseUmQFO6d1K9_22multiversx_sc_scenario3api7impl_vh12vm_hooks_api10VMHooksApiNtNtB2T_9debug_api15DebugApiBackendEEuRINtNtNtNtB1A_7managed7wrapped15managed_address14ManagedAddressB2O_EuE13claim_rewardsCskEhliFuVTlV_13delegate_test
FNDA:4,_RNvMs0_NtCs2WGRDwQOHLQ_14liquid_staking16delegation_proxyINtB5_26DelegationMockProxyMethodsINtNtNtNtNtCs4WmCETBkTZ5_13multiversx_sc5types11interaction7tx_exec9tx_env_sc7TxScEnvINtNtNtNtCseUmQFO6d1K9_22multiversx_sc_scenario3api7impl_vh12vm_hooks_api10VMHooksApiNtNtB2T_9debug_api15DebugApiBackendEEuRINtNtNtNtB1A_7managed7wrapped15managed_address14ManagedAddressB2O_EuE8delegateCskEhliFuVTlV_13delegate_test
FNDA:0,_RNvMs0_NtCs2WGRDwQOHLQ_14liquid_staking16delegation_proxyINtB5_26DelegationMockProxyMethodsINtNtNtNtNtCs4WmCETBkTZ5_13multiversx_sc5types11interaction7tx_exec9tx_env_sc7TxScEnvINtNtNtNtCseUmQFO6d1K9_22multiversx_sc_scenario3api7impl_vh12vm_hooks_api10VMHooksApiNtNtB2T_9debug_api15DebugApiBackendEEuRINtNtNtNtB1A_7managed7wrapped15managed_address14ManagedAddressB2O_EuE8withdrawCskEhliFuVTlV_13delegate_test
FNDA:4,_RNvXNtCs2WGRDwQOHLQ_14liquid_staking16delegation_proxyNtB2_19DelegationMockProxyINtNtNtNtCs4WmCETBkTZ5_13multiversx_sc5types11interaction8tx_proxy12TxProxyTraitINtNtNtB1l_7tx_exec9tx_env_sc7TxScEnvINtNtNtNtCseUmQFO6d1K9_22multiversx_sc_scenario3api7impl_vh12vm_hooks_api10VMHooksApiNtNtB3e_9debug_api15DebugApiBackendEEuRINtNtNtNtB1n_7managed7wrapped15managed_address14ManagedAddressB39_EuE13proxy_methodsCskEhliFuVTlV_13delegate_test
FNDA:0,_RNvXININtCsdRzYvL09OST_14liquid_staking16delegation_proxy0ppppENtB5_19DelegationMockProxyINtNtNtNtCs4WmCETBkTZ5_13multiversx_sc5types11interaction8tx_proxy12TxProxyTraitppppE13proxy_methodsB7_
FNDA:0,_RNvMs_NtCsdRzYvL09OST_14liquid_staking16delegation_proxyINtB4_26DelegationMockProxyMethodsppupE4initB6_
FNDA:0,_RNvMs0_NtCsdRzYvL09OST_14liquid_staking16delegation_proxyINtB5_26DelegationMockProxyMethodsppppE12deposit_egldB7_
FNDA:0,_RNvMs0_NtCsdRzYvL09OST_14liquid_staking16delegation_proxyINtB5_26DelegationMockProxyMethodsppppE8delegateB7_
FNDA:0,_RINvMs0_NtCsdRzYvL09OST_14liquid_staking16delegation_proxyINtB6_26DelegationMockProxyMethodsppppE10undelegatepEB8_
FNDA:0,_RNvMs0_NtCsdRzYvL09OST_14liquid_staking16delegation_proxyINtB5_26DelegationMockProxyMethodsppppE8withdrawB7_
FNDA:0,_RNvMs0_NtCsdRzYvL09OST_14liquid_staking16delegation_proxyINtB5_26DelegationMockProxyMethodsppppE13claim_rewardsB7_
FNDA:2,_RINvMs0_NtCs2WGRDwQOHLQ_14liquid_staking16delegation_proxyINtB6_26DelegationMockProxyMethodsINtNtNtNtNtCs4WmCETBkTZ5_13multiversx_sc5types11interaction7tx_exec9tx_env_sc7TxScEnvINtNtNtNtCseUmQFO6d1K9_22multiversx_sc_scenario3api7impl_vh12vm_hooks_api10VMHooksApiNtNtB2U_9debug_api15DebugApiBackendEEuRINtNtNtNtB1B_7managed7wrapped15managed_address14ManagedAddressB2P_EuE10undelegateRINtNtB4U_8big_uint7BigUintB2P_EECsaR2MVHtCDM0_4test
FNDA:5,_RNvMs0_NtCs2WGRDwQOHLQ_14liquid_staking16delegation_proxyINtB5_26DelegationMockProxyMethodsINtNtNtNtNtCs4WmCETBkTZ5_13multiversx_sc5types11interaction7tx_exec9tx_env_sc7TxScEnvINtNtNtNtCseUmQFO6d1K9_22multiversx_sc_scenario3api7impl_vh12vm_hooks_api10VMHooksApiNtNtB2T_9debug_api15DebugApiBackendEEuRINtNtNtNtB1A_7managed7wrapped15managed_address14ManagedAddressB2O_EuE13claim_rewardsCsaR2MVHtCDM0_4test
FNDA:19,_RNvMs0_NtCs2WGRDwQOHLQ_14liquid_staking16delegation_proxyINtB5_26DelegationMockProxyMethodsINtNtNtNtNtCs4WmCETBkTZ5_13multiversx_sc5types11interaction7tx_exec9tx_env_sc7TxScEnvINtNtNtNtCseUmQFO6d1K9_22multiversx_sc_scenario3api7impl_vh12vm_hooks_api10VMHooksApiNtNtB2T_9debug_api15DebugApiBackendEEuRINtNtNtNtB1A_7managed7wrapped15managed_address14ManagedAddressB2O_EuE8delegateCsaR2MVHtCDM0_4test
FNDA:2,_RNvMs0_NtCs2WGRDwQOHLQ_14liquid_staking16delegation_proxyINtB5_26DelegationMockProxyMethodsINtNtNtNtNtCs4WmCETBkTZ5_13multiversx_sc5types11interaction7tx_exec9tx_env_sc7TxScEnvINtNtNtNtCseUmQFO6d1K9_22multiversx_sc_scenario3api7impl_vh12vm_hooks_api10VMHooksApiNtNtB2T_9debug_api15DebugApiBackendEEuRINtNtNtNtB1A_7managed7wrapped15managed_address14ManagedAddressB2O_EuE8withdrawCsaR2MVHtCDM0_4test
FNDA:28,_RNvXNtCs2WGRDwQOHLQ_14liquid_staking16delegation_proxyNtB2_19DelegationMockProxyINtNtNtNtCs4WmCETBkTZ5_13multiversx_sc5types11interaction8tx_proxy12TxProxyTraitINtNtNtB1l_7tx_exec9tx_env_sc7TxScEnvINtNtNtNtCseUmQFO6d1K9_22multiversx_sc_scenario3api7impl_vh12vm_hooks_api10VMHooksApiNtNtB3e_9debug_api15DebugApiBackendEEuRINtNtNtNtB1n_7managed7wrapped15managed_address14ManagedAddressB39_EuE13proxy_methodsCsaR2MVHtCDM0_4test
FNDA:0,_RINvMs0_NtCs2WGRDwQOHLQ_14liquid_staking16delegation_proxyINtB6_26DelegationMockProxyMethodsINtNtNtNtNtCs4WmCETBkTZ5_13multiversx_sc5types11interaction7tx_exec9tx_env_sc7TxScEnvINtNtNtNtCseUmQFO6d1K9_22multiversx_sc_scenario3api7impl_vh12vm_hooks_api10VMHooksApiNtNtB2U_9debug_api15DebugApiBackendEEuRINtNtNtNtB1B_7managed7wrapped15managed_address14ManagedAddressB2P_EuE10undelegateRINtNtB4U_8big_uint7BigUintB2P_EECsVH6ELXPoQD_15unDelegate_test
FNDA:0,_RNvMs0_NtCs2WGRDwQOHLQ_14liquid_staking16delegation_proxyINtB5_26DelegationMockProxyMethodsINtNtNtNtNtCs4WmCETBkTZ5_13multiversx_sc5types11interaction7tx_exec9tx_env_sc7TxScEnvINtNtNtNtCseUmQFO6d1K9_22multiversx_sc_scenario3api7impl_vh12vm_hooks_api10VMHooksApiNtNtB2T_9debug_api15DebugApiBackendEEuRINtNtNtNtB1A_7managed7wrapped15managed_address14ManagedAddressB2O_EuE13claim_rewardsCsVH6ELXPoQD_15unDelegate_test
FNDA:5,_RNvMs0_NtCs2WGRDwQOHLQ_14liquid_staking16delegation_proxyINtB5_26DelegationMockProxyMethodsINtNtNtNtNtCs4WmCETBkTZ5_13multiversx_sc5types11interaction7tx_exec9tx_env_sc7TxScEnvINtNtNtNtCseUmQFO6d1K9_22multiversx_sc_scenario3api7impl_vh12vm_hooks_api10VMHooksApiNtNtB2T_9debug_api15DebugApiBackendEEuRINtNtNtNtB1A_7managed7wrapped15managed_address14ManagedAddressB2O_EuE8delegateCsVH6ELXPoQD_15unDelegate_test
FNDA:0,_RNvMs0_NtCs2WGRDwQOHLQ_14liquid_staking16delegation_proxyINtB5_26DelegationMockProxyMethodsINtNtNtNtNtCs4WmCETBkTZ5_13multiversx_sc5types11interaction7tx_exec9tx_env_sc7TxScEnvINtNtNtNtCseUmQFO6d1K9_22multiversx_sc_scenario3api7impl_vh12vm_hooks_api10VMHooksApiNtNtB2T_9debug_api15DebugApiBackendEEuRINtNtNtNtB1A_7managed7wrapped15managed_address14ManagedAddressB2O_EuE8withdrawCsVH6ELXPoQD_15unDelegate_test
FNDA:5,_RNvXNtCs2WGRDwQOHLQ_14liquid_staking16delegation_proxyNtB2_19DelegationMockProxyINtNtNtNtCs4WmCETBkTZ5_13multiversx_sc5types11interaction8tx_proxy12TxProxyTraitINtNtNtB1l_7tx_exec9tx_env_sc7TxScEnvINtNtNtNtCseUmQFO6d1K9_22multiversx_sc_scenario3api7impl_vh12vm_hooks_api10VMHooksApiNtNtB3e_9debug_api15DebugApiBackendEEuRINtNtNtNtB1n_7managed7wrapped15managed_address14ManagedAddressB39_EuE13proxy_methodsCsVH6ELXPoQD_15unDelegate_test
FNDA:5,_RINvMs0_NtCs2WGRDwQOHLQ_14liquid_staking16delegation_proxyINtB6_26DelegationMockProxyMethodsINtNtNtNtNtCs4WmCETBkTZ5_13multiversx_sc5types11interaction7tx_exec9tx_env_sc7TxScEnvINtNtNtNtCseUmQFO6d1K9_22multiversx_sc_scenario3api7impl_vh12vm_hooks_api10VMHooksApiNtNtB2U_9debug_api15DebugApiBackendEEuRINtNtNtNtB1B_7managed7wrapped15managed_address14ManagedAddressB2P_EuE10undelegateRINtNtB4U_8big_uint7BigUintB2P_EECshHwHQpnfuGH_11unbond_test
FNDA:0,_RNvMs0_NtCs2WGRDwQOHLQ_14liquid_staking16delegation_proxyINtB5_26DelegationMockProxyMethodsINtNtNtNtNtCs4WmCETBkTZ5_13multiversx_sc5types11interaction7tx_exec9tx_env_sc7TxScEnvINtNtNtNtCseUmQFO6d1K9_22multiversx_sc_scenario3api7impl_vh12vm_hooks_api10VMHooksApiNtNtB2T_9debug_api15DebugApiBackendEEuRINtNtNtNtB1A_7managed7wrapped15managed_address14ManagedAddressB2O_EuE13claim_rewardsCshHwHQpnfuGH_11unbond_test
FNDA:5,_RNvMs0_NtCs2WGRDwQOHLQ_14liquid_staking16delegation_proxyINtB5_26DelegationMockProxyMethodsINtNtNtNtNtCs4WmCETBkTZ5_13multiversx_sc5types11interaction7tx_exec9tx_env_sc7TxScEnvINtNtNtNtCseUmQFO6d1K9_22multiversx_sc_scenario3api7impl_vh12vm_hooks_api10VMHooksApiNtNtB2T_9debug_api15DebugApiBackendEEuRINtNtNtNtB1A_7managed7wrapped15managed_address14ManagedAddressB2O_EuE8delegateCshHwHQpnfuGH_11unbond_test
FNDA:4,_RNvMs0_NtCs2WGRDwQOHLQ_14liquid_staking16delegation_proxyINtB5_26DelegationMockProxyMethodsINtNtNtNtNtCs4WmCETBkTZ5_13multiversx_sc5types11interaction7tx_exec9tx_env_sc7TxScEnvINtNtNtNtCseUmQFO6d1K9_22multiversx_sc_scenario3api7impl_vh12vm_hooks_api10VMHooksApiNtNtB2T_9debug_api15DebugApiBackendEEuRINtNtNtNtB1A_7managed7wrapped15managed_address14ManagedAddressB2O_EuE8withdrawCshHwHQpnfuGH_11unbond_test
FNDA:14,_RNvXNtCs2WGRDwQOHLQ_14liquid_staking16delegation_proxyNtB2_19DelegationMockProxyINtNtNtNtCs4WmCETBkTZ5_13multiversx_sc5types11interaction8tx_proxy12TxProxyTraitINtNtNtB1l_7tx_exec9tx_env_sc7TxScEnvINtNtNtNtCseUmQFO6d1K9_22multiversx_sc_scenario3api7impl_vh12vm_hooks_api10VMHooksApiNtNtB3e_9debug_api15DebugApiBackendEEuRINtNtNtNtB1n_7managed7wrapped15managed_address14ManagedAddressB39_EuE13proxy_methodsCshHwHQpnfuGH_11unbond_test
FNF:7
FNH:5
DA:23,51
DA:24,51
DA:25,51
DA:46,0
DA:47,0
DA:48,0
DA:49,0
DA:50,0
DA:51,0
DA:52,0
DA:53,0
DA:65,0
DA:66,0
DA:67,0
DA:68,0
DA:69,0
DA:70,0
DA:71,0
DA:73,33
DA:74,33
DA:75,33
DA:76,33
DA:77,33
DA:78,33
DA:79,33
DA:81,7
DA:82,7
DA:83,7
DA:84,7
DA:85,7
DA:86,7
DA:87,7
DA:88,7
DA:89,7
DA:90,7
DA:91,7
DA:92,7
DA:94,6
DA:95,6
DA:96,6
DA:97,6
DA:98,6
DA:99,6
DA:100,6
DA:101,6
DA:103,5
DA:104,5
DA:105,5
DA:106,5
DA:107,5
DA:108,5
DA:109,5
DA:110,5
BRF:0
BRH:0
LF:53
LH:38
end_of_record
SF:/Users/mihaieremia/GitHub/rs-egld-liquid-staking/liquid-staking/src/events.rs
FN:19,_RINvXse_NtCs2WGRDwQOHLQ_14liquid_staking6eventsINtB6_20RemoveLiquidityEventINtNtNtNtCseUmQFO6d1K9_22multiversx_sc_scenario3api7impl_vh12vm_hooks_api10VMHooksApiNtNtB1g_9debug_api15DebugApiBackendEENtNtNtCsfDk2A4Sq81E_19multiversx_sc_codec6single6top_en9TopEncode24top_encode_or_handle_errQINtNtNtNtNtCs4WmCETBkTZ5_13multiversx_sc5types7managed5basic14managed_buffer13ManagedBufferB1b_EINtNtNtNtB4O_13contract_base8wrappers10serializer21ExitCodecErrorHandlerB1b_EECskEhliFuVTlV_13delegate_test
FN:6,_RINvXsi_NtCs2WGRDwQOHLQ_14liquid_staking6eventsINtB6_17AddLiquidityEventINtNtNtNtCseUmQFO6d1K9_22multiversx_sc_scenario3api7impl_vh12vm_hooks_api10VMHooksApiNtNtB1d_9debug_api15DebugApiBackendEENtNtNtCsfDk2A4Sq81E_19multiversx_sc_codec6single6top_en9TopEncode24top_encode_or_handle_errQINtNtNtNtNtCs4WmCETBkTZ5_13multiversx_sc5types7managed5basic14managed_buffer13ManagedBufferB18_EINtNtNtNtB4L_13contract_base8wrappers10serializer21ExitCodecErrorHandlerB18_EECskEhliFuVTlV_13delegate_test
FN:34,_RNvXNtCs2WGRDwQOHLQ_14liquid_staking6eventsINtB4_11ContractObjINtNtNtNtCseUmQFO6d1K9_22multiversx_sc_scenario3api7impl_vh12vm_hooks_api10VMHooksApiNtNtB13_9debug_api15DebugApiBackendEENtB2_12EventsModule19add_liquidity_eventCskEhliFuVTlV_13delegate_test
FN:34,_RNvXNtCs2WGRDwQOHLQ_14liquid_staking6eventsINtB4_11ContractObjINtNtNtNtCseUmQFO6d1K9_22multiversx_sc_scenario3api7impl_vh12vm_hooks_api10VMHooksApiNtNtB13_9debug_api15DebugApiBackendEENtB2_12EventsModule22remove_liquidity_eventCskEhliFuVTlV_13delegate_test
FN:34,_RNvXNtCs2WGRDwQOHLQ_14liquid_staking6eventsINtB4_11ContractObjINtNtNtNtCseUmQFO6d1K9_22multiversx_sc_scenario3api7impl_vh12vm_hooks_api10VMHooksApiNtNtB13_9debug_api15DebugApiBackendEENtB2_12EventsModule24emit_claim_rewards_eventCskEhliFuVTlV_13delegate_test
FN:44,_RNvYINtCs2WGRDwQOHLQ_14liquid_staking11ContractObjINtNtNtNtCseUmQFO6d1K9_22multiversx_sc_scenario3api7impl_vh12vm_hooks_api10VMHooksApiNtNtBR_9debug_api15DebugApiBackendEENtNtB5_6events12EventsModule24emit_add_liquidity_eventCskEhliFuVTlV_13delegate_test
FN:69,_RNvYINtCs2WGRDwQOHLQ_14liquid_staking11ContractObjINtNtNtNtCseUmQFO6d1K9_22multiversx_sc_scenario3api7impl_vh12vm_hooks_api10VMHooksApiNtNtBR_9debug_api15DebugApiBackendEENtNtB5_6events12EventsModule27emit_remove_liquidity_eventCskEhliFuVTlV_13delegate_test
FN:34,_RNvYINtCs2WGRDwQOHLQ_14liquid_staking11ContractObjINtNtNtNtCseUmQFO6d1K9_22multiversx_sc_scenario3api7impl_vh12vm_hooks_api10VMHooksApiNtNtBR_9debug_api15DebugApiBackendEENtNtB5_6events16EndpointWrappers17callback_selectorCskEhliFuVTlV_13delegate_test
FN:34,_RNvYINtCs2WGRDwQOHLQ_14liquid_staking11ContractObjINtNtNtNtCseUmQFO6d1K9_22multiversx_sc_scenario3api7impl_vh12vm_hooks_api10VMHooksApiNtNtBR_9debug_api15DebugApiBackendEENtNtB5_6events16EndpointWrappers4callCskEhliFuVTlV_13delegate_test
FN:34,_RNvYINtCs2WGRDwQOHLQ_14liquid_staking11ContractObjINtNtNtNtCseUmQFO6d1K9_22multiversx_sc_scenario3api7impl_vh12vm_hooks_api10VMHooksApiNtNtBR_9debug_api15DebugApiBackendEENtNtB5_6events16EndpointWrappers8callbackCskEhliFuVTlV_13delegate_test
FN:6,_RNvXININtCsdRzYvL09OST_14liquid_staking6eventssh_0pEINtB5_17AddLiquidityEventpENtNtNtCs4WmCETBkTZ5_13multiversx_sc3abi8type_abi7TypeAbi9type_nameB7_
FN:6,_RINvXININtCsdRzYvL09OST_14liquid_staking6eventssh_0pEINtB6_17AddLiquidityEventpENtNtNtCs4WmCETBkTZ5_13multiversx_sc3abi8type_abi7TypeAbi25provide_type_descriptionspEB8_
FN:6,_RINvXININtCsdRzYvL09OST_14liquid_staking6eventssi_0pEINtB6_17AddLiquidityEventpENtNtNtCsfDk2A4Sq81E_19multiversx_sc_codec6single6top_en9TopEncode24top_encode_or_handle_errppEB8_
FN:19,_RNvXININtCsdRzYvL09OST_14liquid_staking6eventssd_0pEINtB5_20RemoveLiquidityEventpENtNtNtCs4WmCETBkTZ5_13multiversx_sc3abi8type_abi7TypeAbi9type_nameB7_
FN:19,_RINvXININtCsdRzYvL09OST_14liquid_staking6eventssd_0pEINtB6_20RemoveLiquidityEventpENtNtNtCs4WmCETBkTZ5_13multiversx_sc3abi8type_abi7TypeAbi25provide_type_descriptionspEB8_
FN:19,_RINvXININtCsdRzYvL09OST_14liquid_staking6eventsse_0pEINtB6_20RemoveLiquidityEventpENtNtNtCsfDk2A4Sq81E_19multiversx_sc_codec6single6top_en9TopEncode24top_encode_or_handle_errppEB8_
FN:44,_RNvYpNtNtCsdRzYvL09OST_14liquid_staking6events12EventsModule24emit_add_liquidity_eventB7_
FN:69,_RNvYpNtNtCsdRzYvL09OST_14liquid_staking6events12EventsModule27emit_remove_liquidity_eventB7_
FN:34,_RNvXININtCsdRzYvL09OST_14liquid_staking6events0pEpNtB5_12EventsModule19add_liquidity_eventB7_
FN:34,_RNvXININtCsdRzYvL09OST_14liquid_staking6events0pEpNtB5_12EventsModule22remove_liquidity_eventB7_
FN:34,_RNvXININtCsdRzYvL09OST_14liquid_staking6events0pEpNtB5_12EventsModule24emit_claim_rewards_eventB7_
FN:34,_RNvYpNtNtCsdRzYvL09OST_14liquid_staking6events16EndpointWrappers4callB7_
FN:34,_RNvYpNtNtCsdRzYvL09OST_14liquid_staking6events16EndpointWrappers17callback_selectorB7_
FN:34,_RNvYpNtNtCsdRzYvL09OST_14liquid_staking6events16EndpointWrappers8callbackB7_
FN:34,_RNvXs1_NtCsdRzYvL09OST_14liquid_staking6eventsNtB5_11AbiProviderNtNtNtCs4WmCETBkTZ5_13multiversx_sc13contract_base21contract_abi_provider19ContractAbiProvider3abi
FN:34,_RNvXININtCsdRzYvL09OST_14liquid_staking6eventss9_0pEINtB5_11ContractObjpENtNtNtCs4WmCETBkTZ5_13multiversx_sc13contract_base17callable_contract16CallableContract4callB7_
FN:34,_RINvNtCsdRzYvL09OST_14liquid_staking6events12contract_objpEB4_
FN:34,_RINvXsa_NtCsdRzYvL09OST_14liquid_staking6eventsNtB6_15ContractBuilderNtNtNtCs4WmCETBkTZ5_13multiversx_sc13contract_base17callable_contract23CallableContractBuilder16new_contract_objpEB8_
FN:34,_RNvXNtCs2WGRDwQOHLQ_14liquid_staking6eventsINtB4_11ContractObjINtNtNtNtCseUmQFO6d1K9_22multiversx_sc_scenario3api7impl_vh12vm_hooks_api10VMHooksApiNtNtB13_9debug_api15DebugApiBackendEENtB2_12EventsModule19add_liquidity_eventCsaR2MVHtCDM0_4test
FN:34,_RNvXNtCs2WGRDwQOHLQ_14liquid_staking6eventsINtB4_11ContractObjINtNtNtNtCseUmQFO6d1K9_22multiversx_sc_scenario3api7impl_vh12vm_hooks_api10VMHooksApiNtNtB13_9debug_api15DebugApiBackendEENtB2_12EventsModule22remove_liquidity_eventCsaR2MVHtCDM0_4test
FN:34,_RNvXNtCs2WGRDwQOHLQ_14liquid_staking6eventsINtB4_11ContractObjINtNtNtNtCseUmQFO6d1K9_22multiversx_sc_scenario3api7impl_vh12vm_hooks_api10VMHooksApiNtNtB13_9debug_api15DebugApiBackendEENtB2_12EventsModule24emit_claim_rewards_eventCsaR2MVHtCDM0_4test
FN:44,_RNvYINtCs2WGRDwQOHLQ_14liquid_staking11ContractObjINtNtNtNtCseUmQFO6d1K9_22multiversx_sc_scenario3api7impl_vh12vm_hooks_api10VMHooksApiNtNtBR_9debug_api15DebugApiBackendEENtNtB5_6events12EventsModule24emit_add_liquidity_eventCsaR2MVHtCDM0_4test
FN:69,_RNvYINtCs2WGRDwQOHLQ_14liquid_staking11ContractObjINtNtNtNtCseUmQFO6d1K9_22multiversx_sc_scenario3api7impl_vh12vm_hooks_api10VMHooksApiNtNtBR_9debug_api15DebugApiBackendEENtNtB5_6events12EventsModule27emit_remove_liquidity_eventCsaR2MVHtCDM0_4test
FN:34,_RNvYINtCs2WGRDwQOHLQ_14liquid_staking11ContractObjINtNtNtNtCseUmQFO6d1K9_22multiversx_sc_scenario3api7impl_vh12vm_hooks_api10VMHooksApiNtNtBR_9debug_api15DebugApiBackendEENtNtB5_6events16EndpointWrappers17callback_selectorCsaR2MVHtCDM0_4test
FN:34,_RNvYINtCs2WGRDwQOHLQ_14liquid_staking11ContractObjINtNtNtNtCseUmQFO6d1K9_22multiversx_sc_scenario3api7impl_vh12vm_hooks_api10VMHooksApiNtNtBR_9debug_api15DebugApiBackendEENtNtB5_6events16EndpointWrappers4callCsaR2MVHtCDM0_4test
FN:34,_RNvYINtCs2WGRDwQOHLQ_14liquid_staking11ContractObjINtNtNtNtCseUmQFO6d1K9_22multiversx_sc_scenario3api7impl_vh12vm_hooks_api10VMHooksApiNtNtBR_9debug_api15DebugApiBackendEENtNtB5_6events16EndpointWrappers8callbackCsaR2MVHtCDM0_4test
FN:19,_RINvXse_NtCs2WGRDwQOHLQ_14liquid_staking6eventsINtB6_20RemoveLiquidityEventINtNtNtNtCseUmQFO6d1K9_22multiversx_sc_scenario3api7impl_vh12vm_hooks_api10VMHooksApiNtNtB1g_9debug_api15DebugApiBackendEENtNtNtCsfDk2A4Sq81E_19multiversx_sc_codec6single6top_en9TopEncode24top_encode_or_handle_errQINtNtNtNtNtCs4WmCETBkTZ5_13multiversx_sc5types7managed5basic14managed_buffer13ManagedBufferB1b_EINtNtNtNtB4O_13contract_base8wrappers10serializer21ExitCodecErrorHandlerB1b_EECsaR2MVHtCDM0_4test
FN:6,_RINvXsi_NtCs2WGRDwQOHLQ_14liquid_staking6eventsINtB6_17AddLiquidityEventINtNtNtNtCseUmQFO6d1K9_22multiversx_sc_scenario3api7impl_vh12vm_hooks_api10VMHooksApiNtNtB1d_9debug_api15DebugApiBackendEENtNtNtCsfDk2A4Sq81E_19multiversx_sc_codec6single6top_en9TopEncode24top_encode_or_handle_errQINtNtNtNtNtCs4WmCETBkTZ5_13multiversx_sc5types7managed5basic14managed_buffer13ManagedBufferB18_EINtNtNtNtB4L_13contract_base8wrappers10serializer21ExitCodecErrorHandlerB18_EECsaR2MVHtCDM0_4test
FN:34,_RNvXNtCs2WGRDwQOHLQ_14liquid_staking6eventsINtB4_11ContractObjINtNtNtNtCseUmQFO6d1K9_22multiversx_sc_scenario3api7impl_vh12vm_hooks_api10VMHooksApiNtNtB13_9debug_api15DebugApiBackendEENtB2_12EventsModule19add_liquidity_eventCsVH6ELXPoQD_15unDelegate_test
FN:34,_RNvXNtCs2WGRDwQOHLQ_14liquid_staking6eventsINtB4_11ContractObjINtNtNtNtCseUmQFO6d1K9_22multiversx_sc_scenario3api7impl_vh12vm_hooks_api10VMHooksApiNtNtB13_9debug_api15DebugApiBackendEENtB2_12EventsModule22remove_liquidity_eventCsVH6ELXPoQD_15unDelegate_test
FN:34,_RNvXNtCs2WGRDwQOHLQ_14liquid_staking6eventsINtB4_11ContractObjINtNtNtNtCseUmQFO6d1K9_22multiversx_sc_scenario3api7impl_vh12vm_hooks_api10VMHooksApiNtNtB13_9debug_api15DebugApiBackendEENtB2_12EventsModule24emit_claim_rewards_eventCsVH6ELXPoQD_15unDelegate_test
FN:44,_RNvYINtCs2WGRDwQOHLQ_14liquid_staking11ContractObjINtNtNtNtCseUmQFO6d1K9_22multiversx_sc_scenario3api7impl_vh12vm_hooks_api10VMHooksApiNtNtBR_9debug_api15DebugApiBackendEENtNtB5_6events12EventsModule24emit_add_liquidity_eventCsVH6ELXPoQD_15unDelegate_test
FN:69,_RNvYINtCs2WGRDwQOHLQ_14liquid_staking11ContractObjINtNtNtNtCseUmQFO6d1K9_22multiversx_sc_scenario3api7impl_vh12vm_hooks_api10VMHooksApiNtNtBR_9debug_api15DebugApiBackendEENtNtB5_6events12EventsModule27emit_remove_liquidity_eventCsVH6ELXPoQD_15unDelegate_test
FN:34,_RNvYINtCs2WGRDwQOHLQ_14liquid_staking11ContractObjINtNtNtNtCseUmQFO6d1K9_22multiversx_sc_scenario3api7impl_vh12vm_hooks_api10VMHooksApiNtNtBR_9debug_api15DebugApiBackendEENtNtB5_6events16EndpointWrappers17callback_selectorCsVH6ELXPoQD_15unDelegate_test
FN:34,_RNvYINtCs2WGRDwQOHLQ_14liquid_staking11ContractObjINtNtNtNtCseUmQFO6d1K9_22multiversx_sc_scenario3api7impl_vh12vm_hooks_api10VMHooksApiNtNtBR_9debug_api15DebugApiBackendEENtNtB5_6events16EndpointWrappers4callCsVH6ELXPoQD_15unDelegate_test
FN:34,_RNvYINtCs2WGRDwQOHLQ_14liquid_staking11ContractObjINtNtNtNtCseUmQFO6d1K9_22multiversx_sc_scenario3api7impl_vh12vm_hooks_api10VMHooksApiNtNtBR_9debug_api15DebugApiBackendEENtNtB5_6events16EndpointWrappers8callbackCsVH6ELXPoQD_15unDelegate_test
FN:19,_RINvXse_NtCs2WGRDwQOHLQ_14liquid_staking6eventsINtB6_20RemoveLiquidityEventINtNtNtNtCseUmQFO6d1K9_22multiversx_sc_scenario3api7impl_vh12vm_hooks_api10VMHooksApiNtNtB1g_9debug_api15DebugApiBackendEENtNtNtCsfDk2A4Sq81E_19multiversx_sc_codec6single6top_en9TopEncode24top_encode_or_handle_errQINtNtNtNtNtCs4WmCETBkTZ5_13multiversx_sc5types7managed5basic14managed_buffer13ManagedBufferB1b_EINtNtNtNtB4O_13contract_base8wrappers10serializer21ExitCodecErrorHandlerB1b_EECsVH6ELXPoQD_15unDelegate_test
FN:6,_RINvXsi_NtCs2WGRDwQOHLQ_14liquid_staking6eventsINtB6_17AddLiquidityEventINtNtNtNtCseUmQFO6d1K9_22multiversx_sc_scenario3api7impl_vh12vm_hooks_api10VMHooksApiNtNtB1d_9debug_api15DebugApiBackendEENtNtNtCsfDk2A4Sq81E_19multiversx_sc_codec6single6top_en9TopEncode24top_encode_or_handle_errQINtNtNtNtNtCs4WmCETBkTZ5_13multiversx_sc5types7managed5basic14managed_buffer13ManagedBufferB18_EINtNtNtNtB4L_13contract_base8wrappers10serializer21ExitCodecErrorHandlerB18_EECsVH6ELXPoQD_15unDelegate_test
FN:19,_RINvXse_NtCs2WGRDwQOHLQ_14liquid_staking6eventsINtB6_20RemoveLiquidityEventINtNtNtNtCseUmQFO6d1K9_22multiversx_sc_scenario3api7impl_vh12vm_hooks_api10VMHooksApiNtNtB1g_9debug_api15DebugApiBackendEENtNtNtCsfDk2A4Sq81E_19multiversx_sc_codec6single6top_en9TopEncode24top_encode_or_handle_errQINtNtNtNtNtCs4WmCETBkTZ5_13multiversx_sc5types7managed5basic14managed_buffer13ManagedBufferB1b_EINtNtNtNtB4O_13contract_base8wrappers10serializer21ExitCodecErrorHandlerB1b_EECshHwHQpnfuGH_11unbond_test
FN:6,_RINvXsi_NtCs2WGRDwQOHLQ_14liquid_staking6eventsINtB6_17AddLiquidityEventINtNtNtNtCseUmQFO6d1K9_22multiversx_sc_scenario3api7impl_vh12vm_hooks_api10VMHooksApiNtNtB1d_9debug_api15DebugApiBackendEENtNtNtCsfDk2A4Sq81E_19multiversx_sc_codec6single6top_en9TopEncode24top_encode_or_handle_errQINtNtNtNtNtCs4WmCETBkTZ5_13multiversx_sc5types7managed5basic14managed_buffer13ManagedBufferB18_EINtNtNtNtB4L_13contract_base8wrappers10serializer21ExitCodecErrorHandlerB18_EECshHwHQpnfuGH_11unbond_test
FN:34,_RNvXNtCs2WGRDwQOHLQ_14liquid_staking6eventsINtB4_11ContractObjINtNtNtNtCseUmQFO6d1K9_22multiversx_sc_scenario3api7impl_vh12vm_hooks_api10VMHooksApiNtNtB13_9debug_api15DebugApiBackendEENtB2_12EventsModule19add_liquidity_eventCshHwHQpnfuGH_11unbond_test
FN:34,_RNvXNtCs2WGRDwQOHLQ_14liquid_staking6eventsINtB4_11ContractObjINtNtNtNtCseUmQFO6d1K9_22multiversx_sc_scenario3api7impl_vh12vm_hooks_api10VMHooksApiNtNtB13_9debug_api15DebugApiBackendEENtB2_12EventsModule22remove_liquidity_eventCshHwHQpnfuGH_11unbond_test
FN:34,_RNvXNtCs2WGRDwQOHLQ_14liquid_staking6eventsINtB4_11ContractObjINtNtNtNtCseUmQFO6d1K9_22multiversx_sc_scenario3api7impl_vh12vm_hooks_api10VMHooksApiNtNtB13_9debug_api15DebugApiBackendEENtB2_12EventsModule24emit_claim_rewards_eventCshHwHQpnfuGH_11unbond_test
FN:44,_RNvYINtCs2WGRDwQOHLQ_14liquid_staking11ContractObjINtNtNtNtCseUmQFO6d1K9_22multiversx_sc_scenario3api7impl_vh12vm_hooks_api10VMHooksApiNtNtBR_9debug_api15DebugApiBackendEENtNtB5_6events12EventsModule24emit_add_liquidity_eventCshHwHQpnfuGH_11unbond_test
FN:69,_RNvYINtCs2WGRDwQOHLQ_14liquid_staking11ContractObjINtNtNtNtCseUmQFO6d1K9_22multiversx_sc_scenario3api7impl_vh12vm_hooks_api10VMHooksApiNtNtBR_9debug_api15DebugApiBackendEENtNtB5_6events12EventsModule27emit_remove_liquidity_eventCshHwHQpnfuGH_11unbond_test
FN:34,_RNvYINtCs2WGRDwQOHLQ_14liquid_staking11ContractObjINtNtNtNtCseUmQFO6d1K9_22multiversx_sc_scenario3api7impl_vh12vm_hooks_api10VMHooksApiNtNtBR_9debug_api15DebugApiBackendEENtNtB5_6events16EndpointWrappers17callback_selectorCshHwHQpnfuGH_11unbond_test
FN:34,_RNvYINtCs2WGRDwQOHLQ_14liquid_staking11ContractObjINtNtNtNtCseUmQFO6d1K9_22multiversx_sc_scenario3api7impl_vh12vm_hooks_api10VMHooksApiNtNtBR_9debug_api15DebugApiBackendEENtNtB5_6events16EndpointWrappers4callCshHwHQpnfuGH_11unbond_test
FN:34,_RNvYINtCs2WGRDwQOHLQ_14liquid_staking11ContractObjINtNtNtNtCseUmQFO6d1K9_22multiversx_sc_scenario3api7impl_vh12vm_hooks_api10VMHooksApiNtNtBR_9debug_api15DebugApiBackendEENtNtB5_6events16EndpointWrappers8callbackCshHwHQpnfuGH_11unbond_test
FNDA:4,_RINvXse_NtCs2WGRDwQOHLQ_14liquid_staking6eventsINtB6_20RemoveLiquidityEventINtNtNtNtCseUmQFO6d1K9_22multiversx_sc_scenario3api7impl_vh12vm_hooks_api10VMHooksApiNtNtB1g_9debug_api15DebugApiBackendEENtNtNtCsfDk2A4Sq81E_19multiversx_sc_codec6single6top_en9TopEncode24top_encode_or_handle_errQINtNtNtNtNtCs4WmCETBkTZ5_13multiversx_sc5types7managed5basic14managed_buffer13ManagedBufferB1b_EINtNtNtNtB4O_13contract_base8wrappers10serializer21ExitCodecErrorHandlerB1b_EECskEhliFuVTlV_13delegate_test
FNDA:12,_RINvXsi_NtCs2WGRDwQOHLQ_14liquid_staking6eventsINtB6_17AddLiquidityEventINtNtNtNtCseUmQFO6d1K9_22multiversx_sc_scenario3api7impl_vh12vm_hooks_api10VMHooksApiNtNtB1d_9debug_api15DebugApiBackendEENtNtNtCsfDk2A4Sq81E_19multiversx_sc_codec6single6top_en9TopEncode24top_encode_or_handle_errQINtNtNtNtNtCs4WmCETBkTZ5_13multiversx_sc5types7managed5basic14managed_buffer13ManagedBufferB18_EINtNtNtNtB4L_13contract_base8wrappers10serializer21ExitCodecErrorHandlerB18_EECskEhliFuVTlV_13delegate_test
FNDA:12,_RNvXNtCs2WGRDwQOHLQ_14liquid_staking6eventsINtB4_11ContractObjINtNtNtNtCseUmQFO6d1K9_22multiversx_sc_scenario3api7impl_vh12vm_hooks_api10VMHooksApiNtNtB13_9debug_api15DebugApiBackendEENtB2_12EventsModule19add_liquidity_eventCskEhliFuVTlV_13delegate_test
FNDA:4,_RNvXNtCs2WGRDwQOHLQ_14liquid_staking6eventsINtB4_11ContractObjINtNtNtNtCseUmQFO6d1K9_22multiversx_sc_scenario3api7impl_vh12vm_hooks_api10VMHooksApiNtNtB13_9debug_api15DebugApiBackendEENtB2_12EventsModule22remove_liquidity_eventCskEhliFuVTlV_13delegate_test
FNDA:0,_RNvXNtCs2WGRDwQOHLQ_14liquid_staking6eventsINtB4_11ContractObjINtNtNtNtCseUmQFO6d1K9_22multiversx_sc_scenario3api7impl_vh12vm_hooks_api10VMHooksApiNtNtB13_9debug_api15DebugApiBackendEENtB2_12EventsModule24emit_claim_rewards_eventCskEhliFuVTlV_13delegate_test
FNDA:12,_RNvYINtCs2WGRDwQOHLQ_14liquid_staking11ContractObjINtNtNtNtCseUmQFO6d1K9_22multiversx_sc_scenario3api7impl_vh12vm_hooks_api10VMHooksApiNtNtBR_9debug_api15DebugApiBackendEENtNtB5_6events12EventsModule24emit_add_liquidity_eventCskEhliFuVTlV_13delegate_test
FNDA:4,_RNvYINtCs2WGRDwQOHLQ_14liquid_staking11ContractObjINtNtNtNtCseUmQFO6d1K9_22multiversx_sc_scenario3api7impl_vh12vm_hooks_api10VMHooksApiNtNtBR_9debug_api15DebugApiBackendEENtNtB5_6events12EventsModule27emit_remove_liquidity_eventCskEhliFuVTlV_13delegate_test
FNDA:0,_RNvYINtCs2WGRDwQOHLQ_14liquid_staking11ContractObjINtNtNtNtCseUmQFO6d1K9_22multiversx_sc_scenario3api7impl_vh12vm_hooks_api10VMHooksApiNtNtBR_9debug_api15DebugApiBackendEENtNtB5_6events16EndpointWrappers17callback_selectorCskEhliFuVTlV_13delegate_test
FNDA:12,_RNvYINtCs2WGRDwQOHLQ_14liquid_staking11ContractObjINtNtNtNtCseUmQFO6d1K9_22multiversx_sc_scenario3api7impl_vh12vm_hooks_api10VMHooksApiNtNtBR_9debug_api15DebugApiBackendEENtNtB5_6events16EndpointWrappers4callCskEhliFuVTlV_13delegate_test
FNDA:0,_RNvYINtCs2WGRDwQOHLQ_14liquid_staking11ContractObjINtNtNtNtCseUmQFO6d1K9_22multiversx_sc_scenario3api7impl_vh12vm_hooks_api10VMHooksApiNtNtBR_9debug_api15DebugApiBackendEENtNtB5_6events16EndpointWrappers8callbackCskEhliFuVTlV_13delegate_test
FNDA:0,_RNvXININtCsdRzYvL09OST_14liquid_staking6eventssh_0pEINtB5_17AddLiquidityEventpENtNtNtCs4WmCETBkTZ5_13multiversx_sc3abi8type_abi7TypeAbi9type_nameB7_
FNDA:0,_RINvXININtCsdRzYvL09OST_14liquid_staking6eventssh_0pEINtB6_17AddLiquidityEventpENtNtNtCs4WmCETBkTZ5_13multiversx_sc3abi8type_abi7TypeAbi25provide_type_descriptionspEB8_
FNDA:0,_RINvXININtCsdRzYvL09OST_14liquid_staking6eventssi_0pEINtB6_17AddLiquidityEventpENtNtNtCsfDk2A4Sq81E_19multiversx_sc_codec6single6top_en9TopEncode24top_encode_or_handle_errppEB8_
FNDA:0,_RNvXININtCsdRzYvL09OST_14liquid_staking6eventssd_0pEINtB5_20RemoveLiquidityEventpENtNtNtCs4WmCETBkTZ5_13multiversx_sc3abi8type_abi7TypeAbi9type_nameB7_
FNDA:0,_RINvXININtCsdRzYvL09OST_14liquid_staking6eventssd_0pEINtB6_20RemoveLiquidityEventpENtNtNtCs4WmCETBkTZ5_13multiversx_sc3abi8type_abi7TypeAbi25provide_type_descriptionspEB8_
FNDA:0,_RINvXININtCsdRzYvL09OST_14liquid_staking6eventsse_0pEINtB6_20RemoveLiquidityEventpENtNtNtCsfDk2A4Sq81E_19multiversx_sc_codec6single6top_en9TopEncode24top_encode_or_handle_errppEB8_
FNDA:0,_RNvYpNtNtCsdRzYvL09OST_14liquid_staking6events12EventsModule24emit_add_liquidity_eventB7_
FNDA:0,_RNvYpNtNtCsdRzYvL09OST_14liquid_staking6events12EventsModule27emit_remove_liquidity_eventB7_
FNDA:0,_RNvXININtCsdRzYvL09OST_14liquid_staking6events0pEpNtB5_12EventsModule19add_liquidity_eventB7_
FNDA:0,_RNvXININtCsdRzYvL09OST_14liquid_staking6events0pEpNtB5_12EventsModule22remove_liquidity_eventB7_
FNDA:0,_RNvXININtCsdRzYvL09OST_14liquid_staking6events0pEpNtB5_12EventsModule24emit_claim_rewards_eventB7_
FNDA:0,_RNvYpNtNtCsdRzYvL09OST_14liquid_staking6events16EndpointWrappers4callB7_
FNDA:0,_RNvYpNtNtCsdRzYvL09OST_14liquid_staking6events16EndpointWrappers17callback_selectorB7_
FNDA:0,_RNvYpNtNtCsdRzYvL09OST_14liquid_staking6events16EndpointWrappers8callbackB7_
FNDA:0,_RNvXs1_NtCsdRzYvL09OST_14liquid_staking6eventsNtB5_11AbiProviderNtNtNtCs4WmCETBkTZ5_13multiversx_sc13contract_base21contract_abi_provider19ContractAbiProvider3abi
FNDA:0,_RNvXININtCsdRzYvL09OST_14liquid_staking6eventss9_0pEINtB5_11ContractObjpENtNtNtCs4WmCETBkTZ5_13multiversx_sc13contract_base17callable_contract16CallableContract4callB7_
FNDA:0,_RINvNtCsdRzYvL09OST_14liquid_staking6events12contract_objpEB4_
FNDA:0,_RINvXsa_NtCsdRzYvL09OST_14liquid_staking6eventsNtB6_15ContractBuilderNtNtNtCs4WmCETBkTZ5_13multiversx_sc13contract_base17callable_contract23CallableContractBuilder16new_contract_objpEB8_
FNDA:9,_RNvXNtCs2WGRDwQOHLQ_14liquid_staking6eventsINtB4_11ContractObjINtNtNtNtCseUmQFO6d1K9_22multiversx_sc_scenario3api7impl_vh12vm_hooks_api10VMHooksApiNtNtB13_9debug_api15DebugApiBackendEENtB2_12EventsModule19add_liquidity_eventCsaR2MVHtCDM0_4test
FNDA:7,_RNvXNtCs2WGRDwQOHLQ_14liquid_staking6eventsINtB4_11ContractObjINtNtNtNtCseUmQFO6d1K9_22multiversx_sc_scenario3api7impl_vh12vm_hooks_api10VMHooksApiNtNtB13_9debug_api15DebugApiBackendEENtB2_12EventsModule22remove_liquidity_eventCsaR2MVHtCDM0_4test
FNDA:5,_RNvXNtCs2WGRDwQOHLQ_14liquid_staking6eventsINtB4_11ContractObjINtNtNtNtCseUmQFO6d1K9_22multiversx_sc_scenario3api7impl_vh12vm_hooks_api10VMHooksApiNtNtB13_9debug_api15DebugApiBackendEENtB2_12EventsModule24emit_claim_rewards_eventCsaR2MVHtCDM0_4test
FNDA:9,_RNvYINtCs2WGRDwQOHLQ_14liquid_staking11ContractObjINtNtNtNtCseUmQFO6d1K9_22multiversx_sc_scenario3api7impl_vh12vm_hooks_api10VMHooksApiNtNtBR_9debug_api15DebugApiBackendEENtNtB5_6events12EventsModule24emit_add_liquidity_eventCsaR2MVHtCDM0_4test
FNDA:7,_RNvYINtCs2WGRDwQOHLQ_14liquid_staking11ContractObjINtNtNtNtCseUmQFO6d1K9_22multiversx_sc_scenario3api7impl_vh12vm_hooks_api10VMHooksApiNtNtBR_9debug_api15DebugApiBackendEENtNtB5_6events12EventsModule27emit_remove_liquidity_eventCsaR2MVHtCDM0_4test
FNDA:0,_RNvYINtCs2WGRDwQOHLQ_14liquid_staking11ContractObjINtNtNtNtCseUmQFO6d1K9_22multiversx_sc_scenario3api7impl_vh12vm_hooks_api10VMHooksApiNtNtBR_9debug_api15DebugApiBackendEENtNtB5_6events16EndpointWrappers17callback_selectorCsaR2MVHtCDM0_4test
FNDA:84,_RNvYINtCs2WGRDwQOHLQ_14liquid_staking11ContractObjINtNtNtNtCseUmQFO6d1K9_22multiversx_sc_scenario3api7impl_vh12vm_hooks_api10VMHooksApiNtNtBR_9debug_api15DebugApiBackendEENtNtB5_6events16EndpointWrappers4callCsaR2MVHtCDM0_4test
FNDA:0,_RNvYINtCs2WGRDwQOHLQ_14liquid_staking11ContractObjINtNtNtNtCseUmQFO6d1K9_22multiversx_sc_scenario3api7impl_vh12vm_hooks_api10VMHooksApiNtNtBR_9debug_api15DebugApiBackendEENtNtB5_6events16EndpointWrappers8callbackCsaR2MVHtCDM0_4test
FNDA:7,_RINvXse_NtCs2WGRDwQOHLQ_14liquid_staking6eventsINtB6_20RemoveLiquidityEventINtNtNtNtCseUmQFO6d1K9_22multiversx_sc_scenario3api7impl_vh12vm_hooks_api10VMHooksApiNtNtB1g_9debug_api15DebugApiBackendEENtNtNtCsfDk2A4Sq81E_19multiversx_sc_codec6single6top_en9TopEncode24top_encode_or_handle_errQINtNtNtNtNtCs4WmCETBkTZ5_13multiversx_sc5types7managed5basic14managed_buffer13ManagedBufferB1b_EINtNtNtNtB4O_13contract_base8wrappers10serializer21ExitCodecErrorHandlerB1b_EECsaR2MVHtCDM0_4test
FNDA:9,_RINvXsi_NtCs2WGRDwQOHLQ_14liquid_staking6eventsINtB6_17AddLiquidityEventINtNtNtNtCseUmQFO6d1K9_22multiversx_sc_scenario3api7impl_vh12vm_hooks_api10VMHooksApiNtNtB1d_9debug_api15DebugApiBackendEENtNtNtCsfDk2A4Sq81E_19multiversx_sc_codec6single6top_en9TopEncode24top_encode_or_handle_errQINtNtNtNtNtCs4WmCETBkTZ5_13multiversx_sc5types7managed5basic14managed_buffer13ManagedBufferB18_EINtNtNtNtB4L_13contract_base8wrappers10serializer21ExitCodecErrorHandlerB18_EECsaR2MVHtCDM0_4test
FNDA:7,_RNvXNtCs2WGRDwQOHLQ_14liquid_staking6eventsINtB4_11ContractObjINtNtNtNtCseUmQFO6d1K9_22multiversx_sc_scenario3api7impl_vh12vm_hooks_api10VMHooksApiNtNtB13_9debug_api15DebugApiBackendEENtB2_12EventsModule19add_liquidity_eventCsVH6ELXPoQD_15unDelegate_test
FNDA:5,_RNvXNtCs2WGRDwQOHLQ_14liquid_staking6eventsINtB4_11ContractObjINtNtNtNtCseUmQFO6d1K9_22multiversx_sc_scenario3api7impl_vh12vm_hooks_api10VMHooksApiNtNtB13_9debug_api15DebugApiBackendEENtB2_12EventsModule22remove_liquidity_eventCsVH6ELXPoQD_15unDelegate_test
FNDA:0,_RNvXNtCs2WGRDwQOHLQ_14liquid_staking6eventsINtB4_11ContractObjINtNtNtNtCseUmQFO6d1K9_22multiversx_sc_scenario3api7impl_vh12vm_hooks_api10VMHooksApiNtNtB13_9debug_api15DebugApiBackendEENtB2_12EventsModule24emit_claim_rewards_eventCsVH6ELXPoQD_15unDelegate_test
FNDA:7,_RNvYINtCs2WGRDwQOHLQ_14liquid_staking11ContractObjINtNtNtNtCseUmQFO6d1K9_22multiversx_sc_scenario3api7impl_vh12vm_hooks_api10VMHooksApiNtNtBR_9debug_api15DebugApiBackendEENtNtB5_6events12EventsModule24emit_add_liquidity_eventCsVH6ELXPoQD_15unDelegate_test
FNDA:5,_RNvYINtCs2WGRDwQOHLQ_14liquid_staking11ContractObjINtNtNtNtCseUmQFO6d1K9_22multiversx_sc_scenario3api7impl_vh12vm_hooks_api10VMHooksApiNtNtBR_9debug_api15DebugApiBackendEENtNtB5_6events12EventsModule27emit_remove_liquidity_eventCsVH6ELXPoQD_15unDelegate_test
FNDA:0,_RNvYINtCs2WGRDwQOHLQ_14liquid_staking11ContractObjINtNtNtNtCseUmQFO6d1K9_22multiversx_sc_scenario3api7impl_vh12vm_hooks_api10VMHooksApiNtNtBR_9debug_api15DebugApiBackendEENtNtB5_6events16EndpointWrappers17callback_selectorCsVH6ELXPoQD_15unDelegate_test
FNDA:15,_RNvYINtCs2WGRDwQOHLQ_14liquid_staking11ContractObjINtNtNtNtCseUmQFO6d1K9_22multiversx_sc_scenario3api7impl_vh12vm_hooks_api10VMHooksApiNtNtBR_9debug_api15DebugApiBackendEENtNtB5_6events16EndpointWrappers4callCsVH6ELXPoQD_15unDelegate_test
FNDA:0,_RNvYINtCs2WGRDwQOHLQ_14liquid_staking11ContractObjINtNtNtNtCseUmQFO6d1K9_22multiversx_sc_scenario3api7impl_vh12vm_hooks_api10VMHooksApiNtNtBR_9debug_api15DebugApiBackendEENtNtB5_6events16EndpointWrappers8callbackCsVH6ELXPoQD_15unDelegate_test
FNDA:5,_RINvXse_NtCs2WGRDwQOHLQ_14liquid_staking6eventsINtB6_20RemoveLiquidityEventINtNtNtNtCseUmQFO6d1K9_22multiversx_sc_scenario3api7impl_vh12vm_hooks_api10VMHooksApiNtNtB1g_9debug_api15DebugApiBackendEENtNtNtCsfDk2A4Sq81E_19multiversx_sc_codec6single6top_en9TopEncode24top_encode_or_handle_errQINtNtNtNtNtCs4WmCETBkTZ5_13multiversx_sc5types7managed5basic14managed_buffer13ManagedBufferB1b_EINtNtNtNtB4O_13contract_base8wrappers10serializer21ExitCodecErrorHandlerB1b_EECsVH6ELXPoQD_15unDelegate_test
FNDA:7,_RINvXsi_NtCs2WGRDwQOHLQ_14liquid_staking6eventsINtB6_17AddLiquidityEventINtNtNtNtCseUmQFO6d1K9_22multiversx_sc_scenario3api7impl_vh12vm_hooks_api10VMHooksApiNtNtB1d_9debug_api15DebugApiBackendEENtNtNtCsfDk2A4Sq81E_19multiversx_sc_codec6single6top_en9TopEncode24top_encode_or_handle_errQINtNtNtNtNtCs4WmCETBkTZ5_13multiversx_sc5types7managed5basic14managed_buffer13ManagedBufferB18_EINtNtNtNtB4L_13contract_base8wrappers10serializer21ExitCodecErrorHandlerB18_EECsVH6ELXPoQD_15unDelegate_test
FNDA:10,_RINvXse_NtCs2WGRDwQOHLQ_14liquid_staking6eventsINtB6_20RemoveLiquidityEventINtNtNtNtCseUmQFO6d1K9_22multiversx_sc_scenario3api7impl_vh12vm_hooks_api10VMHooksApiNtNtB1g_9debug_api15DebugApiBackendEENtNtNtCsfDk2A4Sq81E_19multiversx_sc_codec6single6top_en9TopEncode24top_encode_or_handle_errQINtNtNtNtNtCs4WmCETBkTZ5_13multiversx_sc5types7managed5basic14managed_buffer13ManagedBufferB1b_EINtNtNtNtB4O_13contract_base8wrappers10serializer21ExitCodecErrorHandlerB1b_EECshHwHQpnfuGH_11unbond_test
FNDA:5,_RINvXsi_NtCs2WGRDwQOHLQ_14liquid_staking6eventsINtB6_17AddLiquidityEventINtNtNtNtCseUmQFO6d1K9_22multiversx_sc_scenario3api7impl_vh12vm_hooks_api10VMHooksApiNtNtB1d_9debug_api15DebugApiBackendEENtNtNtCsfDk2A4Sq81E_19multiversx_sc_codec6single6top_en9TopEncode24top_encode_or_handle_errQINtNtNtNtNtCs4WmCETBkTZ5_13multiversx_sc5types7managed5basic14managed_buffer13ManagedBufferB18_EINtNtNtNtB4L_13contract_base8wrappers10serializer21ExitCodecErrorHandlerB18_EECshHwHQpnfuGH_11unbond_test
FNDA:5,_RNvXNtCs2WGRDwQOHLQ_14liquid_staking6eventsINtB4_11ContractObjINtNtNtNtCseUmQFO6d1K9_22multiversx_sc_scenario3api7impl_vh12vm_hooks_api10VMHooksApiNtNtB13_9debug_api15DebugApiBackendEENtB2_12EventsModule19add_liquidity_eventCshHwHQpnfuGH_11unbond_test
FNDA:10,_RNvXNtCs2WGRDwQOHLQ_14liquid_staking6eventsINtB4_11ContractObjINtNtNtNtCseUmQFO6d1K9_22multiversx_sc_scenario3api7impl_vh12vm_hooks_api10VMHooksApiNtNtB13_9debug_api15DebugApiBackendEENtB2_12EventsModule22remove_liquidity_eventCshHwHQpnfuGH_11unbond_test
FNDA:0,_RNvXNtCs2WGRDwQOHLQ_14liquid_staking6eventsINtB4_11ContractObjINtNtNtNtCseUmQFO6d1K9_22multiversx_sc_scenario3api7impl_vh12vm_hooks_api10VMHooksApiNtNtB13_9debug_api15DebugApiBackendEENtB2_12EventsModule24emit_claim_rewards_eventCshHwHQpnfuGH_11unbond_test
FNDA:5,_RNvYINtCs2WGRDwQOHLQ_14liquid_staking11ContractObjINtNtNtNtCseUmQFO6d1K9_22multiversx_sc_scenario3api7impl_vh12vm_hooks_api10VMHooksApiNtNtBR_9debug_api15DebugApiBackendEENtNtB5_6events12EventsModule24emit_add_liquidity_eventCshHwHQpnfuGH_11unbond_test
FNDA:10,_RNvYINtCs2WGRDwQOHLQ_14liquid_staking11ContractObjINtNtNtNtCseUmQFO6d1K9_22multiversx_sc_scenario3api7impl_vh12vm_hooks_api10VMHooksApiNtNtBR_9debug_api15DebugApiBackendEENtNtB5_6events12EventsModule27emit_remove_liquidity_eventCshHwHQpnfuGH_11unbond_test
FNDA:0,_RNvYINtCs2WGRDwQOHLQ_14liquid_staking11ContractObjINtNtNtNtCseUmQFO6d1K9_22multiversx_sc_scenario3api7impl_vh12vm_hooks_api10VMHooksApiNtNtBR_9debug_api15DebugApiBackendEENtNtB5_6events16EndpointWrappers17callback_selectorCshHwHQpnfuGH_11unbond_test
FNDA:42,_RNvYINtCs2WGRDwQOHLQ_14liquid_staking11ContractObjINtNtNtNtCseUmQFO6d1K9_22multiversx_sc_scenario3api7impl_vh12vm_hooks_api10VMHooksApiNtNtBR_9debug_api15DebugApiBackendEENtNtB5_6events16EndpointWrappers4callCshHwHQpnfuGH_11unbond_test
FNDA:0,_RNvYINtCs2WGRDwQOHLQ_14liquid_staking11ContractObjINtNtNtNtCseUmQFO6d1K9_22multiversx_sc_scenario3api7impl_vh12vm_hooks_api10VMHooksApiNtNtBR_9debug_api15DebugApiBackendEENtNtB5_6events16EndpointWrappers8callbackCshHwHQpnfuGH_11unbond_test
FNF:7
FNH:5
DA:6,33
DA:19,26
DA:34,153
DA:44,33
DA:45,33
DA:46,33
DA:47,33
DA:48,33
DA:49,33
DA:50,33
DA:51,33
DA:52,33
DA:53,33
DA:54,33
DA:55,33
DA:56,33
DA:57,33
DA:58,33
DA:59,33
DA:60,33
DA:61,33
DA:69,26
DA:70,26
DA:71,26
DA:72,26
DA:73,26
DA:74,26
DA:75,26
DA:76,26
DA:77,26
DA:78,26
DA:79,26
DA:80,26
DA:81,26
DA:82,26
DA:83,26
DA:84,26
DA:85,26
DA:86,26
DA:87,26
DA:88,26
DA:89,26
BRF:0
BRH:0
LF:44
LH:42
end_of_record
SF:/Users/mihaieremia/GitHub/rs-egld-liquid-staking/liquid-staking/src/lib.rs
FN:37,_RINvCs2WGRDwQOHLQ_14liquid_staking12contract_objINtNtNtNtCseUmQFO6d1K9_22multiversx_sc_scenario3api7impl_vh12vm_hooks_api10VMHooksApiNtNtBP_9debug_api15DebugApiBackendEECskEhliFuVTlV_13delegate_test
FN:37,_RNvXsv_Cs2WGRDwQOHLQ_14liquid_stakingINtB5_11ContractObjINtNtNtNtCseUmQFO6d1K9_22multiversx_sc_scenario3api7impl_vh12vm_hooks_api10VMHooksApiNtNtBX_9debug_api15DebugApiBackendEENtNtNtCs4WmCETBkTZ5_13multiversx_sc13contract_base17callable_contract16CallableContract4callCskEhliFuVTlV_13delegate_test
FN:111,_RNvYINtCs2WGRDwQOHLQ_14liquid_staking11ContractObjINtNtNtNtCseUmQFO6d1K9_22multiversx_sc_scenario3api7impl_vh12vm_hooks_api10VMHooksApiNtNtBR_9debug_api15DebugApiBackendEENtB5_13LiquidStaking11un_delegateCskEhliFuVTlV_13delegate_test
FN:60,_RNvYINtCs2WGRDwQOHLQ_14liquid_staking11ContractObjINtNtNtNtCseUmQFO6d1K9_22multiversx_sc_scenario3api7impl_vh12vm_hooks_api10VMHooksApiNtNtBR_9debug_api15DebugApiBackendEENtB5_13LiquidStaking4initCskEhliFuVTlV_13delegate_test
FN:81,_RNvYINtCs2WGRDwQOHLQ_14liquid_staking11ContractObjINtNtNtNtCseUmQFO6d1K9_22multiversx_sc_scenario3api7impl_vh12vm_hooks_api10VMHooksApiNtNtBR_9debug_api15DebugApiBackendEENtB5_13LiquidStaking8delegateCskEhliFuVTlV_13delegate_test
FN:143,_RNvYINtCs2WGRDwQOHLQ_14liquid_staking11ContractObjINtNtNtNtCseUmQFO6d1K9_22multiversx_sc_scenario3api7impl_vh12vm_hooks_api10VMHooksApiNtNtBR_9debug_api15DebugApiBackendEENtB5_13LiquidStaking8withdrawCskEhliFuVTlV_13delegate_test
FN:37,_RNvYINtCs2WGRDwQOHLQ_14liquid_staking11ContractObjINtNtNtNtCseUmQFO6d1K9_22multiversx_sc_scenario3api7impl_vh12vm_hooks_api10VMHooksApiNtNtBR_9debug_api15DebugApiBackendEENtB5_16EndpointWrappers13call_delegateCskEhliFuVTlV_13delegate_test
FN:37,_RNvYINtCs2WGRDwQOHLQ_14liquid_staking11ContractObjINtNtNtNtCseUmQFO6d1K9_22multiversx_sc_scenario3api7impl_vh12vm_hooks_api10VMHooksApiNtNtBR_9debug_api15DebugApiBackendEENtB5_16EndpointWrappers13call_withdrawCskEhliFuVTlV_13delegate_test
FN:37,_RNvYINtCs2WGRDwQOHLQ_14liquid_staking11ContractObjINtNtNtNtCseUmQFO6d1K9_22multiversx_sc_scenario3api7impl_vh12vm_hooks_api10VMHooksApiNtNtBR_9debug_api15DebugApiBackendEENtB5_16EndpointWrappers16call_un_delegateCskEhliFuVTlV_13delegate_test
FN:37,_RNvYINtCs2WGRDwQOHLQ_14liquid_staking11ContractObjINtNtNtNtCseUmQFO6d1K9_22multiversx_sc_scenario3api7impl_vh12vm_hooks_api10VMHooksApiNtNtBR_9debug_api15DebugApiBackendEENtB5_16EndpointWrappers17callback_selectorCskEhliFuVTlV_13delegate_test
FN:37,_RNvYINtCs2WGRDwQOHLQ_14liquid_staking11ContractObjINtNtNtNtCseUmQFO6d1K9_22multiversx_sc_scenario3api7impl_vh12vm_hooks_api10VMHooksApiNtNtBR_9debug_api15DebugApiBackendEENtB5_16EndpointWrappers4callCskEhliFuVTlV_13delegate_test
FN:37,_RNvYINtCs2WGRDwQOHLQ_14liquid_staking11ContractObjINtNtNtNtCseUmQFO6d1K9_22multiversx_sc_scenario3api7impl_vh12vm_hooks_api10VMHooksApiNtNtBR_9debug_api15DebugApiBackendEENtB5_16EndpointWrappers8callbackCskEhliFuVTlV_13delegate_test
FN:37,_RNvYINtCs2WGRDwQOHLQ_14liquid_staking11ContractObjINtNtNtNtCseUmQFO6d1K9_22multiversx_sc_scenario3api7impl_vh12vm_hooks_api10VMHooksApiNtNtBR_9debug_api15DebugApiBackendEENtB5_16EndpointWrappers9call_initCskEhliFuVTlV_13delegate_test
FN:60,_RNvYpNtCsdRzYvL09OST_14liquid_staking13LiquidStaking4initB5_
FN:81,_RNvYpNtCsdRzYvL09OST_14liquid_staking13LiquidStaking8delegateB5_
FN:111,_RNvYpNtCsdRzYvL09OST_14liquid_staking13LiquidStaking11un_delegateB5_
FN:143,_RNvYpNtCsdRzYvL09OST_14liquid_staking13LiquidStaking8withdrawB5_
FN:37,_RNvYpNtCsdRzYvL09OST_14liquid_staking16EndpointWrappers9call_initB5_
FN:37,_RNvYpNtCsdRzYvL09OST_14liquid_staking16EndpointWrappers13call_delegateB5_
FN:37,_RNvYpNtCsdRzYvL09OST_14liquid_staking16EndpointWrappers16call_un_delegateB5_
FN:37,_RNvYpNtCsdRzYvL09OST_14liquid_staking16EndpointWrappers13call_withdrawB5_
FN:37,_RNvYpNtCsdRzYvL09OST_14liquid_staking16EndpointWrappers4callB5_
FN:37,_RNvYpNtCsdRzYvL09OST_14liquid_staking16EndpointWrappers17callback_selectorB5_
FN:37,_RNvYpNtCsdRzYvL09OST_14liquid_staking16EndpointWrappers8callbackB5_
FN:37,_RNvXs1_CsdRzYvL09OST_14liquid_stakingNtB5_11AbiProviderNtNtNtCs4WmCETBkTZ5_13multiversx_sc13contract_base21contract_abi_provider19ContractAbiProvider3abi
FN:37,_RNvXINICsdRzYvL09OST_14liquid_stakingsv_0pEINtB5_11ContractObjpENtNtNtCs4WmCETBkTZ5_13multiversx_sc13contract_base17callable_contract16CallableContract4callB5_
FN:37,_RINvCsdRzYvL09OST_14liquid_staking12contract_objpEB2_
FN:37,_RINvXsw_CsdRzYvL09OST_14liquid_stakingNtB6_15ContractBuilderNtNtNtCs4WmCETBkTZ5_13multiversx_sc13contract_base17callable_contract23CallableContractBuilder16new_contract_objpEB6_
FN:37,_RINvNtCsdRzYvL09OST_14liquid_staking19___wasm__endpoints__4initpEB4_
FN:37,_RINvNtCsdRzYvL09OST_14liquid_staking19___wasm__endpoints__8delegatepEB4_
FN:37,_RINvNtCsdRzYvL09OST_14liquid_staking19___wasm__endpoints__11un_delegatepEB4_
FN:37,_RINvNtCsdRzYvL09OST_14liquid_staking19___wasm__endpoints__8withdrawpEB4_
FN:37,_RINvNtCsdRzYvL09OST_14liquid_staking19___wasm__endpoints__8callBackpEB4_
FN:37,_RINvYpNtCsdRzYvL09OST_14liquid_staking10ProxyTrait4initppppEB6_
FN:37,_RNvYpNtCsdRzYvL09OST_14liquid_staking10ProxyTrait8delegateB5_
FN:37,_RNvYpNtCsdRzYvL09OST_14liquid_staking10ProxyTrait11un_delegateB5_
FN:37,_RNvYpNtCsdRzYvL09OST_14liquid_staking10ProxyTrait8withdrawB5_
FN:37,_RNvXINICsdRzYvL09OST_14liquid_stakingsx_0pEINtB5_5ProxypENtNtNtCs4WmCETBkTZ5_13multiversx_sc13contract_base14proxy_obj_base12ProxyObjBase19extract_opt_addressB5_
FN:37,_RNvXINICsdRzYvL09OST_14liquid_stakingsx_0pEINtB5_5ProxypENtNtNtCs4WmCETBkTZ5_13multiversx_sc13contract_base14proxy_obj_base12ProxyObjBase16extract_proxy_toB5_
FN:37,_RNvXINICsdRzYvL09OST_14liquid_stakingsy_0pEINtB5_5ProxypENtNtNtCs4WmCETBkTZ5_13multiversx_sc13contract_base14proxy_obj_base11ProxyObjNew13new_proxy_objB5_
FN:37,_RNvXINICsdRzYvL09OST_14liquid_stakingsy_0pEINtB5_5ProxypENtNtNtCs4WmCETBkTZ5_13multiversx_sc13contract_base14proxy_obj_base11ProxyObjNew8contractB5_
FN:37,_RNvXINICsdRzYvL09OST_14liquid_stakingsz_0pEINtB5_7ProxyTopENtNtNtCs4WmCETBkTZ5_13multiversx_sc13contract_base14proxy_obj_base12ProxyObjBase19extract_opt_addressB5_
FN:37,_RNvXINICsdRzYvL09OST_14liquid_stakingsz_0pEINtB5_7ProxyTopENtNtNtCs4WmCETBkTZ5_13multiversx_sc13contract_base14proxy_obj_base12ProxyObjBase15extract_addressB5_
FN:37,_RNvXINICsdRzYvL09OST_14liquid_stakingsz_0pEINtB5_7ProxyTopENtNtNtCs4WmCETBkTZ5_13multiversx_sc13contract_base14proxy_obj_base12ProxyObjBase16extract_proxy_toB5_
FN:37,_RINvCs2WGRDwQOHLQ_14liquid_staking12contract_objINtNtNtNtCseUmQFO6d1K9_22multiversx_sc_scenario3api7impl_vh12vm_hooks_api10VMHooksApiNtNtBP_9debug_api15DebugApiBackendEECsaR2MVHtCDM0_4test
FN:37,_RNvXsv_Cs2WGRDwQOHLQ_14liquid_stakingINtB5_11ContractObjINtNtNtNtCseUmQFO6d1K9_22multiversx_sc_scenario3api7impl_vh12vm_hooks_api10VMHooksApiNtNtBX_9debug_api15DebugApiBackendEENtNtNtCs4WmCETBkTZ5_13multiversx_sc13contract_base17callable_contract16CallableContract4callCsaR2MVHtCDM0_4test
FN:111,_RNvYINtCs2WGRDwQOHLQ_14liquid_staking11ContractObjINtNtNtNtCseUmQFO6d1K9_22multiversx_sc_scenario3api7impl_vh12vm_hooks_api10VMHooksApiNtNtBR_9debug_api15DebugApiBackendEENtB5_13LiquidStaking11un_delegateCsaR2MVHtCDM0_4test
FN:60,_RNvYINtCs2WGRDwQOHLQ_14liquid_staking11ContractObjINtNtNtNtCseUmQFO6d1K9_22multiversx_sc_scenario3api7impl_vh12vm_hooks_api10VMHooksApiNtNtBR_9debug_api15DebugApiBackendEENtB5_13LiquidStaking4initCsaR2MVHtCDM0_4test
FN:81,_RNvYINtCs2WGRDwQOHLQ_14liquid_staking11ContractObjINtNtNtNtCseUmQFO6d1K9_22multiversx_sc_scenario3api7impl_vh12vm_hooks_api10VMHooksApiNtNtBR_9debug_api15DebugApiBackendEENtB5_13LiquidStaking8delegateCsaR2MVHtCDM0_4test
FN:143,_RNvYINtCs2WGRDwQOHLQ_14liquid_staking11ContractObjINtNtNtNtCseUmQFO6d1K9_22multiversx_sc_scenario3api7impl_vh12vm_hooks_api10VMHooksApiNtNtBR_9debug_api15DebugApiBackendEENtB5_13LiquidStaking8withdrawCsaR2MVHtCDM0_4test
FN:37,_RNvYINtCs2WGRDwQOHLQ_14liquid_staking11ContractObjINtNtNtNtCseUmQFO6d1K9_22multiversx_sc_scenario3api7impl_vh12vm_hooks_api10VMHooksApiNtNtBR_9debug_api15DebugApiBackendEENtB5_16EndpointWrappers13call_delegateCsaR2MVHtCDM0_4test
FN:37,_RNvYINtCs2WGRDwQOHLQ_14liquid_staking11ContractObjINtNtNtNtCseUmQFO6d1K9_22multiversx_sc_scenario3api7impl_vh12vm_hooks_api10VMHooksApiNtNtBR_9debug_api15DebugApiBackendEENtB5_16EndpointWrappers13call_withdrawCsaR2MVHtCDM0_4test
FN:37,_RNvYINtCs2WGRDwQOHLQ_14liquid_staking11ContractObjINtNtNtNtCseUmQFO6d1K9_22multiversx_sc_scenario3api7impl_vh12vm_hooks_api10VMHooksApiNtNtBR_9debug_api15DebugApiBackendEENtB5_16EndpointWrappers16call_un_delegateCsaR2MVHtCDM0_4test
FN:37,_RNvYINtCs2WGRDwQOHLQ_14liquid_staking11ContractObjINtNtNtNtCseUmQFO6d1K9_22multiversx_sc_scenario3api7impl_vh12vm_hooks_api10VMHooksApiNtNtBR_9debug_api15DebugApiBackendEENtB5_16EndpointWrappers17callback_selectorCsaR2MVHtCDM0_4test
FN:37,_RNvYINtCs2WGRDwQOHLQ_14liquid_staking11ContractObjINtNtNtNtCseUmQFO6d1K9_22multiversx_sc_scenario3api7impl_vh12vm_hooks_api10VMHooksApiNtNtBR_9debug_api15DebugApiBackendEENtB5_16EndpointWrappers4callCsaR2MVHtCDM0_4test
FN:37,_RNvYINtCs2WGRDwQOHLQ_14liquid_staking11ContractObjINtNtNtNtCseUmQFO6d1K9_22multiversx_sc_scenario3api7impl_vh12vm_hooks_api10VMHooksApiNtNtBR_9debug_api15DebugApiBackendEENtB5_16EndpointWrappers8callbackCsaR2MVHtCDM0_4test
FN:37,_RNvYINtCs2WGRDwQOHLQ_14liquid_staking11ContractObjINtNtNtNtCseUmQFO6d1K9_22multiversx_sc_scenario3api7impl_vh12vm_hooks_api10VMHooksApiNtNtBR_9debug_api15DebugApiBackendEENtB5_16EndpointWrappers9call_initCsaR2MVHtCDM0_4test
FN:37,_RINvCs2WGRDwQOHLQ_14liquid_staking12contract_objINtNtNtNtCseUmQFO6d1K9_22multiversx_sc_scenario3api7impl_vh12vm_hooks_api10VMHooksApiNtNtBP_9debug_api15DebugApiBackendEECsVH6ELXPoQD_15unDelegate_test
FN:37,_RNvXsv_Cs2WGRDwQOHLQ_14liquid_stakingINtB5_11ContractObjINtNtNtNtCseUmQFO6d1K9_22multiversx_sc_scenario3api7impl_vh12vm_hooks_api10VMHooksApiNtNtBX_9debug_api15DebugApiBackendEENtNtNtCs4WmCETBkTZ5_13multiversx_sc13contract_base17callable_contract16CallableContract4callCsVH6ELXPoQD_15unDelegate_test
FN:111,_RNvYINtCs2WGRDwQOHLQ_14liquid_staking11ContractObjINtNtNtNtCseUmQFO6d1K9_22multiversx_sc_scenario3api7impl_vh12vm_hooks_api10VMHooksApiNtNtBR_9debug_api15DebugApiBackendEENtB5_13LiquidStaking11un_delegateCsVH6ELXPoQD_15unDelegate_test
FN:60,_RNvYINtCs2WGRDwQOHLQ_14liquid_staking11ContractObjINtNtNtNtCseUmQFO6d1K9_22multiversx_sc_scenario3api7impl_vh12vm_hooks_api10VMHooksApiNtNtBR_9debug_api15DebugApiBackendEENtB5_13LiquidStaking4initCsVH6ELXPoQD_15unDelegate_test
FN:81,_RNvYINtCs2WGRDwQOHLQ_14liquid_staking11ContractObjINtNtNtNtCseUmQFO6d1K9_22multiversx_sc_scenario3api7impl_vh12vm_hooks_api10VMHooksApiNtNtBR_9debug_api15DebugApiBackendEENtB5_13LiquidStaking8delegateCsVH6ELXPoQD_15unDelegate_test
FN:143,_RNvYINtCs2WGRDwQOHLQ_14liquid_staking11ContractObjINtNtNtNtCseUmQFO6d1K9_22multiversx_sc_scenario3api7impl_vh12vm_hooks_api10VMHooksApiNtNtBR_9debug_api15DebugApiBackendEENtB5_13LiquidStaking8withdrawCsVH6ELXPoQD_15unDelegate_test
FN:37,_RNvYINtCs2WGRDwQOHLQ_14liquid_staking11ContractObjINtNtNtNtCseUmQFO6d1K9_22multiversx_sc_scenario3api7impl_vh12vm_hooks_api10VMHooksApiNtNtBR_9debug_api15DebugApiBackendEENtB5_16EndpointWrappers13call_delegateCsVH6ELXPoQD_15unDelegate_test
FN:37,_RNvYINtCs2WGRDwQOHLQ_14liquid_staking11ContractObjINtNtNtNtCseUmQFO6d1K9_22multiversx_sc_scenario3api7impl_vh12vm_hooks_api10VMHooksApiNtNtBR_9debug_api15DebugApiBackendEENtB5_16EndpointWrappers13call_withdrawCsVH6ELXPoQD_15unDelegate_test
FN:37,_RNvYINtCs2WGRDwQOHLQ_14liquid_staking11ContractObjINtNtNtNtCseUmQFO6d1K9_22multiversx_sc_scenario3api7impl_vh12vm_hooks_api10VMHooksApiNtNtBR_9debug_api15DebugApiBackendEENtB5_16EndpointWrappers16call_un_delegateCsVH6ELXPoQD_15unDelegate_test
FN:37,_RNvYINtCs2WGRDwQOHLQ_14liquid_staking11ContractObjINtNtNtNtCseUmQFO6d1K9_22multiversx_sc_scenario3api7impl_vh12vm_hooks_api10VMHooksApiNtNtBR_9debug_api15DebugApiBackendEENtB5_16EndpointWrappers17callback_selectorCsVH6ELXPoQD_15unDelegate_test
FN:37,_RNvYINtCs2WGRDwQOHLQ_14liquid_staking11ContractObjINtNtNtNtCseUmQFO6d1K9_22multiversx_sc_scenario3api7impl_vh12vm_hooks_api10VMHooksApiNtNtBR_9debug_api15DebugApiBackendEENtB5_16EndpointWrappers4callCsVH6ELXPoQD_15unDelegate_test
FN:37,_RNvYINtCs2WGRDwQOHLQ_14liquid_staking11ContractObjINtNtNtNtCseUmQFO6d1K9_22multiversx_sc_scenario3api7impl_vh12vm_hooks_api10VMHooksApiNtNtBR_9debug_api15DebugApiBackendEENtB5_16EndpointWrappers8callbackCsVH6ELXPoQD_15unDelegate_test
FN:37,_RNvYINtCs2WGRDwQOHLQ_14liquid_staking11ContractObjINtNtNtNtCseUmQFO6d1K9_22multiversx_sc_scenario3api7impl_vh12vm_hooks_api10VMHooksApiNtNtBR_9debug_api15DebugApiBackendEENtB5_16EndpointWrappers9call_initCsVH6ELXPoQD_15unDelegate_test
FN:37,_RINvCs2WGRDwQOHLQ_14liquid_staking12contract_objINtNtNtNtCseUmQFO6d1K9_22multiversx_sc_scenario3api7impl_vh12vm_hooks_api10VMHooksApiNtNtBP_9debug_api15DebugApiBackendEECshHwHQpnfuGH_11unbond_test
FN:37,_RNvXsv_Cs2WGRDwQOHLQ_14liquid_stakingINtB5_11ContractObjINtNtNtNtCseUmQFO6d1K9_22multiversx_sc_scenario3api7impl_vh12vm_hooks_api10VMHooksApiNtNtBX_9debug_api15DebugApiBackendEENtNtNtCs4WmCETBkTZ5_13multiversx_sc13contract_base17callable_contract16CallableContract4callCshHwHQpnfuGH_11unbond_test
FN:111,_RNvYINtCs2WGRDwQOHLQ_14liquid_staking11ContractObjINtNtNtNtCseUmQFO6d1K9_22multiversx_sc_scenario3api7impl_vh12vm_hooks_api10VMHooksApiNtNtBR_9debug_api15DebugApiBackendEENtB5_13LiquidStaking11un_delegateCshHwHQpnfuGH_11unbond_test
FN:60,_RNvYINtCs2WGRDwQOHLQ_14liquid_staking11ContractObjINtNtNtNtCseUmQFO6d1K9_22multiversx_sc_scenario3api7impl_vh12vm_hooks_api10VMHooksApiNtNtBR_9debug_api15DebugApiBackendEENtB5_13LiquidStaking4initCshHwHQpnfuGH_11unbond_test
FN:81,_RNvYINtCs2WGRDwQOHLQ_14liquid_staking11ContractObjINtNtNtNtCseUmQFO6d1K9_22multiversx_sc_scenario3api7impl_vh12vm_hooks_api10VMHooksApiNtNtBR_9debug_api15DebugApiBackendEENtB5_13LiquidStaking8delegateCshHwHQpnfuGH_11unbond_test
FN:143,_RNvYINtCs2WGRDwQOHLQ_14liquid_staking11ContractObjINtNtNtNtCseUmQFO6d1K9_22multiversx_sc_scenario3api7impl_vh12vm_hooks_api10VMHooksApiNtNtBR_9debug_api15DebugApiBackendEENtB5_13LiquidStaking8withdrawCshHwHQpnfuGH_11unbond_test
FN:37,_RNvYINtCs2WGRDwQOHLQ_14liquid_staking11ContractObjINtNtNtNtCseUmQFO6d1K9_22multiversx_sc_scenario3api7impl_vh12vm_hooks_api10VMHooksApiNtNtBR_9debug_api15DebugApiBackendEENtB5_16EndpointWrappers13call_delegateCshHwHQpnfuGH_11unbond_test
FN:37,_RNvYINtCs2WGRDwQOHLQ_14liquid_staking11ContractObjINtNtNtNtCseUmQFO6d1K9_22multiversx_sc_scenario3api7impl_vh12vm_hooks_api10VMHooksApiNtNtBR_9debug_api15DebugApiBackendEENtB5_16EndpointWrappers13call_withdrawCshHwHQpnfuGH_11unbond_test
FN:37,_RNvYINtCs2WGRDwQOHLQ_14liquid_staking11ContractObjINtNtNtNtCseUmQFO6d1K9_22multiversx_sc_scenario3api7impl_vh12vm_hooks_api10VMHooksApiNtNtBR_9debug_api15DebugApiBackendEENtB5_16EndpointWrappers16call_un_delegateCshHwHQpnfuGH_11unbond_test
FN:37,_RNvYINtCs2WGRDwQOHLQ_14liquid_staking11ContractObjINtNtNtNtCseUmQFO6d1K9_22multiversx_sc_scenario3api7impl_vh12vm_hooks_api10VMHooksApiNtNtBR_9debug_api15DebugApiBackendEENtB5_16EndpointWrappers17callback_selectorCshHwHQpnfuGH_11unbond_test
FN:37,_RNvYINtCs2WGRDwQOHLQ_14liquid_staking11ContractObjINtNtNtNtCseUmQFO6d1K9_22multiversx_sc_scenario3api7impl_vh12vm_hooks_api10VMHooksApiNtNtBR_9debug_api15DebugApiBackendEENtB5_16EndpointWrappers4callCshHwHQpnfuGH_11unbond_test
FN:37,_RNvYINtCs2WGRDwQOHLQ_14liquid_staking11ContractObjINtNtNtNtCseUmQFO6d1K9_22multiversx_sc_scenario3api7impl_vh12vm_hooks_api10VMHooksApiNtNtBR_9debug_api15DebugApiBackendEENtB5_16EndpointWrappers8callbackCshHwHQpnfuGH_11unbond_test
FN:37,_RNvYINtCs2WGRDwQOHLQ_14liquid_staking11ContractObjINtNtNtNtCseUmQFO6d1K9_22multiversx_sc_scenario3api7impl_vh12vm_hooks_api10VMHooksApiNtNtBR_9debug_api15DebugApiBackendEENtB5_16EndpointWrappers9call_initCshHwHQpnfuGH_11unbond_test
FNDA:94,_RINvCs2WGRDwQOHLQ_14liquid_staking12contract_objINtNtNtNtCseUmQFO6d1K9_22multiversx_sc_scenario3api7impl_vh12vm_hooks_api10VMHooksApiNtNtBP_9debug_api15DebugApiBackendEECskEhliFuVTlV_13delegate_test
FNDA:4,_RNvXsv_Cs2WGRDwQOHLQ_14liquid_stakingINtB5_11ContractObjINtNtNtNtCseUmQFO6d1K9_22multiversx_sc_scenario3api7impl_vh12vm_hooks_api10VMHooksApiNtNtBX_9debug_api15DebugApiBackendEENtNtNtCs4WmCETBkTZ5_13multiversx_sc13contract_base17callable_contract16CallableContract4callCskEhliFuVTlV_13delegate_test
FNDA:4,_RNvYINtCs2WGRDwQOHLQ_14liquid_staking11ContractObjINtNtNtNtCseUmQFO6d1K9_22multiversx_sc_scenario3api7impl_vh12vm_hooks_api10VMHooksApiNtNtBR_9debug_api15DebugApiBackendEENtB5_13LiquidStaking11un_delegateCskEhliFuVTlV_13delegate_test
FNDA:9,_RNvYINtCs2WGRDwQOHLQ_14liquid_staking11ContractObjINtNtNtNtCseUmQFO6d1K9_22multiversx_sc_scenario3api7impl_vh12vm_hooks_api10VMHooksApiNtNtBR_9debug_api15DebugApiBackendEENtB5_13LiquidStaking4initCskEhliFuVTlV_13delegate_test
FNDA:14,_RNvYINtCs2WGRDwQOHLQ_14liquid_staking11ContractObjINtNtNtNtCseUmQFO6d1K9_22multiversx_sc_scenario3api7impl_vh12vm_hooks_api10VMHooksApiNtNtBR_9debug_api15DebugApiBackendEENtB5_13LiquidStaking8delegateCskEhliFuVTlV_13delegate_test
FNDA:0,_RNvYINtCs2WGRDwQOHLQ_14liquid_staking11ContractObjINtNtNtNtCseUmQFO6d1K9_22multiversx_sc_scenario3api7impl_vh12vm_hooks_api10VMHooksApiNtNtBR_9debug_api15DebugApiBackendEENtB5_13LiquidStaking8withdrawCskEhliFuVTlV_13delegate_test
FNDA:0,_RNvYINtCs2WGRDwQOHLQ_14liquid_staking11ContractObjINtNtNtNtCseUmQFO6d1K9_22multiversx_sc_scenario3api7impl_vh12vm_hooks_api10VMHooksApiNtNtBR_9debug_api15DebugApiBackendEENtB5_16EndpointWrappers13call_delegateCskEhliFuVTlV_13delegate_test
FNDA:0,_RNvYINtCs2WGRDwQOHLQ_14liquid_staking11ContractObjINtNtNtNtCseUmQFO6d1K9_22multiversx_sc_scenario3api7impl_vh12vm_hooks_api10VMHooksApiNtNtBR_9debug_api15DebugApiBackendEENtB5_16EndpointWrappers13call_withdrawCskEhliFuVTlV_13delegate_test
FNDA:0,_RNvYINtCs2WGRDwQOHLQ_14liquid_staking11ContractObjINtNtNtNtCseUmQFO6d1K9_22multiversx_sc_scenario3api7impl_vh12vm_hooks_api10VMHooksApiNtNtBR_9debug_api15DebugApiBackendEENtB5_16EndpointWrappers16call_un_delegateCskEhliFuVTlV_13delegate_test
FNDA:0,_RNvYINtCs2WGRDwQOHLQ_14liquid_staking11ContractObjINtNtNtNtCseUmQFO6d1K9_22multiversx_sc_scenario3api7impl_vh12vm_hooks_api10VMHooksApiNtNtBR_9debug_api15DebugApiBackendEENtB5_16EndpointWrappers17callback_selectorCskEhliFuVTlV_13delegate_test
FNDA:4,_RNvYINtCs2WGRDwQOHLQ_14liquid_staking11ContractObjINtNtNtNtCseUmQFO6d1K9_22multiversx_sc_scenario3api7impl_vh12vm_hooks_api10VMHooksApiNtNtBR_9debug_api15DebugApiBackendEENtB5_16EndpointWrappers4callCskEhliFuVTlV_13delegate_test
FNDA:0,_RNvYINtCs2WGRDwQOHLQ_14liquid_staking11ContractObjINtNtNtNtCseUmQFO6d1K9_22multiversx_sc_scenario3api7impl_vh12vm_hooks_api10VMHooksApiNtNtBR_9debug_api15DebugApiBackendEENtB5_16EndpointWrappers8callbackCskEhliFuVTlV_13delegate_test
FNDA:0,_RNvYINtCs2WGRDwQOHLQ_14liquid_staking11ContractObjINtNtNtNtCseUmQFO6d1K9_22multiversx_sc_scenario3api7impl_vh12vm_hooks_api10VMHooksApiNtNtBR_9debug_api15DebugApiBackendEENtB5_16EndpointWrappers9call_initCskEhliFuVTlV_13delegate_test
FNDA:0,_RNvYpNtCsdRzYvL09OST_14liquid_staking13LiquidStaking4initB5_
FNDA:0,_RNvYpNtCsdRzYvL09OST_14liquid_staking13LiquidStaking8delegateB5_
FNDA:0,_RNvYpNtCsdRzYvL09OST_14liquid_staking13LiquidStaking11un_delegateB5_
FNDA:0,_RNvYpNtCsdRzYvL09OST_14liquid_staking13LiquidStaking8withdrawB5_
FNDA:0,_RNvYpNtCsdRzYvL09OST_14liquid_staking16EndpointWrappers9call_initB5_
FNDA:0,_RNvYpNtCsdRzYvL09OST_14liquid_staking16EndpointWrappers13call_delegateB5_
FNDA:0,_RNvYpNtCsdRzYvL09OST_14liquid_staking16EndpointWrappers16call_un_delegateB5_
FNDA:0,_RNvYpNtCsdRzYvL09OST_14liquid_staking16EndpointWrappers13call_withdrawB5_
FNDA:0,_RNvYpNtCsdRzYvL09OST_14liquid_staking16EndpointWrappers4callB5_
FNDA:0,_RNvYpNtCsdRzYvL09OST_14liquid_staking16EndpointWrappers17callback_selectorB5_
FNDA:0,_RNvYpNtCsdRzYvL09OST_14liquid_staking16EndpointWrappers8callbackB5_
FNDA:0,_RNvXs1_CsdRzYvL09OST_14liquid_stakingNtB5_11AbiProviderNtNtNtCs4WmCETBkTZ5_13multiversx_sc13contract_base21contract_abi_provider19ContractAbiProvider3abi
FNDA:0,_RNvXINICsdRzYvL09OST_14liquid_stakingsv_0pEINtB5_11ContractObjpENtNtNtCs4WmCETBkTZ5_13multiversx_sc13contract_base17callable_contract16CallableContract4callB5_
FNDA:0,_RINvCsdRzYvL09OST_14liquid_staking12contract_objpEB2_
FNDA:0,_RINvXsw_CsdRzYvL09OST_14liquid_stakingNtB6_15ContractBuilderNtNtNtCs4WmCETBkTZ5_13multiversx_sc13contract_base17callable_contract23CallableContractBuilder16new_contract_objpEB6_
FNDA:0,_RINvNtCsdRzYvL09OST_14liquid_staking19___wasm__endpoints__4initpEB4_
FNDA:0,_RINvNtCsdRzYvL09OST_14liquid_staking19___wasm__endpoints__8delegatepEB4_
FNDA:0,_RINvNtCsdRzYvL09OST_14liquid_staking19___wasm__endpoints__11un_delegatepEB4_
FNDA:0,_RINvNtCsdRzYvL09OST_14liquid_staking19___wasm__endpoints__8withdrawpEB4_
FNDA:0,_RINvNtCsdRzYvL09OST_14liquid_staking19___wasm__endpoints__8callBackpEB4_
FNDA:0,_RINvYpNtCsdRzYvL09OST_14liquid_staking10ProxyTrait4initppppEB6_
FNDA:0,_RNvYpNtCsdRzYvL09OST_14liquid_staking10ProxyTrait8delegateB5_
FNDA:0,_RNvYpNtCsdRzYvL09OST_14liquid_staking10ProxyTrait11un_delegateB5_
FNDA:0,_RNvYpNtCsdRzYvL09OST_14liquid_staking10ProxyTrait8withdrawB5_
FNDA:0,_RNvXINICsdRzYvL09OST_14liquid_stakingsx_0pEINtB5_5ProxypENtNtNtCs4WmCETBkTZ5_13multiversx_sc13contract_base14proxy_obj_base12ProxyObjBase19extract_opt_addressB5_
FNDA:0,_RNvXINICsdRzYvL09OST_14liquid_stakingsx_0pEINtB5_5ProxypENtNtNtCs4WmCETBkTZ5_13multiversx_sc13contract_base14proxy_obj_base12ProxyObjBase16extract_proxy_toB5_
FNDA:0,_RNvXINICsdRzYvL09OST_14liquid_stakingsy_0pEINtB5_5ProxypENtNtNtCs4WmCETBkTZ5_13multiversx_sc13contract_base14proxy_obj_base11ProxyObjNew13new_proxy_objB5_
FNDA:0,_RNvXINICsdRzYvL09OST_14liquid_stakingsy_0pEINtB5_5ProxypENtNtNtCs4WmCETBkTZ5_13multiversx_sc13contract_base14proxy_obj_base11ProxyObjNew8contractB5_
FNDA:0,_RNvXINICsdRzYvL09OST_14liquid_stakingsz_0pEINtB5_7ProxyTopENtNtNtCs4WmCETBkTZ5_13multiversx_sc13contract_base14proxy_obj_base12ProxyObjBase19extract_opt_addressB5_
FNDA:0,_RNvXINICsdRzYvL09OST_14liquid_stakingsz_0pEINtB5_7ProxyTopENtNtNtCs4WmCETBkTZ5_13multiversx_sc13contract_base14proxy_obj_base12ProxyObjBase15extract_addressB5_
FNDA:0,_RNvXINICsdRzYvL09OST_14liquid_stakingsz_0pEINtB5_7ProxyTopENtNtNtCs4WmCETBkTZ5_13multiversx_sc13contract_base14proxy_obj_base12ProxyObjBase16extract_proxy_toB5_
FNDA:87,_RINvCs2WGRDwQOHLQ_14liquid_staking12contract_objINtNtNtNtCseUmQFO6d1K9_22multiversx_sc_scenario3api7impl_vh12vm_hooks_api10VMHooksApiNtNtBP_9debug_api15DebugApiBackendEECsaR2MVHtCDM0_4test
FNDA:28,_RNvXsv_Cs2WGRDwQOHLQ_14liquid_stakingINtB5_11ContractObjINtNtNtNtCseUmQFO6d1K9_22multiversx_sc_scenario3api7impl_vh12vm_hooks_api10VMHooksApiNtNtBX_9debug_api15DebugApiBackendEENtNtNtCs4WmCETBkTZ5_13multiversx_sc13contract_base17callable_contract16CallableContract4callCsaR2MVHtCDM0_4test
FNDA:5,_RNvYINtCs2WGRDwQOHLQ_14liquid_staking11ContractObjINtNtNtNtCseUmQFO6d1K9_22multiversx_sc_scenario3api7impl_vh12vm_hooks_api10VMHooksApiNtNtBR_9debug_api15DebugApiBackendEENtB5_13LiquidStaking11un_delegateCsaR2MVHtCDM0_4test
FNDA:4,_RNvYINtCs2WGRDwQOHLQ_14liquid_staking11ContractObjINtNtNtNtCseUmQFO6d1K9_22multiversx_sc_scenario3api7impl_vh12vm_hooks_api10VMHooksApiNtNtBR_9debug_api15DebugApiBackendEENtB5_13LiquidStaking4initCsaR2MVHtCDM0_4test
FNDA:8,_RNvYINtCs2WGRDwQOHLQ_14liquid_staking11ContractObjINtNtNtNtCseUmQFO6d1K9_22multiversx_sc_scenario3api7impl_vh12vm_hooks_api10VMHooksApiNtNtBR_9debug_api15DebugApiBackendEENtB5_13LiquidStaking8delegateCsaR2MVHtCDM0_4test
FNDA:2,_RNvYINtCs2WGRDwQOHLQ_14liquid_staking11ContractObjINtNtNtNtCseUmQFO6d1K9_22multiversx_sc_scenario3api7impl_vh12vm_hooks_api10VMHooksApiNtNtBR_9debug_api15DebugApiBackendEENtB5_13LiquidStaking8withdrawCsaR2MVHtCDM0_4test
FNDA:0,_RNvYINtCs2WGRDwQOHLQ_14liquid_staking11ContractObjINtNtNtNtCseUmQFO6d1K9_22multiversx_sc_scenario3api7impl_vh12vm_hooks_api10VMHooksApiNtNtBR_9debug_api15DebugApiBackendEENtB5_16EndpointWrappers13call_delegateCsaR2MVHtCDM0_4test
FNDA:0,_RNvYINtCs2WGRDwQOHLQ_14liquid_staking11ContractObjINtNtNtNtCseUmQFO6d1K9_22multiversx_sc_scenario3api7impl_vh12vm_hooks_api10VMHooksApiNtNtBR_9debug_api15DebugApiBackendEENtB5_16EndpointWrappers13call_withdrawCsaR2MVHtCDM0_4test
FNDA:0,_RNvYINtCs2WGRDwQOHLQ_14liquid_staking11ContractObjINtNtNtNtCseUmQFO6d1K9_22multiversx_sc_scenario3api7impl_vh12vm_hooks_api10VMHooksApiNtNtBR_9debug_api15DebugApiBackendEENtB5_16EndpointWrappers16call_un_delegateCsaR2MVHtCDM0_4test
FNDA:0,_RNvYINtCs2WGRDwQOHLQ_14liquid_staking11ContractObjINtNtNtNtCseUmQFO6d1K9_22multiversx_sc_scenario3api7impl_vh12vm_hooks_api10VMHooksApiNtNtBR_9debug_api15DebugApiBackendEENtB5_16EndpointWrappers17callback_selectorCsaR2MVHtCDM0_4test
FNDA:28,_RNvYINtCs2WGRDwQOHLQ_14liquid_staking11ContractObjINtNtNtNtCseUmQFO6d1K9_22multiversx_sc_scenario3api7impl_vh12vm_hooks_api10VMHooksApiNtNtBR_9debug_api15DebugApiBackendEENtB5_16EndpointWrappers4callCsaR2MVHtCDM0_4test
FNDA:0,_RNvYINtCs2WGRDwQOHLQ_14liquid_staking11ContractObjINtNtNtNtCseUmQFO6d1K9_22multiversx_sc_scenario3api7impl_vh12vm_hooks_api10VMHooksApiNtNtBR_9debug_api15DebugApiBackendEENtB5_16EndpointWrappers8callbackCsaR2MVHtCDM0_4test
FNDA:0,_RNvYINtCs2WGRDwQOHLQ_14liquid_staking11ContractObjINtNtNtNtCseUmQFO6d1K9_22multiversx_sc_scenario3api7impl_vh12vm_hooks_api10VMHooksApiNtNtBR_9debug_api15DebugApiBackendEENtB5_16EndpointWrappers9call_initCsaR2MVHtCDM0_4test
FNDA:63,_RINvCs2WGRDwQOHLQ_14liquid_staking12contract_objINtNtNtNtCseUmQFO6d1K9_22multiversx_sc_scenario3api7impl_vh12vm_hooks_api10VMHooksApiNtNtBP_9debug_api15DebugApiBackendEECsVH6ELXPoQD_15unDelegate_test
FNDA:5,_RNvXsv_Cs2WGRDwQOHLQ_14liquid_stakingINtB5_11ContractObjINtNtNtNtCseUmQFO6d1K9_22multiversx_sc_scenario3api7impl_vh12vm_hooks_api10VMHooksApiNtNtBX_9debug_api15DebugApiBackendEENtNtNtCs4WmCETBkTZ5_13multiversx_sc13contract_base17callable_contract16CallableContract4callCsVH6ELXPoQD_15unDelegate_test
FNDA:5,_RNvYINtCs2WGRDwQOHLQ_14liquid_staking11ContractObjINtNtNtNtCseUmQFO6d1K9_22multiversx_sc_scenario3api7impl_vh12vm_hooks_api10VMHooksApiNtNtBR_9debug_api15DebugApiBackendEENtB5_13LiquidStaking11un_delegateCsVH6ELXPoQD_15unDelegate_test
FNDA:5,_RNvYINtCs2WGRDwQOHLQ_14liquid_staking11ContractObjINtNtNtNtCseUmQFO6d1K9_22multiversx_sc_scenario3api7impl_vh12vm_hooks_api10VMHooksApiNtNtBR_9debug_api15DebugApiBackendEENtB5_13LiquidStaking4initCsVH6ELXPoQD_15unDelegate_test
FNDA:7,_RNvYINtCs2WGRDwQOHLQ_14liquid_staking11ContractObjINtNtNtNtCseUmQFO6d1K9_22multiversx_sc_scenario3api7impl_vh12vm_hooks_api10VMHooksApiNtNtBR_9debug_api15DebugApiBackendEENtB5_13LiquidStaking8delegateCsVH6ELXPoQD_15unDelegate_test
FNDA:0,_RNvYINtCs2WGRDwQOHLQ_14liquid_staking11ContractObjINtNtNtNtCseUmQFO6d1K9_22multiversx_sc_scenario3api7impl_vh12vm_hooks_api10VMHooksApiNtNtBR_9debug_api15DebugApiBackendEENtB5_13LiquidStaking8withdrawCsVH6ELXPoQD_15unDelegate_test
FNDA:0,_RNvYINtCs2WGRDwQOHLQ_14liquid_staking11ContractObjINtNtNtNtCseUmQFO6d1K9_22multiversx_sc_scenario3api7impl_vh12vm_hooks_api10VMHooksApiNtNtBR_9debug_api15DebugApiBackendEENtB5_16EndpointWrappers13call_delegateCsVH6ELXPoQD_15unDelegate_test
FNDA:0,_RNvYINtCs2WGRDwQOHLQ_14liquid_staking11ContractObjINtNtNtNtCseUmQFO6d1K9_22multiversx_sc_scenario3api7impl_vh12vm_hooks_api10VMHooksApiNtNtBR_9debug_api15DebugApiBackendEENtB5_16EndpointWrappers13call_withdrawCsVH6ELXPoQD_15unDelegate_test
FNDA:0,_RNvYINtCs2WGRDwQOHLQ_14liquid_staking11ContractObjINtNtNtNtCseUmQFO6d1K9_22multiversx_sc_scenario3api7impl_vh12vm_hooks_api10VMHooksApiNtNtBR_9debug_api15DebugApiBackendEENtB5_16EndpointWrappers16call_un_delegateCsVH6ELXPoQD_15unDelegate_test
FNDA:0,_RNvYINtCs2WGRDwQOHLQ_14liquid_staking11ContractObjINtNtNtNtCseUmQFO6d1K9_22multiversx_sc_scenario3api7impl_vh12vm_hooks_api10VMHooksApiNtNtBR_9debug_api15DebugApiBackendEENtB5_16EndpointWrappers17callback_selectorCsVH6ELXPoQD_15unDelegate_test
FNDA:5,_RNvYINtCs2WGRDwQOHLQ_14liquid_staking11ContractObjINtNtNtNtCseUmQFO6d1K9_22multiversx_sc_scenario3api7impl_vh12vm_hooks_api10VMHooksApiNtNtBR_9debug_api15DebugApiBackendEENtB5_16EndpointWrappers4callCsVH6ELXPoQD_15unDelegate_test
FNDA:0,_RNvYINtCs2WGRDwQOHLQ_14liquid_staking11ContractObjINtNtNtNtCseUmQFO6d1K9_22multiversx_sc_scenario3api7impl_vh12vm_hooks_api10VMHooksApiNtNtBR_9debug_api15DebugApiBackendEENtB5_16EndpointWrappers8callbackCsVH6ELXPoQD_15unDelegate_test
FNDA:0,_RNvYINtCs2WGRDwQOHLQ_14liquid_staking11ContractObjINtNtNtNtCseUmQFO6d1K9_22multiversx_sc_scenario3api7impl_vh12vm_hooks_api10VMHooksApiNtNtBR_9debug_api15DebugApiBackendEENtB5_16EndpointWrappers9call_initCsVH6ELXPoQD_15unDelegate_test
FNDA:66,_RINvCs2WGRDwQOHLQ_14liquid_staking12contract_objINtNtNtNtCseUmQFO6d1K9_22multiversx_sc_scenario3api7impl_vh12vm_hooks_api10VMHooksApiNtNtBP_9debug_api15DebugApiBackendEECshHwHQpnfuGH_11unbond_test
FNDA:14,_RNvXsv_Cs2WGRDwQOHLQ_14liquid_stakingINtB5_11ContractObjINtNtNtNtCseUmQFO6d1K9_22multiversx_sc_scenario3api7impl_vh12vm_hooks_api10VMHooksApiNtNtBX_9debug_api15DebugApiBackendEENtNtNtCs4WmCETBkTZ5_13multiversx_sc13contract_base17callable_contract16CallableContract4callCshHwHQpnfuGH_11unbond_test
FNDA:5,_RNvYINtCs2WGRDwQOHLQ_14liquid_staking11ContractObjINtNtNtNtCseUmQFO6d1K9_22multiversx_sc_scenario3api7impl_vh12vm_hooks_api10VMHooksApiNtNtBR_9debug_api15DebugApiBackendEENtB5_13LiquidStaking11un_delegateCshHwHQpnfuGH_11unbond_test
FNDA:5,_RNvYINtCs2WGRDwQOHLQ_14liquid_staking11ContractObjINtNtNtNtCseUmQFO6d1K9_22multiversx_sc_scenario3api7impl_vh12vm_hooks_api10VMHooksApiNtNtBR_9debug_api15DebugApiBackendEENtB5_13LiquidStaking4initCshHwHQpnfuGH_11unbond_test
FNDA:5,_RNvYINtCs2WGRDwQOHLQ_14liquid_staking11ContractObjINtNtNtNtCseUmQFO6d1K9_22multiversx_sc_scenario3api7impl_vh12vm_hooks_api10VMHooksApiNtNtBR_9debug_api15DebugApiBackendEENtB5_13LiquidStaking8delegateCshHwHQpnfuGH_11unbond_test
FNDA:5,_RNvYINtCs2WGRDwQOHLQ_14liquid_staking11ContractObjINtNtNtNtCseUmQFO6d1K9_22multiversx_sc_scenario3api7impl_vh12vm_hooks_api10VMHooksApiNtNtBR_9debug_api15DebugApiBackendEENtB5_13LiquidStaking8withdrawCshHwHQpnfuGH_11unbond_test
FNDA:0,_RNvYINtCs2WGRDwQOHLQ_14liquid_staking11ContractObjINtNtNtNtCseUmQFO6d1K9_22multiversx_sc_scenario3api7impl_vh12vm_hooks_api10VMHooksApiNtNtBR_9debug_api15DebugApiBackendEENtB5_16EndpointWrappers13call_delegateCshHwHQpnfuGH_11unbond_test
FNDA:0,_RNvYINtCs2WGRDwQOHLQ_14liquid_staking11ContractObjINtNtNtNtCseUmQFO6d1K9_22multiversx_sc_scenario3api7impl_vh12vm_hooks_api10VMHooksApiNtNtBR_9debug_api15DebugApiBackendEENtB5_16EndpointWrappers13call_withdrawCshHwHQpnfuGH_11unbond_test
FNDA:0,_RNvYINtCs2WGRDwQOHLQ_14liquid_staking11ContractObjINtNtNtNtCseUmQFO6d1K9_22multiversx_sc_scenario3api7impl_vh12vm_hooks_api10VMHooksApiNtNtBR_9debug_api15DebugApiBackendEENtB5_16EndpointWrappers16call_un_delegateCshHwHQpnfuGH_11unbond_test
FNDA:0,_RNvYINtCs2WGRDwQOHLQ_14liquid_staking11ContractObjINtNtNtNtCseUmQFO6d1K9_22multiversx_sc_scenario3api7impl_vh12vm_hooks_api10VMHooksApiNtNtBR_9debug_api15DebugApiBackendEENtB5_16EndpointWrappers17callback_selectorCshHwHQpnfuGH_11unbond_test
FNDA:14,_RNvYINtCs2WGRDwQOHLQ_14liquid_staking11ContractObjINtNtNtNtCseUmQFO6d1K9_22multiversx_sc_scenario3api7impl_vh12vm_hooks_api10VMHooksApiNtNtBR_9debug_api15DebugApiBackendEENtB5_16EndpointWrappers4callCshHwHQpnfuGH_11unbond_test
FNDA:0,_RNvYINtCs2WGRDwQOHLQ_14liquid_staking11ContractObjINtNtNtNtCseUmQFO6d1K9_22multiversx_sc_scenario3api7impl_vh12vm_hooks_api10VMHooksApiNtNtBR_9debug_api15DebugApiBackendEENtB5_16EndpointWrappers8callbackCshHwHQpnfuGH_11unbond_test
FNDA:0,_RNvYINtCs2WGRDwQOHLQ_14liquid_staking11ContractObjINtNtNtNtCseUmQFO6d1K9_22multiversx_sc_scenario3api7impl_vh12vm_hooks_api10VMHooksApiNtNtBR_9debug_api15DebugApiBackendEENtB5_16EndpointWrappers9call_initCshHwHQpnfuGH_11unbond_test
FNF:5
FNH:5
DA:37,51
DA:60,23
DA:61,23
DA:62,23
DA:63,23
DA:64,23
DA:65,23
DA:66,23
DA:67,23
DA:68,23
DA:69,23
DA:70,23
DA:71,23
DA:72,23
DA:73,23
DA:74,23
DA:75,23
DA:76,23
DA:81,34
DA:82,34
DA:83,34
DA:84,34
DA:85,34
DA:86,34
DA:87,34
DA:88,34
DA:89,34
DA:90,34
DA:91,34
DA:92,34
DA:93,34
DA:94,34
DA:95,34
DA:96,34
DA:97,34
DA:98,34
DA:99,34
DA:100,34
DA:101,34
DA:102,34
DA:103,34
DA:104,34
DA:105,34
DA:106,34
DA:111,19
DA:112,19
DA:113,19
DA:114,19
DA:115,19
DA:116,19
DA:117,19
DA:118,19
DA:119,19
DA:120,19
DA:121,19
DA:122,19
DA:123,19
DA:124,19
DA:125,19
DA:126,19
DA:127,19
DA:128,19
DA:129,19
DA:130,19
DA:131,19
DA:132,19
DA:133,18
DA:134,18
DA:136,19
DA:137,19
DA:138,19
DA:143,7
DA:144,7
DA:145,7
DA:146,7
DA:147,7
DA:148,7
DA:149,7
DA:150,1
DA:153,6
DA:154,6
DA:155,0
DA:158,6
DA:160,5
DA:161,5
DA:162,5
DA:163,5
DA:164,5
DA:165,5
DA:166,5
DA:167,5
DA:168,1
DA:171,4
DA:172,4
DA:173,1
DA:176,3
DA:177,3
DA:178,3
DA:179,3
DA:180,3
BRF:0
BRH:0
LF:100
LH:99
end_of_record
SF:/Users/mihaieremia/GitHub/rs-egld-liquid-staking/liquid-staking/src/liquidity_pool.rs
FN:89,_RINvYINtCs2WGRDwQOHLQ_14liquid_staking11ContractObjINtNtNtNtCseUmQFO6d1K9_22multiversx_sc_scenario3api7impl_vh12vm_hooks_api10VMHooksApiNtNtBS_9debug_api15DebugApiBackendEENtNtB6_14liquidity_pool19LiquidityPoolModule19mint_unstake_tokensNtNtB6_7structs22UnstakeTokenAttributesECskEhliFuVTlV_13delegate_test
FN:13,_RNvYINtCs2WGRDwQOHLQ_14liquid_staking11ContractObjINtNtNtNtCseUmQFO6d1K9_22multiversx_sc_scenario3api7impl_vh12vm_hooks_api10VMHooksApiNtNtBR_9debug_api15DebugApiBackendEENtNtB5_14liquidity_pool16EndpointWrappers17callback_selectorCskEhliFuVTlV_13delegate_test
FN:13,_RNvYINtCs2WGRDwQOHLQ_14liquid_staking11ContractObjINtNtNtNtCseUmQFO6d1K9_22multiversx_sc_scenario3api7impl_vh12vm_hooks_api10VMHooksApiNtNtBR_9debug_api15DebugApiBackendEENtNtB5_14liquidity_pool16EndpointWrappers4callCskEhliFuVTlV_13delegate_test
FN:13,_RNvYINtCs2WGRDwQOHLQ_14liquid_staking11ContractObjINtNtNtNtCseUmQFO6d1K9_22multiversx_sc_scenario3api7impl_vh12vm_hooks_api10VMHooksApiNtNtBR_9debug_api15DebugApiBackendEENtNtB5_14liquidity_pool16EndpointWrappers8callbackCskEhliFuVTlV_13delegate_test
FN:80,_RNvYINtCs2WGRDwQOHLQ_14liquid_staking11ContractObjINtNtNtNtCseUmQFO6d1K9_22multiversx_sc_scenario3api7impl_vh12vm_hooks_api10VMHooksApiNtNtBR_9debug_api15DebugApiBackendEENtNtB5_14liquidity_pool19LiquidityPoolModule13burn_ls_tokenCskEhliFuVTlV_13delegate_test
FN:63,_RNvYINtCs2WGRDwQOHLQ_14liquid_staking11ContractObjINtNtNtNtCseUmQFO6d1K9_22multiversx_sc_scenario3api7impl_vh12vm_hooks_api10VMHooksApiNtNtBR_9debug_api15DebugApiBackendEENtNtB5_14liquidity_pool19LiquidityPoolModule13get_ls_amountCskEhliFuVTlV_13delegate_test
FN:76,_RNvYINtCs2WGRDwQOHLQ_14liquid_staking11ContractObjINtNtNtNtCseUmQFO6d1K9_22multiversx_sc_scenario3api7impl_vh12vm_hooks_api10VMHooksApiNtNtBR_9debug_api15DebugApiBackendEENtNtB5_14liquidity_pool19LiquidityPoolModule13mint_ls_tokenCskEhliFuVTlV_13delegate_test
FN:45,_RNvYINtCs2WGRDwQOHLQ_14liquid_staking11ContractObjINtNtNtNtCseUmQFO6d1K9_22multiversx_sc_scenario3api7impl_vh12vm_hooks_api10VMHooksApiNtNtBR_9debug_api15DebugApiBackendEENtNtB5_14liquidity_pool19LiquidityPoolModule15get_egld_amountCskEhliFuVTlV_13delegate_test
FN:109,_RNvYINtCs2WGRDwQOHLQ_14liquid_staking11ContractObjINtNtNtNtCseUmQFO6d1K9_22multiversx_sc_scenario3api7impl_vh12vm_hooks_api10VMHooksApiNtNtBR_9debug_api15DebugApiBackendEENtNtB5_14liquidity_pool19LiquidityPoolModule17undelegate_amountCskEhliFuVTlV_13delegate_test
FN:19,_RNvYINtCs2WGRDwQOHLQ_14liquid_staking11ContractObjINtNtNtNtCseUmQFO6d1K9_22multiversx_sc_scenario3api7impl_vh12vm_hooks_api10VMHooksApiNtNtBR_9debug_api15DebugApiBackendEENtNtB5_14liquidity_pool19LiquidityPoolModule18pool_add_liquidityCskEhliFuVTlV_13delegate_test
FN:105,_RNvYINtCs2WGRDwQOHLQ_14liquid_staking11ContractObjINtNtNtNtCseUmQFO6d1K9_22multiversx_sc_scenario3api7impl_vh12vm_hooks_api10VMHooksApiNtNtBR_9debug_api15DebugApiBackendEENtNtB5_14liquidity_pool19LiquidityPoolModule19burn_unstake_tokensCskEhliFuVTlV_13delegate_test
FN:32,_RNvYINtCs2WGRDwQOHLQ_14liquid_staking11ContractObjINtNtNtNtCseUmQFO6d1K9_22multiversx_sc_scenario3api7impl_vh12vm_hooks_api10VMHooksApiNtNtBR_9debug_api15DebugApiBackendEENtNtB5_14liquidity_pool19LiquidityPoolModule21pool_remove_liquidityCskEhliFuVTlV_13delegate_test
FN:19,_RNvYpNtNtCsdRzYvL09OST_14liquid_staking14liquidity_pool19LiquidityPoolModule18pool_add_liquidityB7_
FN:32,_RNvYpNtNtCsdRzYvL09OST_14liquid_staking14liquidity_pool19LiquidityPoolModule21pool_remove_liquidityB7_
FN:45,_RNvYpNtNtCsdRzYvL09OST_14liquid_staking14liquidity_pool19LiquidityPoolModule15get_egld_amountB7_
FN:63,_RNvYpNtNtCsdRzYvL09OST_14liquid_staking14liquidity_pool19LiquidityPoolModule13get_ls_amountB7_
FN:76,_RNvYpNtNtCsdRzYvL09OST_14liquid_staking14liquidity_pool19LiquidityPoolModule13mint_ls_tokenB7_
FN:80,_RNvYpNtNtCsdRzYvL09OST_14liquid_staking14liquidity_pool19LiquidityPoolModule13burn_ls_tokenB7_
FN:89,_RINvYpNtNtCsdRzYvL09OST_14liquid_staking14liquidity_pool19LiquidityPoolModule19mint_unstake_tokenspEB8_
FN:105,_RNvYpNtNtCsdRzYvL09OST_14liquid_staking14liquidity_pool19LiquidityPoolModule19burn_unstake_tokensB7_
FN:109,_RNvYpNtNtCsdRzYvL09OST_14liquid_staking14liquidity_pool19LiquidityPoolModule17undelegate_amountB7_
FN:13,_RNvYpNtNtCsdRzYvL09OST_14liquid_staking14liquidity_pool16EndpointWrappers4callB7_
FN:13,_RNvYpNtNtCsdRzYvL09OST_14liquid_staking14liquidity_pool16EndpointWrappers17callback_selectorB7_
FN:13,_RNvYpNtNtCsdRzYvL09OST_14liquid_staking14liquidity_pool16EndpointWrappers8callbackB7_
FN:13,_RNvXs1_NtCsdRzYvL09OST_14liquid_staking14liquidity_poolNtB5_11AbiProviderNtNtNtCs4WmCETBkTZ5_13multiversx_sc13contract_base21contract_abi_provider19ContractAbiProvider3abi
FN:13,_RNvXININtCsdRzYvL09OST_14liquid_staking14liquidity_pools7_0pEINtB5_11ContractObjpENtNtNtCs4WmCETBkTZ5_13multiversx_sc13contract_base17callable_contract16CallableContract4callB7_
FN:13,_RINvNtCsdRzYvL09OST_14liquid_staking14liquidity_pool12contract_objpEB4_
FN:13,_RINvXs8_NtCsdRzYvL09OST_14liquid_staking14liquidity_poolNtB6_15ContractBuilderNtNtNtCs4WmCETBkTZ5_13multiversx_sc13contract_base17callable_contract23CallableContractBuilder16new_contract_objpEB8_
FN:89,_RINvYINtCs2WGRDwQOHLQ_14liquid_staking11ContractObjINtNtNtNtCseUmQFO6d1K9_22multiversx_sc_scenario3api7impl_vh12vm_hooks_api10VMHooksApiNtNtBS_9debug_api15DebugApiBackendEENtNtB6_14liquidity_pool19LiquidityPoolModule19mint_unstake_tokensNtNtB6_7structs22UnstakeTokenAttributesECsaR2MVHtCDM0_4test
FN:13,_RNvYINtCs2WGRDwQOHLQ_14liquid_staking11ContractObjINtNtNtNtCseUmQFO6d1K9_22multiversx_sc_scenario3api7impl_vh12vm_hooks_api10VMHooksApiNtNtBR_9debug_api15DebugApiBackendEENtNtB5_14liquidity_pool16EndpointWrappers17callback_selectorCsaR2MVHtCDM0_4test
FN:13,_RNvYINtCs2WGRDwQOHLQ_14liquid_staking11ContractObjINtNtNtNtCseUmQFO6d1K9_22multiversx_sc_scenario3api7impl_vh12vm_hooks_api10VMHooksApiNtNtBR_9debug_api15DebugApiBackendEENtNtB5_14liquidity_pool16EndpointWrappers4callCsaR2MVHtCDM0_4test
FN:13,_RNvYINtCs2WGRDwQOHLQ_14liquid_staking11ContractObjINtNtNtNtCseUmQFO6d1K9_22multiversx_sc_scenario3api7impl_vh12vm_hooks_api10VMHooksApiNtNtBR_9debug_api15DebugApiBackendEENtNtB5_14liquidity_pool16EndpointWrappers8callbackCsaR2MVHtCDM0_4test
FN:80,_RNvYINtCs2WGRDwQOHLQ_14liquid_staking11ContractObjINtNtNtNtCseUmQFO6d1K9_22multiversx_sc_scenario3api7impl_vh12vm_hooks_api10VMHooksApiNtNtBR_9debug_api15DebugApiBackendEENtNtB5_14liquidity_pool19LiquidityPoolModule13burn_ls_tokenCsaR2MVHtCDM0_4test
FN:63,_RNvYINtCs2WGRDwQOHLQ_14liquid_staking11ContractObjINtNtNtNtCseUmQFO6d1K9_22multiversx_sc_scenario3api7impl_vh12vm_hooks_api10VMHooksApiNtNtBR_9debug_api15DebugApiBackendEENtNtB5_14liquidity_pool19LiquidityPoolModule13get_ls_amountCsaR2MVHtCDM0_4test
FN:76,_RNvYINtCs2WGRDwQOHLQ_14liquid_staking11ContractObjINtNtNtNtCseUmQFO6d1K9_22multiversx_sc_scenario3api7impl_vh12vm_hooks_api10VMHooksApiNtNtBR_9debug_api15DebugApiBackendEENtNtB5_14liquidity_pool19LiquidityPoolModule13mint_ls_tokenCsaR2MVHtCDM0_4test
FN:45,_RNvYINtCs2WGRDwQOHLQ_14liquid_staking11ContractObjINtNtNtNtCseUmQFO6d1K9_22multiversx_sc_scenario3api7impl_vh12vm_hooks_api10VMHooksApiNtNtBR_9debug_api15DebugApiBackendEENtNtB5_14liquidity_pool19LiquidityPoolModule15get_egld_amountCsaR2MVHtCDM0_4test
FN:109,_RNvYINtCs2WGRDwQOHLQ_14liquid_staking11ContractObjINtNtNtNtCseUmQFO6d1K9_22multiversx_sc_scenario3api7impl_vh12vm_hooks_api10VMHooksApiNtNtBR_9debug_api15DebugApiBackendEENtNtB5_14liquidity_pool19LiquidityPoolModule17undelegate_amountCsaR2MVHtCDM0_4test
FN:19,_RNvYINtCs2WGRDwQOHLQ_14liquid_staking11ContractObjINtNtNtNtCseUmQFO6d1K9_22multiversx_sc_scenario3api7impl_vh12vm_hooks_api10VMHooksApiNtNtBR_9debug_api15DebugApiBackendEENtNtB5_14liquidity_pool19LiquidityPoolModule18pool_add_liquidityCsaR2MVHtCDM0_4test
FN:105,_RNvYINtCs2WGRDwQOHLQ_14liquid_staking11ContractObjINtNtNtNtCseUmQFO6d1K9_22multiversx_sc_scenario3api7impl_vh12vm_hooks_api10VMHooksApiNtNtBR_9debug_api15DebugApiBackendEENtNtB5_14liquidity_pool19LiquidityPoolModule19burn_unstake_tokensCsaR2MVHtCDM0_4test
FN:32,_RNvYINtCs2WGRDwQOHLQ_14liquid_staking11ContractObjINtNtNtNtCseUmQFO6d1K9_22multiversx_sc_scenario3api7impl_vh12vm_hooks_api10VMHooksApiNtNtBR_9debug_api15DebugApiBackendEENtNtB5_14liquidity_pool19LiquidityPoolModule21pool_remove_liquidityCsaR2MVHtCDM0_4test
FN:89,_RINvYINtCs2WGRDwQOHLQ_14liquid_staking11ContractObjINtNtNtNtCseUmQFO6d1K9_22multiversx_sc_scenario3api7impl_vh12vm_hooks_api10VMHooksApiNtNtBS_9debug_api15DebugApiBackendEENtNtB6_14liquidity_pool19LiquidityPoolModule19mint_unstake_tokensNtNtB6_7structs22UnstakeTokenAttributesECsVH6ELXPoQD_15unDelegate_test
FN:13,_RNvYINtCs2WGRDwQOHLQ_14liquid_staking11ContractObjINtNtNtNtCseUmQFO6d1K9_22multiversx_sc_scenario3api7impl_vh12vm_hooks_api10VMHooksApiNtNtBR_9debug_api15DebugApiBackendEENtNtB5_14liquidity_pool16EndpointWrappers17callback_selectorCsVH6ELXPoQD_15unDelegate_test
FN:13,_RNvYINtCs2WGRDwQOHLQ_14liquid_staking11ContractObjINtNtNtNtCseUmQFO6d1K9_22multiversx_sc_scenario3api7impl_vh12vm_hooks_api10VMHooksApiNtNtBR_9debug_api15DebugApiBackendEENtNtB5_14liquidity_pool16EndpointWrappers4callCsVH6ELXPoQD_15unDelegate_test
FN:13,_RNvYINtCs2WGRDwQOHLQ_14liquid_staking11ContractObjINtNtNtNtCseUmQFO6d1K9_22multiversx_sc_scenario3api7impl_vh12vm_hooks_api10VMHooksApiNtNtBR_9debug_api15DebugApiBackendEENtNtB5_14liquidity_pool16EndpointWrappers8callbackCsVH6ELXPoQD_15unDelegate_test
FN:80,_RNvYINtCs2WGRDwQOHLQ_14liquid_staking11ContractObjINtNtNtNtCseUmQFO6d1K9_22multiversx_sc_scenario3api7impl_vh12vm_hooks_api10VMHooksApiNtNtBR_9debug_api15DebugApiBackendEENtNtB5_14liquidity_pool19LiquidityPoolModule13burn_ls_tokenCsVH6ELXPoQD_15unDelegate_test
FN:63,_RNvYINtCs2WGRDwQOHLQ_14liquid_staking11ContractObjINtNtNtNtCseUmQFO6d1K9_22multiversx_sc_scenario3api7impl_vh12vm_hooks_api10VMHooksApiNtNtBR_9debug_api15DebugApiBackendEENtNtB5_14liquidity_pool19LiquidityPoolModule13get_ls_amountCsVH6ELXPoQD_15unDelegate_test
FN:76,_RNvYINtCs2WGRDwQOHLQ_14liquid_staking11ContractObjINtNtNtNtCseUmQFO6d1K9_22multiversx_sc_scenario3api7impl_vh12vm_hooks_api10VMHooksApiNtNtBR_9debug_api15DebugApiBackendEENtNtB5_14liquidity_pool19LiquidityPoolModule13mint_ls_tokenCsVH6ELXPoQD_15unDelegate_test
FN:45,_RNvYINtCs2WGRDwQOHLQ_14liquid_staking11ContractObjINtNtNtNtCseUmQFO6d1K9_22multiversx_sc_scenario3api7impl_vh12vm_hooks_api10VMHooksApiNtNtBR_9debug_api15DebugApiBackendEENtNtB5_14liquidity_pool19LiquidityPoolModule15get_egld_amountCsVH6ELXPoQD_15unDelegate_test
FN:109,_RNvYINtCs2WGRDwQOHLQ_14liquid_staking11ContractObjINtNtNtNtCseUmQFO6d1K9_22multiversx_sc_scenario3api7impl_vh12vm_hooks_api10VMHooksApiNtNtBR_9debug_api15DebugApiBackendEENtNtB5_14liquidity_pool19LiquidityPoolModule17undelegate_amountCsVH6ELXPoQD_15unDelegate_test
FN:19,_RNvYINtCs2WGRDwQOHLQ_14liquid_staking11ContractObjINtNtNtNtCseUmQFO6d1K9_22multiversx_sc_scenario3api7impl_vh12vm_hooks_api10VMHooksApiNtNtBR_9debug_api15DebugApiBackendEENtNtB5_14liquidity_pool19LiquidityPoolModule18pool_add_liquidityCsVH6ELXPoQD_15unDelegate_test
FN:105,_RNvYINtCs2WGRDwQOHLQ_14liquid_staking11ContractObjINtNtNtNtCseUmQFO6d1K9_22multiversx_sc_scenario3api7impl_vh12vm_hooks_api10VMHooksApiNtNtBR_9debug_api15DebugApiBackendEENtNtB5_14liquidity_pool19LiquidityPoolModule19burn_unstake_tokensCsVH6ELXPoQD_15unDelegate_test
FN:32,_RNvYINtCs2WGRDwQOHLQ_14liquid_staking11ContractObjINtNtNtNtCseUmQFO6d1K9_22multiversx_sc_scenario3api7impl_vh12vm_hooks_api10VMHooksApiNtNtBR_9debug_api15DebugApiBackendEENtNtB5_14liquidity_pool19LiquidityPoolModule21pool_remove_liquidityCsVH6ELXPoQD_15unDelegate_test
FN:89,_RINvYINtCs2WGRDwQOHLQ_14liquid_staking11ContractObjINtNtNtNtCseUmQFO6d1K9_22multiversx_sc_scenario3api7impl_vh12vm_hooks_api10VMHooksApiNtNtBS_9debug_api15DebugApiBackendEENtNtB6_14liquidity_pool19LiquidityPoolModule19mint_unstake_tokensNtNtB6_7structs22UnstakeTokenAttributesECshHwHQpnfuGH_11unbond_test
FN:13,_RNvYINtCs2WGRDwQOHLQ_14liquid_staking11ContractObjINtNtNtNtCseUmQFO6d1K9_22multiversx_sc_scenario3api7impl_vh12vm_hooks_api10VMHooksApiNtNtBR_9debug_api15DebugApiBackendEENtNtB5_14liquidity_pool16EndpointWrappers17callback_selectorCshHwHQpnfuGH_11unbond_test
FN:13,_RNvYINtCs2WGRDwQOHLQ_14liquid_staking11ContractObjINtNtNtNtCseUmQFO6d1K9_22multiversx_sc_scenario3api7impl_vh12vm_hooks_api10VMHooksApiNtNtBR_9debug_api15DebugApiBackendEENtNtB5_14liquidity_pool16EndpointWrappers4callCshHwHQpnfuGH_11unbond_test
FN:13,_RNvYINtCs2WGRDwQOHLQ_14liquid_staking11ContractObjINtNtNtNtCseUmQFO6d1K9_22multiversx_sc_scenario3api7impl_vh12vm_hooks_api10VMHooksApiNtNtBR_9debug_api15DebugApiBackendEENtNtB5_14liquidity_pool16EndpointWrappers8callbackCshHwHQpnfuGH_11unbond_test
FN:80,_RNvYINtCs2WGRDwQOHLQ_14liquid_staking11ContractObjINtNtNtNtCseUmQFO6d1K9_22multiversx_sc_scenario3api7impl_vh12vm_hooks_api10VMHooksApiNtNtBR_9debug_api15DebugApiBackendEENtNtB5_14liquidity_pool19LiquidityPoolModule13burn_ls_tokenCshHwHQpnfuGH_11unbond_test
FN:63,_RNvYINtCs2WGRDwQOHLQ_14liquid_staking11ContractObjINtNtNtNtCseUmQFO6d1K9_22multiversx_sc_scenario3api7impl_vh12vm_hooks_api10VMHooksApiNtNtBR_9debug_api15DebugApiBackendEENtNtB5_14liquidity_pool19LiquidityPoolModule13get_ls_amountCshHwHQpnfuGH_11unbond_test
FN:76,_RNvYINtCs2WGRDwQOHLQ_14liquid_staking11ContractObjINtNtNtNtCseUmQFO6d1K9_22multiversx_sc_scenario3api7impl_vh12vm_hooks_api10VMHooksApiNtNtBR_9debug_api15DebugApiBackendEENtNtB5_14liquidity_pool19LiquidityPoolModule13mint_ls_tokenCshHwHQpnfuGH_11unbond_test
FN:45,_RNvYINtCs2WGRDwQOHLQ_14liquid_staking11ContractObjINtNtNtNtCseUmQFO6d1K9_22multiversx_sc_scenario3api7impl_vh12vm_hooks_api10VMHooksApiNtNtBR_9debug_api15DebugApiBackendEENtNtB5_14liquidity_pool19LiquidityPoolModule15get_egld_amountCshHwHQpnfuGH_11unbond_test
FN:109,_RNvYINtCs2WGRDwQOHLQ_14liquid_staking11ContractObjINtNtNtNtCseUmQFO6d1K9_22multiversx_sc_scenario3api7impl_vh12vm_hooks_api10VMHooksApiNtNtBR_9debug_api15DebugApiBackendEENtNtB5_14liquidity_pool19LiquidityPoolModule17undelegate_amountCshHwHQpnfuGH_11unbond_test
FN:19,_RNvYINtCs2WGRDwQOHLQ_14liquid_staking11ContractObjINtNtNtNtCseUmQFO6d1K9_22multiversx_sc_scenario3api7impl_vh12vm_hooks_api10VMHooksApiNtNtBR_9debug_api15DebugApiBackendEENtNtB5_14liquidity_pool19LiquidityPoolModule18pool_add_liquidityCshHwHQpnfuGH_11unbond_test
FN:105,_RNvYINtCs2WGRDwQOHLQ_14liquid_staking11ContractObjINtNtNtNtCseUmQFO6d1K9_22multiversx_sc_scenario3api7impl_vh12vm_hooks_api10VMHooksApiNtNtBR_9debug_api15DebugApiBackendEENtNtB5_14liquidity_pool19LiquidityPoolModule19burn_unstake_tokensCshHwHQpnfuGH_11unbond_test
FN:32,_RNvYINtCs2WGRDwQOHLQ_14liquid_staking11ContractObjINtNtNtNtCseUmQFO6d1K9_22multiversx_sc_scenario3api7impl_vh12vm_hooks_api10VMHooksApiNtNtBR_9debug_api15DebugApiBackendEENtNtB5_14liquidity_pool19LiquidityPoolModule21pool_remove_liquidityCshHwHQpnfuGH_11unbond_test
FNDA:4,_RINvYINtCs2WGRDwQOHLQ_14liquid_staking11ContractObjINtNtNtNtCseUmQFO6d1K9_22multiversx_sc_scenario3api7impl_vh12vm_hooks_api10VMHooksApiNtNtBS_9debug_api15DebugApiBackendEENtNtB6_14liquidity_pool19LiquidityPoolModule19mint_unstake_tokensNtNtB6_7structs22UnstakeTokenAttributesECskEhliFuVTlV_13delegate_test
FNDA:0,_RNvYINtCs2WGRDwQOHLQ_14liquid_staking11ContractObjINtNtNtNtCseUmQFO6d1K9_22multiversx_sc_scenario3api7impl_vh12vm_hooks_api10VMHooksApiNtNtBR_9debug_api15DebugApiBackendEENtNtB5_14liquidity_pool16EndpointWrappers17callback_selectorCskEhliFuVTlV_13delegate_test
FNDA:8,_RNvYINtCs2WGRDwQOHLQ_14liquid_staking11ContractObjINtNtNtNtCseUmQFO6d1K9_22multiversx_sc_scenario3api7impl_vh12vm_hooks_api10VMHooksApiNtNtBR_9debug_api15DebugApiBackendEENtNtB5_14liquidity_pool16EndpointWrappers4callCskEhliFuVTlV_13delegate_test
FNDA:0,_RNvYINtCs2WGRDwQOHLQ_14liquid_staking11ContractObjINtNtNtNtCseUmQFO6d1K9_22multiversx_sc_scenario3api7impl_vh12vm_hooks_api10VMHooksApiNtNtBR_9debug_api15DebugApiBackendEENtNtB5_14liquidity_pool16EndpointWrappers8callbackCskEhliFuVTlV_13delegate_test
FNDA:0,_RNvYINtCs2WGRDwQOHLQ_14liquid_staking11ContractObjINtNtNtNtCseUmQFO6d1K9_22multiversx_sc_scenario3api7impl_vh12vm_hooks_api10VMHooksApiNtNtBR_9debug_api15DebugApiBackendEENtNtB5_14liquidity_pool19LiquidityPoolModule13burn_ls_tokenCskEhliFuVTlV_13delegate_test
FNDA:41,_RNvYINtCs2WGRDwQOHLQ_14liquid_staking11ContractObjINtNtNtNtCseUmQFO6d1K9_22multiversx_sc_scenario3api7impl_vh12vm_hooks_api10VMHooksApiNtNtBR_9debug_api15DebugApiBackendEENtNtB5_14liquidity_pool19LiquidityPoolModule13get_ls_amountCskEhliFuVTlV_13delegate_test
FNDA:11,_RNvYINtCs2WGRDwQOHLQ_14liquid_staking11ContractObjINtNtNtNtCseUmQFO6d1K9_22multiversx_sc_scenario3api7impl_vh12vm_hooks_api10VMHooksApiNtNtBR_9debug_api15DebugApiBackendEENtNtB5_14liquidity_pool19LiquidityPoolModule13mint_ls_tokenCskEhliFuVTlV_13delegate_test
FNDA:7,_RNvYINtCs2WGRDwQOHLQ_14liquid_staking11ContractObjINtNtNtNtCseUmQFO6d1K9_22multiversx_sc_scenario3api7impl_vh12vm_hooks_api10VMHooksApiNtNtBR_9debug_api15DebugApiBackendEENtNtB5_14liquidity_pool19LiquidityPoolModule15get_egld_amountCskEhliFuVTlV_13delegate_test
FNDA:4,_RNvYINtCs2WGRDwQOHLQ_14liquid_staking11ContractObjINtNtNtNtCseUmQFO6d1K9_22multiversx_sc_scenario3api7impl_vh12vm_hooks_api10VMHooksApiNtNtBR_9debug_api15DebugApiBackendEENtNtB5_14liquidity_pool19LiquidityPoolModule17undelegate_amountCskEhliFuVTlV_13delegate_test
FNDA:11,_RNvYINtCs2WGRDwQOHLQ_14liquid_staking11ContractObjINtNtNtNtCseUmQFO6d1K9_22multiversx_sc_scenario3api7impl_vh12vm_hooks_api10VMHooksApiNtNtBR_9debug_api15DebugApiBackendEENtNtB5_14liquidity_pool19LiquidityPoolModule18pool_add_liquidityCskEhliFuVTlV_13delegate_test
FNDA:0,_RNvYINtCs2WGRDwQOHLQ_14liquid_staking11ContractObjINtNtNtNtCseUmQFO6d1K9_22multiversx_sc_scenario3api7impl_vh12vm_hooks_api10VMHooksApiNtNtBR_9debug_api15DebugApiBackendEENtNtB5_14liquidity_pool19LiquidityPoolModule19burn_unstake_tokensCskEhliFuVTlV_13delegate_test
FNDA:0,_RNvYINtCs2WGRDwQOHLQ_14liquid_staking11ContractObjINtNtNtNtCseUmQFO6d1K9_22multiversx_sc_scenario3api7impl_vh12vm_hooks_api10VMHooksApiNtNtBR_9debug_api15DebugApiBackendEENtNtB5_14liquidity_pool19LiquidityPoolModule21pool_remove_liquidityCskEhliFuVTlV_13delegate_test
FNDA:0,_RNvYpNtNtCsdRzYvL09OST_14liquid_staking14liquidity_pool19LiquidityPoolModule18pool_add_liquidityB7_
FNDA:0,_RNvYpNtNtCsdRzYvL09OST_14liquid_staking14liquidity_pool19LiquidityPoolModule21pool_remove_liquidityB7_
FNDA:0,_RNvYpNtNtCsdRzYvL09OST_14liquid_staking14liquidity_pool19LiquidityPoolModule15get_egld_amountB7_
FNDA:0,_RNvYpNtNtCsdRzYvL09OST_14liquid_staking14liquidity_pool19LiquidityPoolModule13get_ls_amountB7_
FNDA:0,_RNvYpNtNtCsdRzYvL09OST_14liquid_staking14liquidity_pool19LiquidityPoolModule13mint_ls_tokenB7_
FNDA:0,_RNvYpNtNtCsdRzYvL09OST_14liquid_staking14liquidity_pool19LiquidityPoolModule13burn_ls_tokenB7_
FNDA:0,_RINvYpNtNtCsdRzYvL09OST_14liquid_staking14liquidity_pool19LiquidityPoolModule19mint_unstake_tokenspEB8_
FNDA:0,_RNvYpNtNtCsdRzYvL09OST_14liquid_staking14liquidity_pool19LiquidityPoolModule19burn_unstake_tokensB7_
FNDA:0,_RNvYpNtNtCsdRzYvL09OST_14liquid_staking14liquidity_pool19LiquidityPoolModule17undelegate_amountB7_
FNDA:0,_RNvYpNtNtCsdRzYvL09OST_14liquid_staking14liquidity_pool16EndpointWrappers4callB7_
FNDA:0,_RNvYpNtNtCsdRzYvL09OST_14liquid_staking14liquidity_pool16EndpointWrappers17callback_selectorB7_
FNDA:0,_RNvYpNtNtCsdRzYvL09OST_14liquid_staking14liquidity_pool16EndpointWrappers8callbackB7_
FNDA:0,_RNvXs1_NtCsdRzYvL09OST_14liquid_staking14liquidity_poolNtB5_11AbiProviderNtNtNtCs4WmCETBkTZ5_13multiversx_sc13contract_base21contract_abi_provider19ContractAbiProvider3abi
FNDA:0,_RNvXININtCsdRzYvL09OST_14liquid_staking14liquidity_pools7_0pEINtB5_11ContractObjpENtNtNtCs4WmCETBkTZ5_13multiversx_sc13contract_base17callable_contract16CallableContract4callB7_
FNDA:0,_RINvNtCsdRzYvL09OST_14liquid_staking14liquidity_pool12contract_objpEB4_
FNDA:0,_RINvXs8_NtCsdRzYvL09OST_14liquid_staking14liquidity_poolNtB6_15ContractBuilderNtNtNtCs4WmCETBkTZ5_13multiversx_sc13contract_base17callable_contract23CallableContractBuilder16new_contract_objpEB8_
FNDA:5,_RINvYINtCs2WGRDwQOHLQ_14liquid_staking11ContractObjINtNtNtNtCseUmQFO6d1K9_22multiversx_sc_scenario3api7impl_vh12vm_hooks_api10VMHooksApiNtNtBS_9debug_api15DebugApiBackendEENtNtB6_14liquidity_pool19LiquidityPoolModule19mint_unstake_tokensNtNtB6_7structs22UnstakeTokenAttributesECsaR2MVHtCDM0_4test
FNDA:0,_RNvYINtCs2WGRDwQOHLQ_14liquid_staking11ContractObjINtNtNtNtCseUmQFO6d1K9_22multiversx_sc_scenario3api7impl_vh12vm_hooks_api10VMHooksApiNtNtBR_9debug_api15DebugApiBackendEENtNtB5_14liquidity_pool16EndpointWrappers17callback_selectorCsaR2MVHtCDM0_4test
FNDA:56,_RNvYINtCs2WGRDwQOHLQ_14liquid_staking11ContractObjINtNtNtNtCseUmQFO6d1K9_22multiversx_sc_scenario3api7impl_vh12vm_hooks_api10VMHooksApiNtNtBR_9debug_api15DebugApiBackendEENtNtB5_14liquidity_pool16EndpointWrappers4callCsaR2MVHtCDM0_4test
FNDA:0,_RNvYINtCs2WGRDwQOHLQ_14liquid_staking11ContractObjINtNtNtNtCseUmQFO6d1K9_22multiversx_sc_scenario3api7impl_vh12vm_hooks_api10VMHooksApiNtNtBR_9debug_api15DebugApiBackendEENtNtB5_14liquidity_pool16EndpointWrappers8callbackCsaR2MVHtCDM0_4test
FNDA:2,_RNvYINtCs2WGRDwQOHLQ_14liquid_staking11ContractObjINtNtNtNtCseUmQFO6d1K9_22multiversx_sc_scenario3api7impl_vh12vm_hooks_api10VMHooksApiNtNtBR_9debug_api15DebugApiBackendEENtNtB5_14liquidity_pool19LiquidityPoolModule13burn_ls_tokenCsaR2MVHtCDM0_4test
FNDA:29,_RNvYINtCs2WGRDwQOHLQ_14liquid_staking11ContractObjINtNtNtNtCseUmQFO6d1K9_22multiversx_sc_scenario3api7impl_vh12vm_hooks_api10VMHooksApiNtNtBR_9debug_api15DebugApiBackendEENtNtB5_14liquidity_pool19LiquidityPoolModule13get_ls_amountCsaR2MVHtCDM0_4test
FNDA:8,_RNvYINtCs2WGRDwQOHLQ_14liquid_staking11ContractObjINtNtNtNtCseUmQFO6d1K9_22multiversx_sc_scenario3api7impl_vh12vm_hooks_api10VMHooksApiNtNtBR_9debug_api15DebugApiBackendEENtNtB5_14liquidity_pool19LiquidityPoolModule13mint_ls_tokenCsaR2MVHtCDM0_4test
FNDA:7,_RNvYINtCs2WGRDwQOHLQ_14liquid_staking11ContractObjINtNtNtNtCseUmQFO6d1K9_22multiversx_sc_scenario3api7impl_vh12vm_hooks_api10VMHooksApiNtNtBR_9debug_api15DebugApiBackendEENtNtB5_14liquidity_pool19LiquidityPoolModule15get_egld_amountCsaR2MVHtCDM0_4test
FNDA:5,_RNvYINtCs2WGRDwQOHLQ_14liquid_staking11ContractObjINtNtNtNtCseUmQFO6d1K9_22multiversx_sc_scenario3api7impl_vh12vm_hooks_api10VMHooksApiNtNtBR_9debug_api15DebugApiBackendEENtNtB5_14liquidity_pool19LiquidityPoolModule17undelegate_amountCsaR2MVHtCDM0_4test
FNDA:8,_RNvYINtCs2WGRDwQOHLQ_14liquid_staking11ContractObjINtNtNtNtCseUmQFO6d1K9_22multiversx_sc_scenario3api7impl_vh12vm_hooks_api10VMHooksApiNtNtBR_9debug_api15DebugApiBackendEENtNtB5_14liquidity_pool19LiquidityPoolModule18pool_add_liquidityCsaR2MVHtCDM0_4test
FNDA:2,_RNvYINtCs2WGRDwQOHLQ_14liquid_staking11ContractObjINtNtNtNtCseUmQFO6d1K9_22multiversx_sc_scenario3api7impl_vh12vm_hooks_api10VMHooksApiNtNtBR_9debug_api15DebugApiBackendEENtNtB5_14liquidity_pool19LiquidityPoolModule19burn_unstake_tokensCsaR2MVHtCDM0_4test
FNDA:2,_RNvYINtCs2WGRDwQOHLQ_14liquid_staking11ContractObjINtNtNtNtCseUmQFO6d1K9_22multiversx_sc_scenario3api7impl_vh12vm_hooks_api10VMHooksApiNtNtBR_9debug_api15DebugApiBackendEENtNtB5_14liquidity_pool19LiquidityPoolModule21pool_remove_liquidityCsaR2MVHtCDM0_4test
FNDA:4,_RINvYINtCs2WGRDwQOHLQ_14liquid_staking11ContractObjINtNtNtNtCseUmQFO6d1K9_22multiversx_sc_scenario3api7impl_vh12vm_hooks_api10VMHooksApiNtNtBS_9debug_api15DebugApiBackendEENtNtB6_14liquidity_pool19LiquidityPoolModule19mint_unstake_tokensNtNtB6_7structs22UnstakeTokenAttributesECsVH6ELXPoQD_15unDelegate_test
FNDA:0,_RNvYINtCs2WGRDwQOHLQ_14liquid_staking11ContractObjINtNtNtNtCseUmQFO6d1K9_22multiversx_sc_scenario3api7impl_vh12vm_hooks_api10VMHooksApiNtNtBR_9debug_api15DebugApiBackendEENtNtB5_14liquidity_pool16EndpointWrappers17callback_selectorCsVH6ELXPoQD_15unDelegate_test
FNDA:10,_RNvYINtCs2WGRDwQOHLQ_14liquid_staking11ContractObjINtNtNtNtCseUmQFO6d1K9_22multiversx_sc_scenario3api7impl_vh12vm_hooks_api10VMHooksApiNtNtBR_9debug_api15DebugApiBackendEENtNtB5_14liquidity_pool16EndpointWrappers4callCsVH6ELXPoQD_15unDelegate_test
FNDA:0,_RNvYINtCs2WGRDwQOHLQ_14liquid_staking11ContractObjINtNtNtNtCseUmQFO6d1K9_22multiversx_sc_scenario3api7impl_vh12vm_hooks_api10VMHooksApiNtNtBR_9debug_api15DebugApiBackendEENtNtB5_14liquidity_pool16EndpointWrappers8callbackCsVH6ELXPoQD_15unDelegate_test
FNDA:2,_RNvYINtCs2WGRDwQOHLQ_14liquid_staking11ContractObjINtNtNtNtCseUmQFO6d1K9_22multiversx_sc_scenario3api7impl_vh12vm_hooks_api10VMHooksApiNtNtBR_9debug_api15DebugApiBackendEENtNtB5_14liquidity_pool19LiquidityPoolModule13burn_ls_tokenCsVH6ELXPoQD_15unDelegate_test
FNDA:27,_RNvYINtCs2WGRDwQOHLQ_14liquid_staking11ContractObjINtNtNtNtCseUmQFO6d1K9_22multiversx_sc_scenario3api7impl_vh12vm_hooks_api10VMHooksApiNtNtBR_9debug_api15DebugApiBackendEENtNtB5_14liquidity_pool19LiquidityPoolModule13get_ls_amountCsVH6ELXPoQD_15unDelegate_test
FNDA:7,_RNvYINtCs2WGRDwQOHLQ_14liquid_staking11ContractObjINtNtNtNtCseUmQFO6d1K9_22multiversx_sc_scenario3api7impl_vh12vm_hooks_api10VMHooksApiNtNtBR_9debug_api15DebugApiBackendEENtNtB5_14liquidity_pool19LiquidityPoolModule13mint_ls_tokenCsVH6ELXPoQD_15unDelegate_test
FNDA:7,_RNvYINtCs2WGRDwQOHLQ_14liquid_staking11ContractObjINtNtNtNtCseUmQFO6d1K9_22multiversx_sc_scenario3api7impl_vh12vm_hooks_api10VMHooksApiNtNtBR_9debug_api15DebugApiBackendEENtNtB5_14liquidity_pool19LiquidityPoolModule15get_egld_amountCsVH6ELXPoQD_15unDelegate_test
FNDA:4,_RNvYINtCs2WGRDwQOHLQ_14liquid_staking11ContractObjINtNtNtNtCseUmQFO6d1K9_22multiversx_sc_scenario3api7impl_vh12vm_hooks_api10VMHooksApiNtNtBR_9debug_api15DebugApiBackendEENtNtB5_14liquidity_pool19LiquidityPoolModule17undelegate_amountCsVH6ELXPoQD_15unDelegate_test
FNDA:7,_RNvYINtCs2WGRDwQOHLQ_14liquid_staking11ContractObjINtNtNtNtCseUmQFO6d1K9_22multiversx_sc_scenario3api7impl_vh12vm_hooks_api10VMHooksApiNtNtBR_9debug_api15DebugApiBackendEENtNtB5_14liquidity_pool19LiquidityPoolModule18pool_add_liquidityCsVH6ELXPoQD_15unDelegate_test
FNDA:0,_RNvYINtCs2WGRDwQOHLQ_14liquid_staking11ContractObjINtNtNtNtCseUmQFO6d1K9_22multiversx_sc_scenario3api7impl_vh12vm_hooks_api10VMHooksApiNtNtBR_9debug_api15DebugApiBackendEENtNtB5_14liquidity_pool19LiquidityPoolModule19burn_unstake_tokensCsVH6ELXPoQD_15unDelegate_test
FNDA:2,_RNvYINtCs2WGRDwQOHLQ_14liquid_staking11ContractObjINtNtNtNtCseUmQFO6d1K9_22multiversx_sc_scenario3api7impl_vh12vm_hooks_api10VMHooksApiNtNtBR_9debug_api15DebugApiBackendEENtNtB5_14liquidity_pool19LiquidityPoolModule21pool_remove_liquidityCsVH6ELXPoQD_15unDelegate_test
FNDA:5,_RINvYINtCs2WGRDwQOHLQ_14liquid_staking11ContractObjINtNtNtNtCseUmQFO6d1K9_22multiversx_sc_scenario3api7impl_vh12vm_hooks_api10VMHooksApiNtNtBS_9debug_api15DebugApiBackendEENtNtB6_14liquidity_pool19LiquidityPoolModule19mint_unstake_tokensNtNtB6_7structs22UnstakeTokenAttributesECshHwHQpnfuGH_11unbond_test
FNDA:0,_RNvYINtCs2WGRDwQOHLQ_14liquid_staking11ContractObjINtNtNtNtCseUmQFO6d1K9_22multiversx_sc_scenario3api7impl_vh12vm_hooks_api10VMHooksApiNtNtBR_9debug_api15DebugApiBackendEENtNtB5_14liquidity_pool16EndpointWrappers17callback_selectorCshHwHQpnfuGH_11unbond_test
FNDA:28,_RNvYINtCs2WGRDwQOHLQ_14liquid_staking11ContractObjINtNtNtNtCseUmQFO6d1K9_22multiversx_sc_scenario3api7impl_vh12vm_hooks_api10VMHooksApiNtNtBR_9debug_api15DebugApiBackendEENtNtB5_14liquidity_pool16EndpointWrappers4callCshHwHQpnfuGH_11unbond_test
FNDA:0,_RNvYINtCs2WGRDwQOHLQ_14liquid_staking11ContractObjINtNtNtNtCseUmQFO6d1K9_22multiversx_sc_scenario3api7impl_vh12vm_hooks_api10VMHooksApiNtNtBR_9debug_api15DebugApiBackendEENtNtB5_14liquidity_pool16EndpointWrappers8callbackCshHwHQpnfuGH_11unbond_test
FNDA:5,_RNvYINtCs2WGRDwQOHLQ_14liquid_staking11ContractObjINtNtNtNtCseUmQFO6d1K9_22multiversx_sc_scenario3api7impl_vh12vm_hooks_api10VMHooksApiNtNtBR_9debug_api15DebugApiBackendEENtNtB5_14liquidity_pool19LiquidityPoolModule13burn_ls_tokenCshHwHQpnfuGH_11unbond_test
FNDA:20,_RNvYINtCs2WGRDwQOHLQ_14liquid_staking11ContractObjINtNtNtNtCseUmQFO6d1K9_22multiversx_sc_scenario3api7impl_vh12vm_hooks_api10VMHooksApiNtNtBR_9debug_api15DebugApiBackendEENtNtB5_14liquidity_pool19LiquidityPoolModule13get_ls_amountCshHwHQpnfuGH_11unbond_test
FNDA:5,_RNvYINtCs2WGRDwQOHLQ_14liquid_staking11ContractObjINtNtNtNtCseUmQFO6d1K9_22multiversx_sc_scenario3api7impl_vh12vm_hooks_api10VMHooksApiNtNtBR_9debug_api15DebugApiBackendEENtNtB5_14liquidity_pool19LiquidityPoolModule13mint_ls_tokenCshHwHQpnfuGH_11unbond_test
FNDA:10,_RNvYINtCs2WGRDwQOHLQ_14liquid_staking11ContractObjINtNtNtNtCseUmQFO6d1K9_22multiversx_sc_scenario3api7impl_vh12vm_hooks_api10VMHooksApiNtNtBR_9debug_api15DebugApiBackendEENtNtB5_14liquidity_pool19LiquidityPoolModule15get_egld_amountCshHwHQpnfuGH_11unbond_test
FNDA:5,_RNvYINtCs2WGRDwQOHLQ_14liquid_staking11ContractObjINtNtNtNtCseUmQFO6d1K9_22multiversx_sc_scenario3api7impl_vh12vm_hooks_api10VMHooksApiNtNtBR_9debug_api15DebugApiBackendEENtNtB5_14liquidity_pool19LiquidityPoolModule17undelegate_amountCshHwHQpnfuGH_11unbond_test
FNDA:5,_RNvYINtCs2WGRDwQOHLQ_14liquid_staking11ContractObjINtNtNtNtCseUmQFO6d1K9_22multiversx_sc_scenario3api7impl_vh12vm_hooks_api10VMHooksApiNtNtBR_9debug_api15DebugApiBackendEENtNtB5_14liquidity_pool19LiquidityPoolModule18pool_add_liquidityCshHwHQpnfuGH_11unbond_test
FNDA:1,_RNvYINtCs2WGRDwQOHLQ_14liquid_staking11ContractObjINtNtNtNtCseUmQFO6d1K9_22multiversx_sc_scenario3api7impl_vh12vm_hooks_api10VMHooksApiNtNtBR_9debug_api15DebugApiBackendEENtNtB5_14liquidity_pool19LiquidityPoolModule19burn_unstake_tokensCshHwHQpnfuGH_11unbond_test
FNDA:5,_RNvYINtCs2WGRDwQOHLQ_14liquid_staking11ContractObjINtNtNtNtCseUmQFO6d1K9_22multiversx_sc_scenario3api7impl_vh12vm_hooks_api10VMHooksApiNtNtBR_9debug_api15DebugApiBackendEENtNtB5_14liquidity_pool19LiquidityPoolModule21pool_remove_liquidityCshHwHQpnfuGH_11unbond_test
FNF:10
FNH:10
DA:13,102
DA:19,31
DA:20,31
DA:21,31
DA:22,31
DA:23,31
DA:24,31
DA:25,31
DA:32,9
DA:33,9
DA:34,9
DA:35,9
DA:36,9
DA:37,9
DA:38,9
DA:45,31
DA:46,31
DA:47,31
DA:48,0
DA:51,31
DA:52,31
DA:53,31
DA:54,31
DA:56,31
DA:63,117
DA:64,117
DA:65,55
DA:66,55
DA:68,62
DA:71,117
DA:73,117
DA:76,31
DA:77,31
DA:80,9
DA:81,9
DA:89,18
DA:90,18
DA:91,18
DA:92,15
DA:93,15
DA:94,15
DA:95,15
DA:96,15
DA:97,15
DA:98,15
DA:100,3
DA:101,3
DA:105,3
DA:106,3
DA:109,18
DA:110,18
DA:111,18
DA:112,18
DA:113,18
DA:114,18
DA:115,18
DA:116,18
DA:117,18
DA:118,18
DA:119,18
DA:120,18
DA:121,18
BRF:0
BRH:0
LF:62
LH:61
end_of_record
SF:/Users/mihaieremia/GitHub/rs-egld-liquid-staking/liquid-staking/src/manage.rs
FN:140,_RNvYINtCs2WGRDwQOHLQ_14liquid_staking11ContractObjINtNtNtNtCseUmQFO6d1K9_22multiversx_sc_scenario3api7impl_vh12vm_hooks_api10VMHooksApiNtNtBR_9debug_api15DebugApiBackendEENtNtB5_6manage12ManageModule13claim_rewardsCskEhliFuVTlV_13delegate_test
FN:32,_RNvYINtCs2WGRDwQOHLQ_14liquid_staking11ContractObjINtNtNtNtCseUmQFO6d1K9_22multiversx_sc_scenario3api7impl_vh12vm_hooks_api10VMHooksApiNtNtBR_9debug_api15DebugApiBackendEENtNtB5_6manage12ManageModule16delegate_pendingCskEhliFuVTlV_13delegate_test
FN:207,_RNvYINtCs2WGRDwQOHLQ_14liquid_staking11ContractObjINtNtNtNtCseUmQFO6d1K9_22multiversx_sc_scenario3api7impl_vh12vm_hooks_api10VMHooksApiNtNtBR_9debug_api15DebugApiBackendEENtNtB5_6manage12ManageModule16delegate_rewardsCskEhliFuVTlV_13delegate_test
FN:116,_RNvYINtCs2WGRDwQOHLQ_14liquid_staking11ContractObjINtNtNtNtCseUmQFO6d1K9_22multiversx_sc_scenario3api7impl_vh12vm_hooks_api10VMHooksApiNtNtBR_9debug_api15DebugApiBackendEENtNtB5_6manage12ManageModule16withdraw_pendingCskEhliFuVTlV_13delegate_test
FN:75,_RNvYINtCs2WGRDwQOHLQ_14liquid_staking11ContractObjINtNtNtNtCseUmQFO6d1K9_22multiversx_sc_scenario3api7impl_vh12vm_hooks_api10VMHooksApiNtNtBR_9debug_api15DebugApiBackendEENtNtB5_6manage12ManageModule19un_delegate_pendingCskEhliFuVTlV_13delegate_test
FN:19,_RNvYINtCs2WGRDwQOHLQ_14liquid_staking11ContractObjINtNtNtNtCseUmQFO6d1K9_22multiversx_sc_scenario3api7impl_vh12vm_hooks_api10VMHooksApiNtNtBR_9debug_api15DebugApiBackendEENtNtB5_6manage16EndpointWrappers17callback_selectorCskEhliFuVTlV_13delegate_test
FN:19,_RNvYINtCs2WGRDwQOHLQ_14liquid_staking11ContractObjINtNtNtNtCseUmQFO6d1K9_22multiversx_sc_scenario3api7impl_vh12vm_hooks_api10VMHooksApiNtNtBR_9debug_api15DebugApiBackendEENtNtB5_6manage16EndpointWrappers18call_claim_rewardsCskEhliFuVTlV_13delegate_test
FN:19,_RNvYINtCs2WGRDwQOHLQ_14liquid_staking11ContractObjINtNtNtNtCseUmQFO6d1K9_22multiversx_sc_scenario3api7impl_vh12vm_hooks_api10VMHooksApiNtNtBR_9debug_api15DebugApiBackendEENtNtB5_6manage16EndpointWrappers21call_delegate_pendingCskEhliFuVTlV_13delegate_test
FN:19,_RNvYINtCs2WGRDwQOHLQ_14liquid_staking11ContractObjINtNtNtNtCseUmQFO6d1K9_22multiversx_sc_scenario3api7impl_vh12vm_hooks_api10VMHooksApiNtNtBR_9debug_api15DebugApiBackendEENtNtB5_6manage16EndpointWrappers21call_delegate_rewardsCskEhliFuVTlV_13delegate_test
FN:19,_RNvYINtCs2WGRDwQOHLQ_14liquid_staking11ContractObjINtNtNtNtCseUmQFO6d1K9_22multiversx_sc_scenario3api7impl_vh12vm_hooks_api10VMHooksApiNtNtBR_9debug_api15DebugApiBackendEENtNtB5_6manage16EndpointWrappers21call_withdraw_pendingCskEhliFuVTlV_13delegate_test
FN:19,_RNvYINtCs2WGRDwQOHLQ_14liquid_staking11ContractObjINtNtNtNtCseUmQFO6d1K9_22multiversx_sc_scenario3api7impl_vh12vm_hooks_api10VMHooksApiNtNtBR_9debug_api15DebugApiBackendEENtNtB5_6manage16EndpointWrappers24call_un_delegate_pendingCskEhliFuVTlV_13delegate_test
FN:19,_RNvYINtCs2WGRDwQOHLQ_14liquid_staking11ContractObjINtNtNtNtCseUmQFO6d1K9_22multiversx_sc_scenario3api7impl_vh12vm_hooks_api10VMHooksApiNtNtBR_9debug_api15DebugApiBackendEENtNtB5_6manage16EndpointWrappers4callCskEhliFuVTlV_13delegate_test
FN:19,_RNvYINtCs2WGRDwQOHLQ_14liquid_staking11ContractObjINtNtNtNtCseUmQFO6d1K9_22multiversx_sc_scenario3api7impl_vh12vm_hooks_api10VMHooksApiNtNtBR_9debug_api15DebugApiBackendEENtNtB5_6manage16EndpointWrappers8callbackCskEhliFuVTlV_13delegate_test
FN:165,_RNCNvYINtCs2WGRDwQOHLQ_14liquid_staking11ContractObjINtNtNtNtCseUmQFO6d1K9_22multiversx_sc_scenario3api7impl_vh12vm_hooks_api10VMHooksApiNtNtBT_9debug_api15DebugApiBackendEENtNtB7_6manage12ManageModule13claim_rewards0CskEhliFuVTlV_13delegate_test
FN:199,_RNCNvYINtCs2WGRDwQOHLQ_14liquid_staking11ContractObjINtNtNtNtCseUmQFO6d1K9_22multiversx_sc_scenario3api7impl_vh12vm_hooks_api10VMHooksApiNtNtBT_9debug_api15DebugApiBackendEENtNtB7_6manage12ManageModule13claim_rewardss_0CskEhliFuVTlV_13delegate_test
FN:32,_RNvYpNtNtCsdRzYvL09OST_14liquid_staking6manage12ManageModule16delegate_pendingB7_
FN:75,_RNvYpNtNtCsdRzYvL09OST_14liquid_staking6manage12ManageModule19un_delegate_pendingB7_
FN:116,_RNvYpNtNtCsdRzYvL09OST_14liquid_staking6manage12ManageModule16withdraw_pendingB7_
FN:140,_RNvYpNtNtCsdRzYvL09OST_14liquid_staking6manage12ManageModule13claim_rewardsB7_
FN:165,_RNCNvYpNtNtCsdRzYvL09OST_14liquid_staking6manage12ManageModule13claim_rewards0B9_
FN:199,_RNCNvYpNtNtCsdRzYvL09OST_14liquid_staking6manage12ManageModule13claim_rewardss_0B9_
FN:207,_RNvYpNtNtCsdRzYvL09OST_14liquid_staking6manage12ManageModule16delegate_rewardsB7_
FN:19,_RNvYpNtNtCsdRzYvL09OST_14liquid_staking6manage16EndpointWrappers21call_delegate_pendingB7_
FN:19,_RNvYpNtNtCsdRzYvL09OST_14liquid_staking6manage16EndpointWrappers24call_un_delegate_pendingB7_
FN:19,_RNvYpNtNtCsdRzYvL09OST_14liquid_staking6manage16EndpointWrappers21call_withdraw_pendingB7_
FN:19,_RNvYpNtNtCsdRzYvL09OST_14liquid_staking6manage16EndpointWrappers18call_claim_rewardsB7_
FN:19,_RNvYpNtNtCsdRzYvL09OST_14liquid_staking6manage16EndpointWrappers21call_delegate_rewardsB7_
FN:19,_RNvYpNtNtCsdRzYvL09OST_14liquid_staking6manage16EndpointWrappers4callB7_
FN:19,_RNvYpNtNtCsdRzYvL09OST_14liquid_staking6manage16EndpointWrappers17callback_selectorB7_
FN:19,_RNvYpNtNtCsdRzYvL09OST_14liquid_staking6manage16EndpointWrappers8callbackB7_
FN:19,_RNvXs1_NtCsdRzYvL09OST_14liquid_staking6manageNtB5_11AbiProviderNtNtNtCs4WmCETBkTZ5_13multiversx_sc13contract_base21contract_abi_provider19ContractAbiProvider3abi
FN:19,_RNvXININtCsdRzYvL09OST_14liquid_staking6managesn_0pEINtB5_11ContractObjpENtNtNtCs4WmCETBkTZ5_13multiversx_sc13contract_base17callable_contract16CallableContract4callB7_
FN:19,_RINvNtCsdRzYvL09OST_14liquid_staking6manage12contract_objpEB4_
FN:19,_RINvXso_NtCsdRzYvL09OST_14liquid_staking6manageNtB6_15ContractBuilderNtNtNtCs4WmCETBkTZ5_13multiversx_sc13contract_base17callable_contract23CallableContractBuilder16new_contract_objpEB8_
FN:19,_RINvNtNtCsdRzYvL09OST_14liquid_staking6manage19___wasm__endpoints__16delegate_pendingpEB6_
FN:19,_RINvNtNtCsdRzYvL09OST_14liquid_staking6manage19___wasm__endpoints__19un_delegate_pendingpEB6_
FN:19,_RINvNtNtCsdRzYvL09OST_14liquid_staking6manage19___wasm__endpoints__16withdraw_pendingpEB6_
FN:19,_RINvNtNtCsdRzYvL09OST_14liquid_staking6manage19___wasm__endpoints__13claim_rewardspEB6_
FN:19,_RINvNtNtCsdRzYvL09OST_14liquid_staking6manage19___wasm__endpoints__16delegate_rewardspEB6_
FN:19,_RNvYpNtNtCsdRzYvL09OST_14liquid_staking6manage10ProxyTrait16delegate_pendingB7_
FN:19,_RNvYpNtNtCsdRzYvL09OST_14liquid_staking6manage10ProxyTrait19un_delegate_pendingB7_
FN:19,_RINvYpNtNtCsdRzYvL09OST_14liquid_staking6manage10ProxyTrait16withdraw_pendingpEB8_
FN:19,_RNvYpNtNtCsdRzYvL09OST_14liquid_staking6manage10ProxyTrait13claim_rewardsB7_
FN:19,_RNvYpNtNtCsdRzYvL09OST_14liquid_staking6manage10ProxyTrait16delegate_rewardsB7_
FN:140,_RNvYINtCs2WGRDwQOHLQ_14liquid_staking11ContractObjINtNtNtNtCseUmQFO6d1K9_22multiversx_sc_scenario3api7impl_vh12vm_hooks_api10VMHooksApiNtNtBR_9debug_api15DebugApiBackendEENtNtB5_6manage12ManageModule13claim_rewardsCsaR2MVHtCDM0_4test
FN:32,_RNvYINtCs2WGRDwQOHLQ_14liquid_staking11ContractObjINtNtNtNtCseUmQFO6d1K9_22multiversx_sc_scenario3api7impl_vh12vm_hooks_api10VMHooksApiNtNtBR_9debug_api15DebugApiBackendEENtNtB5_6manage12ManageModule16delegate_pendingCsaR2MVHtCDM0_4test
FN:207,_RNvYINtCs2WGRDwQOHLQ_14liquid_staking11ContractObjINtNtNtNtCseUmQFO6d1K9_22multiversx_sc_scenario3api7impl_vh12vm_hooks_api10VMHooksApiNtNtBR_9debug_api15DebugApiBackendEENtNtB5_6manage12ManageModule16delegate_rewardsCsaR2MVHtCDM0_4test
FN:116,_RNvYINtCs2WGRDwQOHLQ_14liquid_staking11ContractObjINtNtNtNtCseUmQFO6d1K9_22multiversx_sc_scenario3api7impl_vh12vm_hooks_api10VMHooksApiNtNtBR_9debug_api15DebugApiBackendEENtNtB5_6manage12ManageModule16withdraw_pendingCsaR2MVHtCDM0_4test
FN:75,_RNvYINtCs2WGRDwQOHLQ_14liquid_staking11ContractObjINtNtNtNtCseUmQFO6d1K9_22multiversx_sc_scenario3api7impl_vh12vm_hooks_api10VMHooksApiNtNtBR_9debug_api15DebugApiBackendEENtNtB5_6manage12ManageModule19un_delegate_pendingCsaR2MVHtCDM0_4test
FN:19,_RNvYINtCs2WGRDwQOHLQ_14liquid_staking11ContractObjINtNtNtNtCseUmQFO6d1K9_22multiversx_sc_scenario3api7impl_vh12vm_hooks_api10VMHooksApiNtNtBR_9debug_api15DebugApiBackendEENtNtB5_6manage16EndpointWrappers17callback_selectorCsaR2MVHtCDM0_4test
FN:19,_RNvYINtCs2WGRDwQOHLQ_14liquid_staking11ContractObjINtNtNtNtCseUmQFO6d1K9_22multiversx_sc_scenario3api7impl_vh12vm_hooks_api10VMHooksApiNtNtBR_9debug_api15DebugApiBackendEENtNtB5_6manage16EndpointWrappers18call_claim_rewardsCsaR2MVHtCDM0_4test
FN:19,_RNvYINtCs2WGRDwQOHLQ_14liquid_staking11ContractObjINtNtNtNtCseUmQFO6d1K9_22multiversx_sc_scenario3api7impl_vh12vm_hooks_api10VMHooksApiNtNtBR_9debug_api15DebugApiBackendEENtNtB5_6manage16EndpointWrappers21call_delegate_pendingCsaR2MVHtCDM0_4test
FN:19,_RNvYINtCs2WGRDwQOHLQ_14liquid_staking11ContractObjINtNtNtNtCseUmQFO6d1K9_22multiversx_sc_scenario3api7impl_vh12vm_hooks_api10VMHooksApiNtNtBR_9debug_api15DebugApiBackendEENtNtB5_6manage16EndpointWrappers21call_delegate_rewardsCsaR2MVHtCDM0_4test
FN:19,_RNvYINtCs2WGRDwQOHLQ_14liquid_staking11ContractObjINtNtNtNtCseUmQFO6d1K9_22multiversx_sc_scenario3api7impl_vh12vm_hooks_api10VMHooksApiNtNtBR_9debug_api15DebugApiBackendEENtNtB5_6manage16EndpointWrappers21call_withdraw_pendingCsaR2MVHtCDM0_4test
FN:19,_RNvYINtCs2WGRDwQOHLQ_14liquid_staking11ContractObjINtNtNtNtCseUmQFO6d1K9_22multiversx_sc_scenario3api7impl_vh12vm_hooks_api10VMHooksApiNtNtBR_9debug_api15DebugApiBackendEENtNtB5_6manage16EndpointWrappers24call_un_delegate_pendingCsaR2MVHtCDM0_4test
FN:19,_RNvYINtCs2WGRDwQOHLQ_14liquid_staking11ContractObjINtNtNtNtCseUmQFO6d1K9_22multiversx_sc_scenario3api7impl_vh12vm_hooks_api10VMHooksApiNtNtBR_9debug_api15DebugApiBackendEENtNtB5_6manage16EndpointWrappers4callCsaR2MVHtCDM0_4test
FN:19,_RNvYINtCs2WGRDwQOHLQ_14liquid_staking11ContractObjINtNtNtNtCseUmQFO6d1K9_22multiversx_sc_scenario3api7impl_vh12vm_hooks_api10VMHooksApiNtNtBR_9debug_api15DebugApiBackendEENtNtB5_6manage16EndpointWrappers8callbackCsaR2MVHtCDM0_4test
FN:165,_RNCNvYINtCs2WGRDwQOHLQ_14liquid_staking11ContractObjINtNtNtNtCseUmQFO6d1K9_22multiversx_sc_scenario3api7impl_vh12vm_hooks_api10VMHooksApiNtNtBT_9debug_api15DebugApiBackendEENtNtB7_6manage12ManageModule13claim_rewards0CsaR2MVHtCDM0_4test
FN:199,_RNCNvYINtCs2WGRDwQOHLQ_14liquid_staking11ContractObjINtNtNtNtCseUmQFO6d1K9_22multiversx_sc_scenario3api7impl_vh12vm_hooks_api10VMHooksApiNtNtBT_9debug_api15DebugApiBackendEENtNtB7_6manage12ManageModule13claim_rewardss_0CsaR2MVHtCDM0_4test
FN:140,_RNvYINtCs2WGRDwQOHLQ_14liquid_staking11ContractObjINtNtNtNtCseUmQFO6d1K9_22multiversx_sc_scenario3api7impl_vh12vm_hooks_api10VMHooksApiNtNtBR_9debug_api15DebugApiBackendEENtNtB5_6manage12ManageModule13claim_rewardsCsVH6ELXPoQD_15unDelegate_test
FN:32,_RNvYINtCs2WGRDwQOHLQ_14liquid_staking11ContractObjINtNtNtNtCseUmQFO6d1K9_22multiversx_sc_scenario3api7impl_vh12vm_hooks_api10VMHooksApiNtNtBR_9debug_api15DebugApiBackendEENtNtB5_6manage12ManageModule16delegate_pendingCsVH6ELXPoQD_15unDelegate_test
FN:207,_RNvYINtCs2WGRDwQOHLQ_14liquid_staking11ContractObjINtNtNtNtCseUmQFO6d1K9_22multiversx_sc_scenario3api7impl_vh12vm_hooks_api10VMHooksApiNtNtBR_9debug_api15DebugApiBackendEENtNtB5_6manage12ManageModule16delegate_rewardsCsVH6ELXPoQD_15unDelegate_test
FN:116,_RNvYINtCs2WGRDwQOHLQ_14liquid_staking11ContractObjINtNtNtNtCseUmQFO6d1K9_22multiversx_sc_scenario3api7impl_vh12vm_hooks_api10VMHooksApiNtNtBR_9debug_api15DebugApiBackendEENtNtB5_6manage12ManageModule16withdraw_pendingCsVH6ELXPoQD_15unDelegate_test
FN:75,_RNvYINtCs2WGRDwQOHLQ_14liquid_staking11ContractObjINtNtNtNtCseUmQFO6d1K9_22multiversx_sc_scenario3api7impl_vh12vm_hooks_api10VMHooksApiNtNtBR_9debug_api15DebugApiBackendEENtNtB5_6manage12ManageModule19un_delegate_pendingCsVH6ELXPoQD_15unDelegate_test
FN:19,_RNvYINtCs2WGRDwQOHLQ_14liquid_staking11ContractObjINtNtNtNtCseUmQFO6d1K9_22multiversx_sc_scenario3api7impl_vh12vm_hooks_api10VMHooksApiNtNtBR_9debug_api15DebugApiBackendEENtNtB5_6manage16EndpointWrappers17callback_selectorCsVH6ELXPoQD_15unDelegate_test
FN:19,_RNvYINtCs2WGRDwQOHLQ_14liquid_staking11ContractObjINtNtNtNtCseUmQFO6d1K9_22multiversx_sc_scenario3api7impl_vh12vm_hooks_api10VMHooksApiNtNtBR_9debug_api15DebugApiBackendEENtNtB5_6manage16EndpointWrappers18call_claim_rewardsCsVH6ELXPoQD_15unDelegate_test
FN:19,_RNvYINtCs2WGRDwQOHLQ_14liquid_staking11ContractObjINtNtNtNtCseUmQFO6d1K9_22multiversx_sc_scenario3api7impl_vh12vm_hooks_api10VMHooksApiNtNtBR_9debug_api15DebugApiBackendEENtNtB5_6manage16EndpointWrappers21call_delegate_pendingCsVH6ELXPoQD_15unDelegate_test
FN:19,_RNvYINtCs2WGRDwQOHLQ_14liquid_staking11ContractObjINtNtNtNtCseUmQFO6d1K9_22multiversx_sc_scenario3api7impl_vh12vm_hooks_api10VMHooksApiNtNtBR_9debug_api15DebugApiBackendEENtNtB5_6manage16EndpointWrappers21call_delegate_rewardsCsVH6ELXPoQD_15unDelegate_test
FN:19,_RNvYINtCs2WGRDwQOHLQ_14liquid_staking11ContractObjINtNtNtNtCseUmQFO6d1K9_22multiversx_sc_scenario3api7impl_vh12vm_hooks_api10VMHooksApiNtNtBR_9debug_api15DebugApiBackendEENtNtB5_6manage16EndpointWrappers21call_withdraw_pendingCsVH6ELXPoQD_15unDelegate_test
FN:19,_RNvYINtCs2WGRDwQOHLQ_14liquid_staking11ContractObjINtNtNtNtCseUmQFO6d1K9_22multiversx_sc_scenario3api7impl_vh12vm_hooks_api10VMHooksApiNtNtBR_9debug_api15DebugApiBackendEENtNtB5_6manage16EndpointWrappers24call_un_delegate_pendingCsVH6ELXPoQD_15unDelegate_test
FN:19,_RNvYINtCs2WGRDwQOHLQ_14liquid_staking11ContractObjINtNtNtNtCseUmQFO6d1K9_22multiversx_sc_scenario3api7impl_vh12vm_hooks_api10VMHooksApiNtNtBR_9debug_api15DebugApiBackendEENtNtB5_6manage16EndpointWrappers4callCsVH6ELXPoQD_15unDelegate_test
FN:19,_RNvYINtCs2WGRDwQOHLQ_14liquid_staking11ContractObjINtNtNtNtCseUmQFO6d1K9_22multiversx_sc_scenario3api7impl_vh12vm_hooks_api10VMHooksApiNtNtBR_9debug_api15DebugApiBackendEENtNtB5_6manage16EndpointWrappers8callbackCsVH6ELXPoQD_15unDelegate_test
FN:165,_RNCNvYINtCs2WGRDwQOHLQ_14liquid_staking11ContractObjINtNtNtNtCseUmQFO6d1K9_22multiversx_sc_scenario3api7impl_vh12vm_hooks_api10VMHooksApiNtNtBT_9debug_api15DebugApiBackendEENtNtB7_6manage12ManageModule13claim_rewards0CsVH6ELXPoQD_15unDelegate_test
FN:199,_RNCNvYINtCs2WGRDwQOHLQ_14liquid_staking11ContractObjINtNtNtNtCseUmQFO6d1K9_22multiversx_sc_scenario3api7impl_vh12vm_hooks_api10VMHooksApiNtNtBT_9debug_api15DebugApiBackendEENtNtB7_6manage12ManageModule13claim_rewardss_0CsVH6ELXPoQD_15unDelegate_test
FN:140,_RNvYINtCs2WGRDwQOHLQ_14liquid_staking11ContractObjINtNtNtNtCseUmQFO6d1K9_22multiversx_sc_scenario3api7impl_vh12vm_hooks_api10VMHooksApiNtNtBR_9debug_api15DebugApiBackendEENtNtB5_6manage12ManageModule13claim_rewardsCshHwHQpnfuGH_11unbond_test
FN:32,_RNvYINtCs2WGRDwQOHLQ_14liquid_staking11ContractObjINtNtNtNtCseUmQFO6d1K9_22multiversx_sc_scenario3api7impl_vh12vm_hooks_api10VMHooksApiNtNtBR_9debug_api15DebugApiBackendEENtNtB5_6manage12ManageModule16delegate_pendingCshHwHQpnfuGH_11unbond_test
FN:207,_RNvYINtCs2WGRDwQOHLQ_14liquid_staking11ContractObjINtNtNtNtCseUmQFO6d1K9_22multiversx_sc_scenario3api7impl_vh12vm_hooks_api10VMHooksApiNtNtBR_9debug_api15DebugApiBackendEENtNtB5_6manage12ManageModule16delegate_rewardsCshHwHQpnfuGH_11unbond_test
FN:116,_RNvYINtCs2WGRDwQOHLQ_14liquid_staking11ContractObjINtNtNtNtCseUmQFO6d1K9_22multiversx_sc_scenario3api7impl_vh12vm_hooks_api10VMHooksApiNtNtBR_9debug_api15DebugApiBackendEENtNtB5_6manage12ManageModule16withdraw_pendingCshHwHQpnfuGH_11unbond_test
FN:75,_RNvYINtCs2WGRDwQOHLQ_14liquid_staking11ContractObjINtNtNtNtCseUmQFO6d1K9_22multiversx_sc_scenario3api7impl_vh12vm_hooks_api10VMHooksApiNtNtBR_9debug_api15DebugApiBackendEENtNtB5_6manage12ManageModule19un_delegate_pendingCshHwHQpnfuGH_11unbond_test
FN:19,_RNvYINtCs2WGRDwQOHLQ_14liquid_staking11ContractObjINtNtNtNtCseUmQFO6d1K9_22multiversx_sc_scenario3api7impl_vh12vm_hooks_api10VMHooksApiNtNtBR_9debug_api15DebugApiBackendEENtNtB5_6manage16EndpointWrappers17callback_selectorCshHwHQpnfuGH_11unbond_test
FN:19,_RNvYINtCs2WGRDwQOHLQ_14liquid_staking11ContractObjINtNtNtNtCseUmQFO6d1K9_22multiversx_sc_scenario3api7impl_vh12vm_hooks_api10VMHooksApiNtNtBR_9debug_api15DebugApiBackendEENtNtB5_6manage16EndpointWrappers18call_claim_rewardsCshHwHQpnfuGH_11unbond_test
FN:19,_RNvYINtCs2WGRDwQOHLQ_14liquid_staking11ContractObjINtNtNtNtCseUmQFO6d1K9_22multiversx_sc_scenario3api7impl_vh12vm_hooks_api10VMHooksApiNtNtBR_9debug_api15DebugApiBackendEENtNtB5_6manage16EndpointWrappers21call_delegate_pendingCshHwHQpnfuGH_11unbond_test
FN:19,_RNvYINtCs2WGRDwQOHLQ_14liquid_staking11ContractObjINtNtNtNtCseUmQFO6d1K9_22multiversx_sc_scenario3api7impl_vh12vm_hooks_api10VMHooksApiNtNtBR_9debug_api15DebugApiBackendEENtNtB5_6manage16EndpointWrappers21call_delegate_rewardsCshHwHQpnfuGH_11unbond_test
FN:19,_RNvYINtCs2WGRDwQOHLQ_14liquid_staking11ContractObjINtNtNtNtCseUmQFO6d1K9_22multiversx_sc_scenario3api7impl_vh12vm_hooks_api10VMHooksApiNtNtBR_9debug_api15DebugApiBackendEENtNtB5_6manage16EndpointWrappers21call_withdraw_pendingCshHwHQpnfuGH_11unbond_test
FN:19,_RNvYINtCs2WGRDwQOHLQ_14liquid_staking11ContractObjINtNtNtNtCseUmQFO6d1K9_22multiversx_sc_scenario3api7impl_vh12vm_hooks_api10VMHooksApiNtNtBR_9debug_api15DebugApiBackendEENtNtB5_6manage16EndpointWrappers24call_un_delegate_pendingCshHwHQpnfuGH_11unbond_test
FN:19,_RNvYINtCs2WGRDwQOHLQ_14liquid_staking11ContractObjINtNtNtNtCseUmQFO6d1K9_22multiversx_sc_scenario3api7impl_vh12vm_hooks_api10VMHooksApiNtNtBR_9debug_api15DebugApiBackendEENtNtB5_6manage16EndpointWrappers4callCshHwHQpnfuGH_11unbond_test
FN:19,_RNvYINtCs2WGRDwQOHLQ_14liquid_staking11ContractObjINtNtNtNtCseUmQFO6d1K9_22multiversx_sc_scenario3api7impl_vh12vm_hooks_api10VMHooksApiNtNtBR_9debug_api15DebugApiBackendEENtNtB5_6manage16EndpointWrappers8callbackCshHwHQpnfuGH_11unbond_test
FN:165,_RNCNvYINtCs2WGRDwQOHLQ_14liquid_staking11ContractObjINtNtNtNtCseUmQFO6d1K9_22multiversx_sc_scenario3api7impl_vh12vm_hooks_api10VMHooksApiNtNtBT_9debug_api15DebugApiBackendEENtNtB7_6manage12ManageModule13claim_rewards0CshHwHQpnfuGH_11unbond_test
FN:199,_RNCNvYINtCs2WGRDwQOHLQ_14liquid_staking11ContractObjINtNtNtNtCseUmQFO6d1K9_22multiversx_sc_scenario3api7impl_vh12vm_hooks_api10VMHooksApiNtNtBT_9debug_api15DebugApiBackendEENtNtB7_6manage12ManageModule13claim_rewardss_0CshHwHQpnfuGH_11unbond_test
FNDA:0,_RNvYINtCs2WGRDwQOHLQ_14liquid_staking11ContractObjINtNtNtNtCseUmQFO6d1K9_22multiversx_sc_scenario3api7impl_vh12vm_hooks_api10VMHooksApiNtNtBR_9debug_api15DebugApiBackendEENtNtB5_6manage12ManageModule13claim_rewardsCskEhliFuVTlV_13delegate_test
FNDA:5,_RNvYINtCs2WGRDwQOHLQ_14liquid_staking11ContractObjINtNtNtNtCseUmQFO6d1K9_22multiversx_sc_scenario3api7impl_vh12vm_hooks_api10VMHooksApiNtNtBR_9debug_api15DebugApiBackendEENtNtB5_6manage12ManageModule16delegate_pendingCskEhliFuVTlV_13delegate_test
FNDA:0,_RNvYINtCs2WGRDwQOHLQ_14liquid_staking11ContractObjINtNtNtNtCseUmQFO6d1K9_22multiversx_sc_scenario3api7impl_vh12vm_hooks_api10VMHooksApiNtNtBR_9debug_api15DebugApiBackendEENtNtB5_6manage12ManageModule16delegate_rewardsCskEhliFuVTlV_13delegate_test
FNDA:0,_RNvYINtCs2WGRDwQOHLQ_14liquid_staking11ContractObjINtNtNtNtCseUmQFO6d1K9_22multiversx_sc_scenario3api7impl_vh12vm_hooks_api10VMHooksApiNtNtBR_9debug_api15DebugApiBackendEENtNtB5_6manage12ManageModule16withdraw_pendingCskEhliFuVTlV_13delegate_test
FNDA:0,_RNvYINtCs2WGRDwQOHLQ_14liquid_staking11ContractObjINtNtNtNtCseUmQFO6d1K9_22multiversx_sc_scenario3api7impl_vh12vm_hooks_api10VMHooksApiNtNtBR_9debug_api15DebugApiBackendEENtNtB5_6manage12ManageModule19un_delegate_pendingCskEhliFuVTlV_13delegate_test
FNDA:0,_RNvYINtCs2WGRDwQOHLQ_14liquid_staking11ContractObjINtNtNtNtCseUmQFO6d1K9_22multiversx_sc_scenario3api7impl_vh12vm_hooks_api10VMHooksApiNtNtBR_9debug_api15DebugApiBackendEENtNtB5_6manage16EndpointWrappers17callback_selectorCskEhliFuVTlV_13delegate_test
FNDA:0,_RNvYINtCs2WGRDwQOHLQ_14liquid_staking11ContractObjINtNtNtNtCseUmQFO6d1K9_22multiversx_sc_scenario3api7impl_vh12vm_hooks_api10VMHooksApiNtNtBR_9debug_api15DebugApiBackendEENtNtB5_6manage16EndpointWrappers18call_claim_rewardsCskEhliFuVTlV_13delegate_test
FNDA:0,_RNvYINtCs2WGRDwQOHLQ_14liquid_staking11ContractObjINtNtNtNtCseUmQFO6d1K9_22multiversx_sc_scenario3api7impl_vh12vm_hooks_api10VMHooksApiNtNtBR_9debug_api15DebugApiBackendEENtNtB5_6manage16EndpointWrappers21call_delegate_pendingCskEhliFuVTlV_13delegate_test
FNDA:0,_RNvYINtCs2WGRDwQOHLQ_14liquid_staking11ContractObjINtNtNtNtCseUmQFO6d1K9_22multiversx_sc_scenario3api7impl_vh12vm_hooks_api10VMHooksApiNtNtBR_9debug_api15DebugApiBackendEENtNtB5_6manage16EndpointWrappers21call_delegate_rewardsCskEhliFuVTlV_13delegate_test
FNDA:0,_RNvYINtCs2WGRDwQOHLQ_14liquid_staking11ContractObjINtNtNtNtCseUmQFO6d1K9_22multiversx_sc_scenario3api7impl_vh12vm_hooks_api10VMHooksApiNtNtBR_9debug_api15DebugApiBackendEENtNtB5_6manage16EndpointWrappers21call_withdraw_pendingCskEhliFuVTlV_13delegate_test
FNDA:0,_RNvYINtCs2WGRDwQOHLQ_14liquid_staking11ContractObjINtNtNtNtCseUmQFO6d1K9_22multiversx_sc_scenario3api7impl_vh12vm_hooks_api10VMHooksApiNtNtBR_9debug_api15DebugApiBackendEENtNtB5_6manage16EndpointWrappers24call_un_delegate_pendingCskEhliFuVTlV_13delegate_test
FNDA:4,_RNvYINtCs2WGRDwQOHLQ_14liquid_staking11ContractObjINtNtNtNtCseUmQFO6d1K9_22multiversx_sc_scenario3api7impl_vh12vm_hooks_api10VMHooksApiNtNtBR_9debug_api15DebugApiBackendEENtNtB5_6manage16EndpointWrappers4callCskEhliFuVTlV_13delegate_test
FNDA:0,_RNvYINtCs2WGRDwQOHLQ_14liquid_staking11ContractObjINtNtNtNtCseUmQFO6d1K9_22multiversx_sc_scenario3api7impl_vh12vm_hooks_api10VMHooksApiNtNtBR_9debug_api15DebugApiBackendEENtNtB5_6manage16EndpointWrappers8callbackCskEhliFuVTlV_13delegate_test
FNDA:0,_RNCNvYINtCs2WGRDwQOHLQ_14liquid_staking11ContractObjINtNtNtNtCseUmQFO6d1K9_22multiversx_sc_scenario3api7impl_vh12vm_hooks_api10VMHooksApiNtNtBT_9debug_api15DebugApiBackendEENtNtB7_6manage12ManageModule13claim_rewards0CskEhliFuVTlV_13delegate_test
FNDA:0,_RNCNvYINtCs2WGRDwQOHLQ_14liquid_staking11ContractObjINtNtNtNtCseUmQFO6d1K9_22multiversx_sc_scenario3api7impl_vh12vm_hooks_api10VMHooksApiNtNtBT_9debug_api15DebugApiBackendEENtNtB7_6manage12ManageModule13claim_rewardss_0CskEhliFuVTlV_13delegate_test
FNDA:0,_RNvYpNtNtCsdRzYvL09OST_14liquid_staking6manage12ManageModule16delegate_pendingB7_
FNDA:0,_RNvYpNtNtCsdRzYvL09OST_14liquid_staking6manage12ManageModule19un_delegate_pendingB7_
FNDA:0,_RNvYpNtNtCsdRzYvL09OST_14liquid_staking6manage12ManageModule16withdraw_pendingB7_
FNDA:0,_RNvYpNtNtCsdRzYvL09OST_14liquid_staking6manage12ManageModule13claim_rewardsB7_
FNDA:0,_RNCNvYpNtNtCsdRzYvL09OST_14liquid_staking6manage12ManageModule13claim_rewards0B9_
FNDA:0,_RNCNvYpNtNtCsdRzYvL09OST_14liquid_staking6manage12ManageModule13claim_rewardss_0B9_
FNDA:0,_RNvYpNtNtCsdRzYvL09OST_14liquid_staking6manage12ManageModule16delegate_rewardsB7_
FNDA:0,_RNvYpNtNtCsdRzYvL09OST_14liquid_staking6manage16EndpointWrappers21call_delegate_pendingB7_
FNDA:0,_RNvYpNtNtCsdRzYvL09OST_14liquid_staking6manage16EndpointWrappers24call_un_delegate_pendingB7_
FNDA:0,_RNvYpNtNtCsdRzYvL09OST_14liquid_staking6manage16EndpointWrappers21call_withdraw_pendingB7_
FNDA:0,_RNvYpNtNtCsdRzYvL09OST_14liquid_staking6manage16EndpointWrappers18call_claim_rewardsB7_
FNDA:0,_RNvYpNtNtCsdRzYvL09OST_14liquid_staking6manage16EndpointWrappers21call_delegate_rewardsB7_
FNDA:0,_RNvYpNtNtCsdRzYvL09OST_14liquid_staking6manage16EndpointWrappers4callB7_
FNDA:0,_RNvYpNtNtCsdRzYvL09OST_14liquid_staking6manage16EndpointWrappers17callback_selectorB7_
FNDA:0,_RNvYpNtNtCsdRzYvL09OST_14liquid_staking6manage16EndpointWrappers8callbackB7_
FNDA:0,_RNvXs1_NtCsdRzYvL09OST_14liquid_staking6manageNtB5_11AbiProviderNtNtNtCs4WmCETBkTZ5_13multiversx_sc13contract_base21contract_abi_provider19ContractAbiProvider3abi
FNDA:0,_RNvXININtCsdRzYvL09OST_14liquid_staking6managesn_0pEINtB5_11ContractObjpENtNtNtCs4WmCETBkTZ5_13multiversx_sc13contract_base17callable_contract16CallableContract4callB7_
FNDA:0,_RINvNtCsdRzYvL09OST_14liquid_staking6manage12contract_objpEB4_
FNDA:0,_RINvXso_NtCsdRzYvL09OST_14liquid_staking6manageNtB6_15ContractBuilderNtNtNtCs4WmCETBkTZ5_13multiversx_sc13contract_base17callable_contract23CallableContractBuilder16new_contract_objpEB8_
FNDA:0,_RINvNtNtCsdRzYvL09OST_14liquid_staking6manage19___wasm__endpoints__16delegate_pendingpEB6_
FNDA:0,_RINvNtNtCsdRzYvL09OST_14liquid_staking6manage19___wasm__endpoints__19un_delegate_pendingpEB6_
FNDA:0,_RINvNtNtCsdRzYvL09OST_14liquid_staking6manage19___wasm__endpoints__16withdraw_pendingpEB6_
FNDA:0,_RINvNtNtCsdRzYvL09OST_14liquid_staking6manage19___wasm__endpoints__13claim_rewardspEB6_
FNDA:0,_RINvNtNtCsdRzYvL09OST_14liquid_staking6manage19___wasm__endpoints__16delegate_rewardspEB6_
FNDA:0,_RNvYpNtNtCsdRzYvL09OST_14liquid_staking6manage10ProxyTrait16delegate_pendingB7_
FNDA:0,_RNvYpNtNtCsdRzYvL09OST_14liquid_staking6manage10ProxyTrait19un_delegate_pendingB7_
FNDA:0,_RINvYpNtNtCsdRzYvL09OST_14liquid_staking6manage10ProxyTrait16withdraw_pendingpEB8_
FNDA:0,_RNvYpNtNtCsdRzYvL09OST_14liquid_staking6manage10ProxyTrait13claim_rewardsB7_
FNDA:0,_RNvYpNtNtCsdRzYvL09OST_14liquid_staking6manage10ProxyTrait16delegate_rewardsB7_
FNDA:2,_RNvYINtCs2WGRDwQOHLQ_14liquid_staking11ContractObjINtNtNtNtCseUmQFO6d1K9_22multiversx_sc_scenario3api7impl_vh12vm_hooks_api10VMHooksApiNtNtBR_9debug_api15DebugApiBackendEENtNtB5_6manage12ManageModule13claim_rewardsCsaR2MVHtCDM0_4test
FNDA:6,_RNvYINtCs2WGRDwQOHLQ_14liquid_staking11ContractObjINtNtNtNtCseUmQFO6d1K9_22multiversx_sc_scenario3api7impl_vh12vm_hooks_api10VMHooksApiNtNtBR_9debug_api15DebugApiBackendEENtNtB5_6manage12ManageModule16delegate_pendingCsaR2MVHtCDM0_4test
FNDA:1,_RNvYINtCs2WGRDwQOHLQ_14liquid_staking11ContractObjINtNtNtNtCseUmQFO6d1K9_22multiversx_sc_scenario3api7impl_vh12vm_hooks_api10VMHooksApiNtNtBR_9debug_api15DebugApiBackendEENtNtB5_6manage12ManageModule16delegate_rewardsCsaR2MVHtCDM0_4test
FNDA:2,_RNvYINtCs2WGRDwQOHLQ_14liquid_staking11ContractObjINtNtNtNtCseUmQFO6d1K9_22multiversx_sc_scenario3api7impl_vh12vm_hooks_api10VMHooksApiNtNtBR_9debug_api15DebugApiBackendEENtNtB5_6manage12ManageModule16withdraw_pendingCsaR2MVHtCDM0_4test
FNDA:2,_RNvYINtCs2WGRDwQOHLQ_14liquid_staking11ContractObjINtNtNtNtCseUmQFO6d1K9_22multiversx_sc_scenario3api7impl_vh12vm_hooks_api10VMHooksApiNtNtBR_9debug_api15DebugApiBackendEENtNtB5_6manage12ManageModule19un_delegate_pendingCsaR2MVHtCDM0_4test
FNDA:0,_RNvYINtCs2WGRDwQOHLQ_14liquid_staking11ContractObjINtNtNtNtCseUmQFO6d1K9_22multiversx_sc_scenario3api7impl_vh12vm_hooks_api10VMHooksApiNtNtBR_9debug_api15DebugApiBackendEENtNtB5_6manage16EndpointWrappers17callback_selectorCsaR2MVHtCDM0_4test
FNDA:0,_RNvYINtCs2WGRDwQOHLQ_14liquid_staking11ContractObjINtNtNtNtCseUmQFO6d1K9_22multiversx_sc_scenario3api7impl_vh12vm_hooks_api10VMHooksApiNtNtBR_9debug_api15DebugApiBackendEENtNtB5_6manage16EndpointWrappers18call_claim_rewardsCsaR2MVHtCDM0_4test
FNDA:0,_RNvYINtCs2WGRDwQOHLQ_14liquid_staking11ContractObjINtNtNtNtCseUmQFO6d1K9_22multiversx_sc_scenario3api7impl_vh12vm_hooks_api10VMHooksApiNtNtBR_9debug_api15DebugApiBackendEENtNtB5_6manage16EndpointWrappers21call_delegate_pendingCsaR2MVHtCDM0_4test
FNDA:0,_RNvYINtCs2WGRDwQOHLQ_14liquid_staking11ContractObjINtNtNtNtCseUmQFO6d1K9_22multiversx_sc_scenario3api7impl_vh12vm_hooks_api10VMHooksApiNtNtBR_9debug_api15DebugApiBackendEENtNtB5_6manage16EndpointWrappers21call_delegate_rewardsCsaR2MVHtCDM0_4test
FNDA:0,_RNvYINtCs2WGRDwQOHLQ_14liquid_staking11ContractObjINtNtNtNtCseUmQFO6d1K9_22multiversx_sc_scenario3api7impl_vh12vm_hooks_api10VMHooksApiNtNtBR_9debug_api15DebugApiBackendEENtNtB5_6manage16EndpointWrappers21call_withdraw_pendingCsaR2MVHtCDM0_4test
FNDA:0,_RNvYINtCs2WGRDwQOHLQ_14liquid_staking11ContractObjINtNtNtNtCseUmQFO6d1K9_22multiversx_sc_scenario3api7impl_vh12vm_hooks_api10VMHooksApiNtNtBR_9debug_api15DebugApiBackendEENtNtB5_6manage16EndpointWrappers24call_un_delegate_pendingCsaR2MVHtCDM0_4test
FNDA:28,_RNvYINtCs2WGRDwQOHLQ_14liquid_staking11ContractObjINtNtNtNtCseUmQFO6d1K9_22multiversx_sc_scenario3api7impl_vh12vm_hooks_api10VMHooksApiNtNtBR_9debug_api15DebugApiBackendEENtNtB5_6manage16EndpointWrappers4callCsaR2MVHtCDM0_4test
FNDA:0,_RNvYINtCs2WGRDwQOHLQ_14liquid_staking11ContractObjINtNtNtNtCseUmQFO6d1K9_22multiversx_sc_scenario3api7impl_vh12vm_hooks_api10VMHooksApiNtNtBR_9debug_api15DebugApiBackendEENtNtB5_6manage16EndpointWrappers8callbackCsaR2MVHtCDM0_4test
FNDA:5,_RNCNvYINtCs2WGRDwQOHLQ_14liquid_staking11ContractObjINtNtNtNtCseUmQFO6d1K9_22multiversx_sc_scenario3api7impl_vh12vm_hooks_api10VMHooksApiNtNtBT_9debug_api15DebugApiBackendEENtNtB7_6manage12ManageModule13claim_rewards0CsaR2MVHtCDM0_4test
FNDA:2,_RNCNvYINtCs2WGRDwQOHLQ_14liquid_staking11ContractObjINtNtNtNtCseUmQFO6d1K9_22multiversx_sc_scenario3api7impl_vh12vm_hooks_api10VMHooksApiNtNtBT_9debug_api15DebugApiBackendEENtNtB7_6manage12ManageModule13claim_rewardss_0CsaR2MVHtCDM0_4test
FNDA:0,_RNvYINtCs2WGRDwQOHLQ_14liquid_staking11ContractObjINtNtNtNtCseUmQFO6d1K9_22multiversx_sc_scenario3api7impl_vh12vm_hooks_api10VMHooksApiNtNtBR_9debug_api15DebugApiBackendEENtNtB5_6manage12ManageModule13claim_rewardsCsVH6ELXPoQD_15unDelegate_test
FNDA:4,_RNvYINtCs2WGRDwQOHLQ_14liquid_staking11ContractObjINtNtNtNtCseUmQFO6d1K9_22multiversx_sc_scenario3api7impl_vh12vm_hooks_api10VMHooksApiNtNtBR_9debug_api15DebugApiBackendEENtNtB5_6manage12ManageModule16delegate_pendingCsVH6ELXPoQD_15unDelegate_test
FNDA:0,_RNvYINtCs2WGRDwQOHLQ_14liquid_staking11ContractObjINtNtNtNtCseUmQFO6d1K9_22multiversx_sc_scenario3api7impl_vh12vm_hooks_api10VMHooksApiNtNtBR_9debug_api15DebugApiBackendEENtNtB5_6manage12ManageModule16delegate_rewardsCsVH6ELXPoQD_15unDelegate_test
FNDA:0,_RNvYINtCs2WGRDwQOHLQ_14liquid_staking11ContractObjINtNtNtNtCseUmQFO6d1K9_22multiversx_sc_scenario3api7impl_vh12vm_hooks_api10VMHooksApiNtNtBR_9debug_api15DebugApiBackendEENtNtB5_6manage12ManageModule16withdraw_pendingCsVH6ELXPoQD_15unDelegate_test
FNDA:1,_RNvYINtCs2WGRDwQOHLQ_14liquid_staking11ContractObjINtNtNtNtCseUmQFO6d1K9_22multiversx_sc_scenario3api7impl_vh12vm_hooks_api10VMHooksApiNtNtBR_9debug_api15DebugApiBackendEENtNtB5_6manage12ManageModule19un_delegate_pendingCsVH6ELXPoQD_15unDelegate_test
FNDA:0,_RNvYINtCs2WGRDwQOHLQ_14liquid_staking11ContractObjINtNtNtNtCseUmQFO6d1K9_22multiversx_sc_scenario3api7impl_vh12vm_hooks_api10VMHooksApiNtNtBR_9debug_api15DebugApiBackendEENtNtB5_6manage16EndpointWrappers17callback_selectorCsVH6ELXPoQD_15unDelegate_test
FNDA:0,_RNvYINtCs2WGRDwQOHLQ_14liquid_staking11ContractObjINtNtNtNtCseUmQFO6d1K9_22multiversx_sc_scenario3api7impl_vh12vm_hooks_api10VMHooksApiNtNtBR_9debug_api15DebugApiBackendEENtNtB5_6manage16EndpointWrappers18call_claim_rewardsCsVH6ELXPoQD_15unDelegate_test
FNDA:0,_RNvYINtCs2WGRDwQOHLQ_14liquid_staking11ContractObjINtNtNtNtCseUmQFO6d1K9_22multiversx_sc_scenario3api7impl_vh12vm_hooks_api10VMHooksApiNtNtBR_9debug_api15DebugApiBackendEENtNtB5_6manage16EndpointWrappers21call_delegate_pendingCsVH6ELXPoQD_15unDelegate_test
FNDA:0,_RNvYINtCs2WGRDwQOHLQ_14liquid_staking11ContractObjINtNtNtNtCseUmQFO6d1K9_22multiversx_sc_scenario3api7impl_vh12vm_hooks_api10VMHooksApiNtNtBR_9debug_api15DebugApiBackendEENtNtB5_6manage16EndpointWrappers21call_delegate_rewardsCsVH6ELXPoQD_15unDelegate_test
FNDA:0,_RNvYINtCs2WGRDwQOHLQ_14liquid_staking11ContractObjINtNtNtNtCseUmQFO6d1K9_22multiversx_sc_scenario3api7impl_vh12vm_hooks_api10VMHooksApiNtNtBR_9debug_api15DebugApiBackendEENtNtB5_6manage16EndpointWrappers21call_withdraw_pendingCsVH6ELXPoQD_15unDelegate_test
FNDA:0,_RNvYINtCs2WGRDwQOHLQ_14liquid_staking11ContractObjINtNtNtNtCseUmQFO6d1K9_22multiversx_sc_scenario3api7impl_vh12vm_hooks_api10VMHooksApiNtNtBR_9debug_api15DebugApiBackendEENtNtB5_6manage16EndpointWrappers24call_un_delegate_pendingCsVH6ELXPoQD_15unDelegate_test
FNDA:5,_RNvYINtCs2WGRDwQOHLQ_14liquid_staking11ContractObjINtNtNtNtCseUmQFO6d1K9_22multiversx_sc_scenario3api7impl_vh12vm_hooks_api10VMHooksApiNtNtBR_9debug_api15DebugApiBackendEENtNtB5_6manage16EndpointWrappers4callCsVH6ELXPoQD_15unDelegate_test
FNDA:0,_RNvYINtCs2WGRDwQOHLQ_14liquid_staking11ContractObjINtNtNtNtCseUmQFO6d1K9_22multiversx_sc_scenario3api7impl_vh12vm_hooks_api10VMHooksApiNtNtBR_9debug_api15DebugApiBackendEENtNtB5_6manage16EndpointWrappers8callbackCsVH6ELXPoQD_15unDelegate_test
FNDA:0,_RNCNvYINtCs2WGRDwQOHLQ_14liquid_staking11ContractObjINtNtNtNtCseUmQFO6d1K9_22multiversx_sc_scenario3api7impl_vh12vm_hooks_api10VMHooksApiNtNtBT_9debug_api15DebugApiBackendEENtNtB7_6manage12ManageModule13claim_rewards0CsVH6ELXPoQD_15unDelegate_test
FNDA:0,_RNCNvYINtCs2WGRDwQOHLQ_14liquid_staking11ContractObjINtNtNtNtCseUmQFO6d1K9_22multiversx_sc_scenario3api7impl_vh12vm_hooks_api10VMHooksApiNtNtBT_9debug_api15DebugApiBackendEENtNtB7_6manage12ManageModule13claim_rewardss_0CsVH6ELXPoQD_15unDelegate_test
FNDA:0,_RNvYINtCs2WGRDwQOHLQ_14liquid_staking11ContractObjINtNtNtNtCseUmQFO6d1K9_22multiversx_sc_scenario3api7impl_vh12vm_hooks_api10VMHooksApiNtNtBR_9debug_api15DebugApiBackendEENtNtB5_6manage12ManageModule13claim_rewardsCshHwHQpnfuGH_11unbond_test
FNDA:5,_RNvYINtCs2WGRDwQOHLQ_14liquid_staking11ContractObjINtNtNtNtCseUmQFO6d1K9_22multiversx_sc_scenario3api7impl_vh12vm_hooks_api10VMHooksApiNtNtBR_9debug_api15DebugApiBackendEENtNtB5_6manage12ManageModule16delegate_pendingCshHwHQpnfuGH_11unbond_test
FNDA:0,_RNvYINtCs2WGRDwQOHLQ_14liquid_staking11ContractObjINtNtNtNtCseUmQFO6d1K9_22multiversx_sc_scenario3api7impl_vh12vm_hooks_api10VMHooksApiNtNtBR_9debug_api15DebugApiBackendEENtNtB5_6manage12ManageModule16delegate_rewardsCshHwHQpnfuGH_11unbond_test
FNDA:4,_RNvYINtCs2WGRDwQOHLQ_14liquid_staking11ContractObjINtNtNtNtCseUmQFO6d1K9_22multiversx_sc_scenario3api7impl_vh12vm_hooks_api10VMHooksApiNtNtBR_9debug_api15DebugApiBackendEENtNtB5_6manage12ManageModule16withdraw_pendingCshHwHQpnfuGH_11unbond_test
FNDA:5,_RNvYINtCs2WGRDwQOHLQ_14liquid_staking11ContractObjINtNtNtNtCseUmQFO6d1K9_22multiversx_sc_scenario3api7impl_vh12vm_hooks_api10VMHooksApiNtNtBR_9debug_api15DebugApiBackendEENtNtB5_6manage12ManageModule19un_delegate_pendingCshHwHQpnfuGH_11unbond_test
FNDA:0,_RNvYINtCs2WGRDwQOHLQ_14liquid_staking11ContractObjINtNtNtNtCseUmQFO6d1K9_22multiversx_sc_scenario3api7impl_vh12vm_hooks_api10VMHooksApiNtNtBR_9debug_api15DebugApiBackendEENtNtB5_6manage16EndpointWrappers17callback_selectorCshHwHQpnfuGH_11unbond_test
FNDA:0,_RNvYINtCs2WGRDwQOHLQ_14liquid_staking11ContractObjINtNtNtNtCseUmQFO6d1K9_22multiversx_sc_scenario3api7impl_vh12vm_hooks_api10VMHooksApiNtNtBR_9debug_api15DebugApiBackendEENtNtB5_6manage16EndpointWrappers18call_claim_rewardsCshHwHQpnfuGH_11unbond_test
FNDA:0,_RNvYINtCs2WGRDwQOHLQ_14liquid_staking11ContractObjINtNtNtNtCseUmQFO6d1K9_22multiversx_sc_scenario3api7impl_vh12vm_hooks_api10VMHooksApiNtNtBR_9debug_api15DebugApiBackendEENtNtB5_6manage16EndpointWrappers21call_delegate_pendingCshHwHQpnfuGH_11unbond_test
FNDA:0,_RNvYINtCs2WGRDwQOHLQ_14liquid_staking11ContractObjINtNtNtNtCseUmQFO6d1K9_22multiversx_sc_scenario3api7impl_vh12vm_hooks_api10VMHooksApiNtNtBR_9debug_api15DebugApiBackendEENtNtB5_6manage16EndpointWrappers21call_delegate_rewardsCshHwHQpnfuGH_11unbond_test
FNDA:0,_RNvYINtCs2WGRDwQOHLQ_14liquid_staking11ContractObjINtNtNtNtCseUmQFO6d1K9_22multiversx_sc_scenario3api7impl_vh12vm_hooks_api10VMHooksApiNtNtBR_9debug_api15DebugApiBackendEENtNtB5_6manage16EndpointWrappers21call_withdraw_pendingCshHwHQpnfuGH_11unbond_test
FNDA:0,_RNvYINtCs2WGRDwQOHLQ_14liquid_staking11ContractObjINtNtNtNtCseUmQFO6d1K9_22multiversx_sc_scenario3api7impl_vh12vm_hooks_api10VMHooksApiNtNtBR_9debug_api15DebugApiBackendEENtNtB5_6manage16EndpointWrappers24call_un_delegate_pendingCshHwHQpnfuGH_11unbond_test
FNDA:14,_RNvYINtCs2WGRDwQOHLQ_14liquid_staking11ContractObjINtNtNtNtCseUmQFO6d1K9_22multiversx_sc_scenario3api7impl_vh12vm_hooks_api10VMHooksApiNtNtBR_9debug_api15DebugApiBackendEENtNtB5_6manage16EndpointWrappers4callCshHwHQpnfuGH_11unbond_test
FNDA:0,_RNvYINtCs2WGRDwQOHLQ_14liquid_staking11ContractObjINtNtNtNtCseUmQFO6d1K9_22multiversx_sc_scenario3api7impl_vh12vm_hooks_api10VMHooksApiNtNtBR_9debug_api15DebugApiBackendEENtNtB5_6manage16EndpointWrappers8callbackCshHwHQpnfuGH_11unbond_test
FNDA:0,_RNCNvYINtCs2WGRDwQOHLQ_14liquid_staking11ContractObjINtNtNtNtCseUmQFO6d1K9_22multiversx_sc_scenario3api7impl_vh12vm_hooks_api10VMHooksApiNtNtBT_9debug_api15DebugApiBackendEENtNtB7_6manage12ManageModule13claim_rewards0CshHwHQpnfuGH_11unbond_test
FNDA:0,_RNCNvYINtCs2WGRDwQOHLQ_14liquid_staking11ContractObjINtNtNtNtCseUmQFO6d1K9_22multiversx_sc_scenario3api7impl_vh12vm_hooks_api10VMHooksApiNtNtBT_9debug_api15DebugApiBackendEENtNtB7_6manage12ManageModule13claim_rewardss_0CshHwHQpnfuGH_11unbond_test
FNF:8
FNH:8
DA:19,51
DA:32,20
DA:33,20
DA:34,20
DA:35,20
DA:36,20
DA:37,0
DA:40,20
DA:41,20
DA:42,20
DA:43,20
DA:44,20
DA:45,20
DA:46,1
DA:49,19
DA:50,19
DA:51,0
DA:54,19
DA:55,19
DA:56,51
DA:57,32
DA:58,32
DA:59,32
DA:60,32
DA:61,32
DA:62,32
DA:63,32
DA:64,32
DA:65,32
DA:66,32
DA:67,32
DA:68,32
DA:69,32
DA:70,32
DA:71,32
DA:75,8
DA:76,8
DA:77,8
DA:78,8
DA:79,8
DA:80,0
DA:83,8
DA:84,8
DA:85,8
DA:86,8
DA:87,8
DA:88,8
DA:89,1
DA:92,7
DA:93,7
DA:94,7
DA:95,7
DA:96,7
DA:97,7
DA:98,7
DA:100,14
DA:101,7
DA:102,7
DA:103,7
DA:104,7
DA:105,7
DA:106,7
DA:107,7
DA:108,7
DA:109,7
DA:110,7
DA:111,7
DA:112,7
DA:116,6
DA:117,6
DA:118,6
DA:119,6
DA:120,6
DA:121,0
DA:124,6
DA:125,6
DA:126,0
DA:129,6
DA:130,6
DA:131,6
DA:132,6
DA:133,6
DA:134,6
DA:135,6
DA:136,6
DA:140,2
DA:141,2
DA:142,2
DA:143,2
DA:144,2
DA:145,0
DA:148,2
DA:149,2
DA:150,2
DA:151,2
DA:152,0
DA:155,2
DA:156,2
DA:157,2
DA:158,2
DA:159,2
DA:160,2
DA:161,2
DA:162,2
DA:163,2
DA:164,2
DA:165,5
DA:166,5
DA:167,5
DA:168,5
DA:169,5
DA:170,5
DA:171,5
DA:172,5
DA:173,5
DA:174,5
DA:175,5
DA:176,5
DA:177,5
DA:178,5
DA:179,5
DA:180,5
DA:181,5
DA:182,5
DA:183,5
DA:184,5
DA:185,2
DA:186,2
DA:187,3
DA:188,3
DA:189,3
DA:190,3
DA:191,3
DA:192,5
DA:193,2
DA:194,2
DA:195,0
DA:196,0
DA:197,0
DA:198,2
DA:199,2
DA:200,2
DA:201,2
DA:202,2
DA:207,1
DA:208,1
DA:209,1
DA:210,1
DA:211,1
DA:212,1
DA:213,0
DA:216,1
DA:217,1
DA:218,0
DA:221,1
DA:222,1
DA:223,0
DA:226,1
DA:227,1
DA:228,1
DA:229,1
DA:230,1
DA:231,1
DA:232,1
DA:233,1
DA:234,1
DA:235,1
DA:236,1
DA:237,1
DA:238,1
DA:239,1
DA:241,1
DA:242,1
DA:244,2
DA:245,1
DA:246,1
DA:247,1
DA:248,1
DA:249,1
DA:250,1
DA:251,1
DA:252,1
DA:253,1
DA:254,1
DA:255,1
DA:256,1
DA:257,1
DA:258,1
BRF:0
BRH:0
LF:192
LH:178
end_of_record
SF:/Users/mihaieremia/GitHub/rs-egld-liquid-staking/liquid-staking/src/storage.rs
FN:6,_RNvXNtCs2WGRDwQOHLQ_14liquid_staking7storageINtB4_11ContractObjINtNtNtNtCseUmQFO6d1K9_22multiversx_sc_scenario3api7impl_vh12vm_hooks_api10VMHooksApiNtNtB14_9debug_api15DebugApiBackendEENtB2_13StorageModule23delegation_claim_statusCskEhliFuVTlV_13delegate_test
FN:6,_RNvXNtCs2WGRDwQOHLQ_14liquid_staking7storageINtB4_11ContractObjINtNtNtNtCseUmQFO6d1K9_22multiversx_sc_scenario3api7impl_vh12vm_hooks_api10VMHooksApiNtNtB14_9debug_api15DebugApiBackendEENtB2_13StorageModule24delegation_contract_dataCskEhliFuVTlV_13delegate_test
FN:6,_RNvXNtCs2WGRDwQOHLQ_14liquid_staking7storageINtB4_11ContractObjINtNtNtNtCseUmQFO6d1K9_22multiversx_sc_scenario3api7impl_vh12vm_hooks_api10VMHooksApiNtNtB14_9debug_api15DebugApiBackendEENtB2_13StorageModule24max_delegation_addressesCskEhliFuVTlV_13delegate_test
FN:6,_RNvXNtCs2WGRDwQOHLQ_14liquid_staking7storageINtB4_11ContractObjINtNtNtNtCseUmQFO6d1K9_22multiversx_sc_scenario3api7impl_vh12vm_hooks_api10VMHooksApiNtNtB14_9debug_api15DebugApiBackendEENtB2_13StorageModule25delegation_addresses_listCskEhliFuVTlV_13delegate_test
FN:6,_RNvYINtCs2WGRDwQOHLQ_14liquid_staking11ContractObjINtNtNtNtCseUmQFO6d1K9_22multiversx_sc_scenario3api7impl_vh12vm_hooks_api10VMHooksApiNtNtBR_9debug_api15DebugApiBackendEENtNtB5_7storage16EndpointWrappers17callback_selectorCskEhliFuVTlV_13delegate_test
FN:6,_RNvYINtCs2WGRDwQOHLQ_14liquid_staking11ContractObjINtNtNtNtCseUmQFO6d1K9_22multiversx_sc_scenario3api7impl_vh12vm_hooks_api10VMHooksApiNtNtBR_9debug_api15DebugApiBackendEENtNtB5_7storage16EndpointWrappers28call_delegation_claim_statusCskEhliFuVTlV_13delegate_test
FN:6,_RNvYINtCs2WGRDwQOHLQ_14liquid_staking11ContractObjINtNtNtNtCseUmQFO6d1K9_22multiversx_sc_scenario3api7impl_vh12vm_hooks_api10VMHooksApiNtNtBR_9debug_api15DebugApiBackendEENtNtB5_7storage16EndpointWrappers29call_delegation_contract_dataCskEhliFuVTlV_13delegate_test
FN:6,_RNvYINtCs2WGRDwQOHLQ_14liquid_staking11ContractObjINtNtNtNtCseUmQFO6d1K9_22multiversx_sc_scenario3api7impl_vh12vm_hooks_api10VMHooksApiNtNtBR_9debug_api15DebugApiBackendEENtNtB5_7storage16EndpointWrappers29call_max_delegation_addressesCskEhliFuVTlV_13delegate_test
FN:6,_RNvYINtCs2WGRDwQOHLQ_14liquid_staking11ContractObjINtNtNtNtCseUmQFO6d1K9_22multiversx_sc_scenario3api7impl_vh12vm_hooks_api10VMHooksApiNtNtBR_9debug_api15DebugApiBackendEENtNtB5_7storage16EndpointWrappers30call_delegation_addresses_listCskEhliFuVTlV_13delegate_test
FN:6,_RNvYINtCs2WGRDwQOHLQ_14liquid_staking11ContractObjINtNtNtNtCseUmQFO6d1K9_22multiversx_sc_scenario3api7impl_vh12vm_hooks_api10VMHooksApiNtNtBR_9debug_api15DebugApiBackendEENtNtB5_7storage16EndpointWrappers4callCskEhliFuVTlV_13delegate_test
FN:6,_RNvYINtCs2WGRDwQOHLQ_14liquid_staking11ContractObjINtNtNtNtCseUmQFO6d1K9_22multiversx_sc_scenario3api7impl_vh12vm_hooks_api10VMHooksApiNtNtBR_9debug_api15DebugApiBackendEENtNtB5_7storage16EndpointWrappers8callbackCskEhliFuVTlV_13delegate_test
FN:6,_RNvXININtCsdRzYvL09OST_14liquid_staking7storage0pEpNtB5_13StorageModule25delegation_addresses_listB7_
FN:6,_RNvXININtCsdRzYvL09OST_14liquid_staking7storage0pEpNtB5_13StorageModule23delegation_claim_statusB7_
FN:6,_RNvXININtCsdRzYvL09OST_14liquid_staking7storage0pEpNtB5_13StorageModule24max_delegation_addressesB7_
FN:6,_RNvXININtCsdRzYvL09OST_14liquid_staking7storage0pEpNtB5_13StorageModule24delegation_contract_dataB7_
FN:6,_RNvYpNtNtCsdRzYvL09OST_14liquid_staking7storage16EndpointWrappers30call_delegation_addresses_listB7_
FN:6,_RNvYpNtNtCsdRzYvL09OST_14liquid_staking7storage16EndpointWrappers28call_delegation_claim_statusB7_
FN:6,_RNvYpNtNtCsdRzYvL09OST_14liquid_staking7storage16EndpointWrappers29call_max_delegation_addressesB7_
FN:6,_RNvYpNtNtCsdRzYvL09OST_14liquid_staking7storage16EndpointWrappers29call_delegation_contract_dataB7_
FN:6,_RNvYpNtNtCsdRzYvL09OST_14liquid_staking7storage16EndpointWrappers4callB7_
FN:6,_RNvYpNtNtCsdRzYvL09OST_14liquid_staking7storage16EndpointWrappers17callback_selectorB7_
FN:6,_RNvYpNtNtCsdRzYvL09OST_14liquid_staking7storage16EndpointWrappers8callbackB7_
FN:6,_RNvXs1_NtCsdRzYvL09OST_14liquid_staking7storageNtB5_11AbiProviderNtNtNtCs4WmCETBkTZ5_13multiversx_sc13contract_base21contract_abi_provider19ContractAbiProvider3abi
FN:6,_RNvXININtCsdRzYvL09OST_14liquid_staking7storages5_0pEINtB5_11ContractObjpENtNtNtCs4WmCETBkTZ5_13multiversx_sc13contract_base17callable_contract16CallableContract4callB7_
FN:6,_RINvNtCsdRzYvL09OST_14liquid_staking7storage12contract_objpEB4_
FN:6,_RINvXs6_NtCsdRzYvL09OST_14liquid_staking7storageNtB6_15ContractBuilderNtNtNtCs4WmCETBkTZ5_13multiversx_sc13contract_base17callable_contract23CallableContractBuilder16new_contract_objpEB8_
FN:6,_RINvNtNtCsdRzYvL09OST_14liquid_staking7storage19___wasm__endpoints__25delegation_addresses_listpEB6_
FN:6,_RINvNtNtCsdRzYvL09OST_14liquid_staking7storage19___wasm__endpoints__23delegation_claim_statuspEB6_
FN:6,_RINvNtNtCsdRzYvL09OST_14liquid_staking7storage19___wasm__endpoints__24max_delegation_addressespEB6_
FN:6,_RINvNtNtCsdRzYvL09OST_14liquid_staking7storage19___wasm__endpoints__24delegation_contract_datapEB6_
FN:6,_RNvYpNtNtCsdRzYvL09OST_14liquid_staking7storage10ProxyTrait25delegation_addresses_listB7_
FN:6,_RNvYpNtNtCsdRzYvL09OST_14liquid_staking7storage10ProxyTrait23delegation_claim_statusB7_
FN:6,_RNvYpNtNtCsdRzYvL09OST_14liquid_staking7storage10ProxyTrait24max_delegation_addressesB7_
FN:6,_RINvYpNtNtCsdRzYvL09OST_14liquid_staking7storage10ProxyTrait24delegation_contract_datapEB8_
FN:6,_RNvXNtCs2WGRDwQOHLQ_14liquid_staking7storageINtB4_11ContractObjINtNtNtNtCseUmQFO6d1K9_22multiversx_sc_scenario3api7impl_vh12vm_hooks_api10VMHooksApiNtNtB14_9debug_api15DebugApiBackendEENtB2_13StorageModule23delegation_claim_statusCsaR2MVHtCDM0_4test
FN:6,_RNvXNtCs2WGRDwQOHLQ_14liquid_staking7storageINtB4_11ContractObjINtNtNtNtCseUmQFO6d1K9_22multiversx_sc_scenario3api7impl_vh12vm_hooks_api10VMHooksApiNtNtB14_9debug_api15DebugApiBackendEENtB2_13StorageModule24delegation_contract_dataCsaR2MVHtCDM0_4test
FN:6,_RNvXNtCs2WGRDwQOHLQ_14liquid_staking7storageINtB4_11ContractObjINtNtNtNtCseUmQFO6d1K9_22multiversx_sc_scenario3api7impl_vh12vm_hooks_api10VMHooksApiNtNtB14_9debug_api15DebugApiBackendEENtB2_13StorageModule24max_delegation_addressesCsaR2MVHtCDM0_4test
FN:6,_RNvXNtCs2WGRDwQOHLQ_14liquid_staking7storageINtB4_11ContractObjINtNtNtNtCseUmQFO6d1K9_22multiversx_sc_scenario3api7impl_vh12vm_hooks_api10VMHooksApiNtNtB14_9debug_api15DebugApiBackendEENtB2_13StorageModule25delegation_addresses_listCsaR2MVHtCDM0_4test
FN:6,_RNvYINtCs2WGRDwQOHLQ_14liquid_staking11ContractObjINtNtNtNtCseUmQFO6d1K9_22multiversx_sc_scenario3api7impl_vh12vm_hooks_api10VMHooksApiNtNtBR_9debug_api15DebugApiBackendEENtNtB5_7storage16EndpointWrappers17callback_selectorCsaR2MVHtCDM0_4test
FN:6,_RNvYINtCs2WGRDwQOHLQ_14liquid_staking11ContractObjINtNtNtNtCseUmQFO6d1K9_22multiversx_sc_scenario3api7impl_vh12vm_hooks_api10VMHooksApiNtNtBR_9debug_api15DebugApiBackendEENtNtB5_7storage16EndpointWrappers28call_delegation_claim_statusCsaR2MVHtCDM0_4test
FN:6,_RNvYINtCs2WGRDwQOHLQ_14liquid_staking11ContractObjINtNtNtNtCseUmQFO6d1K9_22multiversx_sc_scenario3api7impl_vh12vm_hooks_api10VMHooksApiNtNtBR_9debug_api15DebugApiBackendEENtNtB5_7storage16EndpointWrappers29call_delegation_contract_dataCsaR2MVHtCDM0_4test
